GAS LISTING /tmp/ccGAoxRT.s 			page 1


   1              		.file	"userMain.cpp"
   2              		.option pic
   3              		.option norelax
   4              		.text
   5              	.Ltext0:
   6              		.section	.text._ZN8ConsumerD2Ev,"axG",@progbits,_ZN8ConsumerD5Ev,comdat
   7              		.align	2
   8              		.weak	_ZN8ConsumerD2Ev
  10              	_ZN8ConsumerD2Ev:
  11              	.LFB23:
  12              		.file 1 "test/../test/ConsumerProducer_CPP_Sync_API_test.hpp"
   1:test/../test/ConsumerProducer_CPP_Sync_API_test.hpp **** //
   2:test/../test/ConsumerProducer_CPP_Sync_API_test.hpp **** // Created by os on 4/17/22.
   3:test/../test/ConsumerProducer_CPP_Sync_API_test.hpp **** //
   4:test/../test/ConsumerProducer_CPP_Sync_API_test.hpp **** 
   5:test/../test/ConsumerProducer_CPP_Sync_API_test.hpp **** #ifndef XV6_CONSUMERPRODUCER_CPP_Sync_API_TEST_H
   6:test/../test/ConsumerProducer_CPP_Sync_API_test.hpp **** #define XV6_CONSUMERPRODUCER_CPP_Sync_API_TEST_H
   7:test/../test/ConsumerProducer_CPP_Sync_API_test.hpp **** 
   8:test/../test/ConsumerProducer_CPP_Sync_API_test.hpp **** #include "../h/syscall_cpp.h"
   9:test/../test/ConsumerProducer_CPP_Sync_API_test.hpp **** 
  10:test/../test/ConsumerProducer_CPP_Sync_API_test.hpp **** #include "buffer_CPP_API.hpp"
  11:test/../test/ConsumerProducer_CPP_Sync_API_test.hpp **** 
  12:test/../test/ConsumerProducer_CPP_Sync_API_test.hpp **** Semaphore* waitForAll;
  13:test/../test/ConsumerProducer_CPP_Sync_API_test.hpp **** 
  14:test/../test/ConsumerProducer_CPP_Sync_API_test.hpp **** struct thread_data {
  15:test/../test/ConsumerProducer_CPP_Sync_API_test.hpp ****     int id;
  16:test/../test/ConsumerProducer_CPP_Sync_API_test.hpp ****     BufferCPP *buffer;
  17:test/../test/ConsumerProducer_CPP_Sync_API_test.hpp ****     Semaphore* wait;
  18:test/../test/ConsumerProducer_CPP_Sync_API_test.hpp **** };
  19:test/../test/ConsumerProducer_CPP_Sync_API_test.hpp **** 
  20:test/../test/ConsumerProducer_CPP_Sync_API_test.hpp **** volatile int threadEnd = 0;
  21:test/../test/ConsumerProducer_CPP_Sync_API_test.hpp **** 
  22:test/../test/ConsumerProducer_CPP_Sync_API_test.hpp **** class ProducerKeyboard:public Thread {
  23:test/../test/ConsumerProducer_CPP_Sync_API_test.hpp ****     thread_data* td;
  24:test/../test/ConsumerProducer_CPP_Sync_API_test.hpp ****     void producerKeyboard(void *arg);
  25:test/../test/ConsumerProducer_CPP_Sync_API_test.hpp **** public:
  26:test/../test/ConsumerProducer_CPP_Sync_API_test.hpp ****     ProducerKeyboard(thread_data* _td):Thread(), td(_td) {}
  27:test/../test/ConsumerProducer_CPP_Sync_API_test.hpp **** 
  28:test/../test/ConsumerProducer_CPP_Sync_API_test.hpp ****     void run() override {
  29:test/../test/ConsumerProducer_CPP_Sync_API_test.hpp ****         producerKeyboard(td);
  30:test/../test/ConsumerProducer_CPP_Sync_API_test.hpp ****     }
  31:test/../test/ConsumerProducer_CPP_Sync_API_test.hpp **** };
  32:test/../test/ConsumerProducer_CPP_Sync_API_test.hpp **** 
  33:test/../test/ConsumerProducer_CPP_Sync_API_test.hpp **** void ProducerKeyboard::producerKeyboard(void *arg) {
  34:test/../test/ConsumerProducer_CPP_Sync_API_test.hpp ****     struct thread_data *data = (struct thread_data *) arg;
  35:test/../test/ConsumerProducer_CPP_Sync_API_test.hpp **** 
  36:test/../test/ConsumerProducer_CPP_Sync_API_test.hpp ****     int key;
  37:test/../test/ConsumerProducer_CPP_Sync_API_test.hpp ****     int i = 0;
  38:test/../test/ConsumerProducer_CPP_Sync_API_test.hpp ****     while ((key = getc()) != 0x1b) {
  39:test/../test/ConsumerProducer_CPP_Sync_API_test.hpp ****         data->buffer->put(key);
  40:test/../test/ConsumerProducer_CPP_Sync_API_test.hpp ****         i++;
  41:test/../test/ConsumerProducer_CPP_Sync_API_test.hpp **** 
  42:test/../test/ConsumerProducer_CPP_Sync_API_test.hpp ****         if (i % (10 * data->id) == 0) {
  43:test/../test/ConsumerProducer_CPP_Sync_API_test.hpp ****             Thread::dispatch();
  44:test/../test/ConsumerProducer_CPP_Sync_API_test.hpp ****         }
  45:test/../test/ConsumerProducer_CPP_Sync_API_test.hpp ****     }
  46:test/../test/ConsumerProducer_CPP_Sync_API_test.hpp **** 
GAS LISTING /tmp/ccGAoxRT.s 			page 2


  47:test/../test/ConsumerProducer_CPP_Sync_API_test.hpp ****     threadEnd = 1;
  48:test/../test/ConsumerProducer_CPP_Sync_API_test.hpp ****     td->buffer->put('!');
  49:test/../test/ConsumerProducer_CPP_Sync_API_test.hpp **** 
  50:test/../test/ConsumerProducer_CPP_Sync_API_test.hpp ****     data->wait->signal();
  51:test/../test/ConsumerProducer_CPP_Sync_API_test.hpp **** }
  52:test/../test/ConsumerProducer_CPP_Sync_API_test.hpp **** 
  53:test/../test/ConsumerProducer_CPP_Sync_API_test.hpp **** class Producer:public Thread {
  54:test/../test/ConsumerProducer_CPP_Sync_API_test.hpp ****     thread_data* td;
  55:test/../test/ConsumerProducer_CPP_Sync_API_test.hpp ****     void producer(void *arg);
  56:test/../test/ConsumerProducer_CPP_Sync_API_test.hpp **** public:
  57:test/../test/ConsumerProducer_CPP_Sync_API_test.hpp ****     Producer(thread_data* _td):Thread(), td(_td) {}
  58:test/../test/ConsumerProducer_CPP_Sync_API_test.hpp **** 
  59:test/../test/ConsumerProducer_CPP_Sync_API_test.hpp ****     void run() override {
  60:test/../test/ConsumerProducer_CPP_Sync_API_test.hpp ****         producer(td);
  61:test/../test/ConsumerProducer_CPP_Sync_API_test.hpp ****     }
  62:test/../test/ConsumerProducer_CPP_Sync_API_test.hpp **** };
  63:test/../test/ConsumerProducer_CPP_Sync_API_test.hpp **** 
  64:test/../test/ConsumerProducer_CPP_Sync_API_test.hpp **** void Producer::producer(void *arg) {
  65:test/../test/ConsumerProducer_CPP_Sync_API_test.hpp ****     struct thread_data *data = (struct thread_data *) arg;
  66:test/../test/ConsumerProducer_CPP_Sync_API_test.hpp **** 
  67:test/../test/ConsumerProducer_CPP_Sync_API_test.hpp ****     int i = 0;
  68:test/../test/ConsumerProducer_CPP_Sync_API_test.hpp ****     while (!threadEnd) {
  69:test/../test/ConsumerProducer_CPP_Sync_API_test.hpp ****         data->buffer->put(data->id + '0');
  70:test/../test/ConsumerProducer_CPP_Sync_API_test.hpp ****         i++;
  71:test/../test/ConsumerProducer_CPP_Sync_API_test.hpp **** 
  72:test/../test/ConsumerProducer_CPP_Sync_API_test.hpp ****         if (i % (10 * data->id) == 0) {
  73:test/../test/ConsumerProducer_CPP_Sync_API_test.hpp ****             Thread::dispatch();
  74:test/../test/ConsumerProducer_CPP_Sync_API_test.hpp ****         }
  75:test/../test/ConsumerProducer_CPP_Sync_API_test.hpp ****     }
  76:test/../test/ConsumerProducer_CPP_Sync_API_test.hpp **** 
  77:test/../test/ConsumerProducer_CPP_Sync_API_test.hpp ****     data->wait->signal();
  78:test/../test/ConsumerProducer_CPP_Sync_API_test.hpp **** }
  79:test/../test/ConsumerProducer_CPP_Sync_API_test.hpp **** 
  80:test/../test/ConsumerProducer_CPP_Sync_API_test.hpp **** class Consumer:public Thread {
  13              		.loc 1 80 7
  14              		.cfi_startproc
  15              	.LVL0:
  16 0000 130101FF 		addi	sp,sp,-16
  17              		.cfi_def_cfa_offset 16
  18 0004 23348100 		sd	s0,8(sp)
  19              		.cfi_offset 8, -8
  20 0008 13040101 		addi	s0,sp,16
  21              		.cfi_def_cfa 8, 0
  22              		.loc 1 80 7 is_stmt 0
  23 000c 03348100 		ld	s0,8(sp)
  24              		.cfi_restore 8
  25              		.cfi_def_cfa 2, 16
  26 0010 13010101 		addi	sp,sp,16
  27              		.cfi_def_cfa_offset 0
  28 0014 67800000 		jr	ra
  29              		.cfi_endproc
  30              	.LFE23:
  32              		.weak	_ZN8ConsumerD1Ev
  33              		.set	_ZN8ConsumerD1Ev,_ZN8ConsumerD2Ev
  34              		.section	.text._ZN8ProducerD2Ev,"axG",@progbits,_ZN8ProducerD5Ev,comdat
  35              		.align	2
  36              		.weak	_ZN8ProducerD2Ev
GAS LISTING /tmp/ccGAoxRT.s 			page 3


  38              	_ZN8ProducerD2Ev:
  39              	.LFB27:
  53:test/../test/ConsumerProducer_CPP_Sync_API_test.hpp ****     thread_data* td;
  40              		.loc 1 53 7 is_stmt 1
  41              		.cfi_startproc
  42              	.LVL1:
  43 0000 130101FF 		addi	sp,sp,-16
  44              		.cfi_def_cfa_offset 16
  45 0004 23348100 		sd	s0,8(sp)
  46              		.cfi_offset 8, -8
  47 0008 13040101 		addi	s0,sp,16
  48              		.cfi_def_cfa 8, 0
  53:test/../test/ConsumerProducer_CPP_Sync_API_test.hpp ****     thread_data* td;
  49              		.loc 1 53 7 is_stmt 0
  50 000c 03348100 		ld	s0,8(sp)
  51              		.cfi_restore 8
  52              		.cfi_def_cfa 2, 16
  53 0010 13010101 		addi	sp,sp,16
  54              		.cfi_def_cfa_offset 0
  55 0014 67800000 		jr	ra
  56              		.cfi_endproc
  57              	.LFE27:
  59              		.weak	_ZN8ProducerD1Ev
  60              		.set	_ZN8ProducerD1Ev,_ZN8ProducerD2Ev
  61              		.section	.text._ZN16ProducerKeyboardD2Ev,"axG",@progbits,_ZN16ProducerKeyboardD5Ev,comdat
  62              		.align	2
  63              		.weak	_ZN16ProducerKeyboardD2Ev
  65              	_ZN16ProducerKeyboardD2Ev:
  66              	.LFB31:
  22:test/../test/ConsumerProducer_CPP_Sync_API_test.hpp ****     thread_data* td;
  67              		.loc 1 22 7 is_stmt 1
  68              		.cfi_startproc
  69              	.LVL2:
  70 0000 130101FF 		addi	sp,sp,-16
  71              		.cfi_def_cfa_offset 16
  72 0004 23348100 		sd	s0,8(sp)
  73              		.cfi_offset 8, -8
  74 0008 13040101 		addi	s0,sp,16
  75              		.cfi_def_cfa 8, 0
  22:test/../test/ConsumerProducer_CPP_Sync_API_test.hpp ****     thread_data* td;
  76              		.loc 1 22 7 is_stmt 0
  77 000c 03348100 		ld	s0,8(sp)
  78              		.cfi_restore 8
  79              		.cfi_def_cfa 2, 16
  80 0010 13010101 		addi	sp,sp,16
  81              		.cfi_def_cfa_offset 0
  82 0014 67800000 		jr	ra
  83              		.cfi_endproc
  84              	.LFE31:
  86              		.weak	_ZN16ProducerKeyboardD1Ev
  87              		.set	_ZN16ProducerKeyboardD1Ev,_ZN16ProducerKeyboardD2Ev
  88              		.section	.text._ZN8ConsumerD0Ev,"axG",@progbits,_ZN8ConsumerD5Ev,comdat
  89              		.align	2
  90              		.weak	_ZN8ConsumerD0Ev
  92              	_ZN8ConsumerD0Ev:
  93              	.LFB25:
  94              		.loc 1 80 7 is_stmt 1
GAS LISTING /tmp/ccGAoxRT.s 			page 4


  95              		.cfi_startproc
  96              	.LVL3:
  97 0000 130101FF 		addi	sp,sp,-16
  98              		.cfi_def_cfa_offset 16
  99 0004 23341100 		sd	ra,8(sp)
 100 0008 23308100 		sd	s0,0(sp)
 101              		.cfi_offset 1, -8
 102              		.cfi_offset 8, -16
 103 000c 13040101 		addi	s0,sp,16
 104              		.cfi_def_cfa 8, 0
 105              		.loc 1 80 7 is_stmt 0
 106 0010 97000000 		call	_ZdlPv@plt
 106      E7800000 
 107              	.LVL4:
 108 0018 83308100 		ld	ra,8(sp)
 109              		.cfi_restore 1
 110 001c 03340100 		ld	s0,0(sp)
 111              		.cfi_restore 8
 112              		.cfi_def_cfa 2, 16
 113 0020 13010101 		addi	sp,sp,16
 114              		.cfi_def_cfa_offset 0
 115 0024 67800000 		jr	ra
 116              		.cfi_endproc
 117              	.LFE25:
 119              		.section	.text._ZN8ProducerD0Ev,"axG",@progbits,_ZN8ProducerD5Ev,comdat
 120              		.align	2
 121              		.weak	_ZN8ProducerD0Ev
 123              	_ZN8ProducerD0Ev:
 124              	.LFB29:
  53:test/../test/ConsumerProducer_CPP_Sync_API_test.hpp ****     thread_data* td;
 125              		.loc 1 53 7 is_stmt 1
 126              		.cfi_startproc
 127              	.LVL5:
 128 0000 130101FF 		addi	sp,sp,-16
 129              		.cfi_def_cfa_offset 16
 130 0004 23341100 		sd	ra,8(sp)
 131 0008 23308100 		sd	s0,0(sp)
 132              		.cfi_offset 1, -8
 133              		.cfi_offset 8, -16
 134 000c 13040101 		addi	s0,sp,16
 135              		.cfi_def_cfa 8, 0
  53:test/../test/ConsumerProducer_CPP_Sync_API_test.hpp ****     thread_data* td;
 136              		.loc 1 53 7 is_stmt 0
 137 0010 97000000 		call	_ZdlPv@plt
 137      E7800000 
 138              	.LVL6:
 139 0018 83308100 		ld	ra,8(sp)
 140              		.cfi_restore 1
 141 001c 03340100 		ld	s0,0(sp)
 142              		.cfi_restore 8
 143              		.cfi_def_cfa 2, 16
 144 0020 13010101 		addi	sp,sp,16
 145              		.cfi_def_cfa_offset 0
 146 0024 67800000 		jr	ra
 147              		.cfi_endproc
 148              	.LFE29:
 150              		.section	.text._ZN16ProducerKeyboardD0Ev,"axG",@progbits,_ZN16ProducerKeyboardD5Ev,comdat
GAS LISTING /tmp/ccGAoxRT.s 			page 5


 151              		.align	2
 152              		.weak	_ZN16ProducerKeyboardD0Ev
 154              	_ZN16ProducerKeyboardD0Ev:
 155              	.LFB33:
  22:test/../test/ConsumerProducer_CPP_Sync_API_test.hpp ****     thread_data* td;
 156              		.loc 1 22 7 is_stmt 1
 157              		.cfi_startproc
 158              	.LVL7:
 159 0000 130101FF 		addi	sp,sp,-16
 160              		.cfi_def_cfa_offset 16
 161 0004 23341100 		sd	ra,8(sp)
 162 0008 23308100 		sd	s0,0(sp)
 163              		.cfi_offset 1, -8
 164              		.cfi_offset 8, -16
 165 000c 13040101 		addi	s0,sp,16
 166              		.cfi_def_cfa 8, 0
  22:test/../test/ConsumerProducer_CPP_Sync_API_test.hpp ****     thread_data* td;
 167              		.loc 1 22 7 is_stmt 0
 168 0010 97000000 		call	_ZdlPv@plt
 168      E7800000 
 169              	.LVL8:
 170 0018 83308100 		ld	ra,8(sp)
 171              		.cfi_restore 1
 172 001c 03340100 		ld	s0,0(sp)
 173              		.cfi_restore 8
 174              		.cfi_def_cfa 2, 16
 175 0020 13010101 		addi	sp,sp,16
 176              		.cfi_def_cfa_offset 0
 177 0024 67800000 		jr	ra
 178              		.cfi_endproc
 179              	.LFE33:
 181              		.text
 182              		.align	2
 183              		.globl	_ZN16ProducerKeyboard16producerKeyboardEPv
 185              	_ZN16ProducerKeyboard16producerKeyboardEPv:
 186              	.LFB9:
  33:test/../test/ConsumerProducer_CPP_Sync_API_test.hpp ****     struct thread_data *data = (struct thread_data *) arg;
 187              		.loc 1 33 52 is_stmt 1
 188              		.cfi_startproc
 189              	.LVL9:
 190 0000 130101FD 		addi	sp,sp,-48
 191              		.cfi_def_cfa_offset 48
 192 0004 23341102 		sd	ra,40(sp)
 193 0008 23308102 		sd	s0,32(sp)
 194 000c 233C9100 		sd	s1,24(sp)
 195 0010 23382101 		sd	s2,16(sp)
 196 0014 23343101 		sd	s3,8(sp)
 197              		.cfi_offset 1, -8
 198              		.cfi_offset 8, -16
 199              		.cfi_offset 9, -24
 200              		.cfi_offset 18, -32
 201              		.cfi_offset 19, -40
 202 0018 13040103 		addi	s0,sp,48
 203              		.cfi_def_cfa 8, 0
 204 001c 93090500 		mv	s3,a0
 205 0020 93840500 		mv	s1,a1
  34:test/../test/ConsumerProducer_CPP_Sync_API_test.hpp **** 
GAS LISTING /tmp/ccGAoxRT.s 			page 6


 206              		.loc 1 34 5
 207              	.LVL10:
  36:test/../test/ConsumerProducer_CPP_Sync_API_test.hpp ****     int i = 0;
 208              		.loc 1 36 5
  37:test/../test/ConsumerProducer_CPP_Sync_API_test.hpp ****     while ((key = getc()) != 0x1b) {
 209              		.loc 1 37 5
  37:test/../test/ConsumerProducer_CPP_Sync_API_test.hpp ****     while ((key = getc()) != 0x1b) {
 210              		.loc 1 37 9 is_stmt 0
 211 0024 13090000 		li	s2,0
 212 0028 6F00C000 		j	.L14
 213              	.LVL11:
 214              	.L18:
  43:test/../test/ConsumerProducer_CPP_Sync_API_test.hpp ****         }
 215              		.loc 1 43 13 is_stmt 1
  43:test/../test/ConsumerProducer_CPP_Sync_API_test.hpp ****         }
 216              		.loc 1 43 29 is_stmt 0
 217 002c 97000000 		call	_ZN6Thread8dispatchEv@plt
 217      E7800000 
 218              	.LVL12:
 219              	.L14:
  38:test/../test/ConsumerProducer_CPP_Sync_API_test.hpp ****         data->buffer->put(key);
 220              		.loc 1 38 5 is_stmt 1
  38:test/../test/ConsumerProducer_CPP_Sync_API_test.hpp ****         data->buffer->put(key);
 221              		.loc 1 38 27
  38:test/../test/ConsumerProducer_CPP_Sync_API_test.hpp ****         data->buffer->put(key);
 222              		.loc 1 38 23 is_stmt 0
 223 0034 97000000 		call	_Z4getcv@plt
 223      E7800000 
 224              	.LVL13:
  38:test/../test/ConsumerProducer_CPP_Sync_API_test.hpp ****         data->buffer->put(key);
 225              		.loc 1 38 17
 226 003c 9B050500 		sext.w	a1,a0
 227              	.LVL14:
  38:test/../test/ConsumerProducer_CPP_Sync_API_test.hpp ****         data->buffer->put(key);
 228              		.loc 1 38 27
 229 0040 9307B001 		li	a5,27
 230 0044 638AF502 		beq	a1,a5,.L15
  39:test/../test/ConsumerProducer_CPP_Sync_API_test.hpp ****         i++;
 231              		.loc 1 39 9 is_stmt 1
  39:test/../test/ConsumerProducer_CPP_Sync_API_test.hpp ****         i++;
 232              		.loc 1 39 26 is_stmt 0
 233 0048 03B58400 		ld	a0,8(s1)
 234 004c 97000000 		call	_ZN9BufferCPP3putEi@plt
 234      E7800000 
 235              	.LVL15:
  40:test/../test/ConsumerProducer_CPP_Sync_API_test.hpp **** 
 236              		.loc 1 40 9 is_stmt 1
  40:test/../test/ConsumerProducer_CPP_Sync_API_test.hpp **** 
 237              		.loc 1 40 10 is_stmt 0
 238 0054 1B071900 		addiw	a4,s2,1
 239 0058 1B090700 		sext.w	s2,a4
 240              	.LVL16:
  42:test/../test/ConsumerProducer_CPP_Sync_API_test.hpp ****             Thread::dispatch();
 241              		.loc 1 42 9 is_stmt 1
  42:test/../test/ConsumerProducer_CPP_Sync_API_test.hpp ****             Thread::dispatch();
 242              		.loc 1 42 29 is_stmt 0
 243 005c 83A60400 		lw	a3,0(s1)
GAS LISTING /tmp/ccGAoxRT.s 			page 7


  42:test/../test/ConsumerProducer_CPP_Sync_API_test.hpp ****             Thread::dispatch();
 244              		.loc 1 42 21
 245 0060 9B972600 		slliw	a5,a3,2
 246 0064 BB87D700 		addw	a5,a5,a3
 247 0068 9B971700 		slliw	a5,a5,1
  42:test/../test/ConsumerProducer_CPP_Sync_API_test.hpp ****             Thread::dispatch();
 248              		.loc 1 42 15
 249 006c BB67F702 		remw	a5,a4,a5
  42:test/../test/ConsumerProducer_CPP_Sync_API_test.hpp ****             Thread::dispatch();
 250              		.loc 1 42 9
 251 0070 E39207FC 		bnez	a5,.L14
 252 0074 6FF09FFB 		j	.L18
 253              	.LVL17:
 254              	.L15:
  47:test/../test/ConsumerProducer_CPP_Sync_API_test.hpp ****     td->buffer->put('!');
 255              		.loc 1 47 5 is_stmt 1
  47:test/../test/ConsumerProducer_CPP_Sync_API_test.hpp ****     td->buffer->put('!');
 256              		.loc 1 47 15 is_stmt 0
 257 0078 93071000 		li	a5,1
 258 007c 17070000 		sw	a5,.LANCHOR0,a4
 258      2320F700 
  48:test/../test/ConsumerProducer_CPP_Sync_API_test.hpp **** 
 259              		.loc 1 48 5 is_stmt 1
 260 0084 83B70901 		ld	a5,16(s3)
  48:test/../test/ConsumerProducer_CPP_Sync_API_test.hpp **** 
 261              		.loc 1 48 20 is_stmt 0
 262 0088 93051002 		li	a1,33
 263              	.LVL18:
 264 008c 03B58700 		ld	a0,8(a5)
 265              	.LVL19:
 266 0090 97000000 		call	_ZN9BufferCPP3putEi@plt
 266      E7800000 
 267              	.LVL20:
  50:test/../test/ConsumerProducer_CPP_Sync_API_test.hpp **** }
 268              		.loc 1 50 5 is_stmt 1
  50:test/../test/ConsumerProducer_CPP_Sync_API_test.hpp **** }
 269              		.loc 1 50 23 is_stmt 0
 270 0098 03B50401 		ld	a0,16(s1)
 271 009c 97000000 		call	_ZN9Semaphore6signalEv@plt
 271      E7800000 
 272              	.LVL21:
  51:test/../test/ConsumerProducer_CPP_Sync_API_test.hpp **** 
 273              		.loc 1 51 1
 274 00a4 83308102 		ld	ra,40(sp)
 275              		.cfi_restore 1
 276 00a8 03340102 		ld	s0,32(sp)
 277              		.cfi_restore 8
 278              		.cfi_def_cfa 2, 48
 279 00ac 83348101 		ld	s1,24(sp)
 280              		.cfi_restore 9
 281              	.LVL22:
 282 00b0 03390101 		ld	s2,16(sp)
 283              		.cfi_restore 18
 284              	.LVL23:
 285 00b4 83398100 		ld	s3,8(sp)
 286              		.cfi_restore 19
 287              	.LVL24:
GAS LISTING /tmp/ccGAoxRT.s 			page 8


 288 00b8 13010103 		addi	sp,sp,48
 289              		.cfi_def_cfa_offset 0
 290 00bc 67800000 		jr	ra
 291              		.cfi_endproc
 292              	.LFE9:
 294              		.section	.text._ZN16ProducerKeyboard3runEv,"axG",@progbits,_ZN16ProducerKeyboard3runEv,comdat
 295              		.align	2
 296              		.weak	_ZN16ProducerKeyboard3runEv
 298              	_ZN16ProducerKeyboard3runEv:
 299              	.LFB8:
  28:test/../test/ConsumerProducer_CPP_Sync_API_test.hpp ****         producerKeyboard(td);
 300              		.loc 1 28 10 is_stmt 1
 301              		.cfi_startproc
 302              	.LVL25:
 303 0000 130101FF 		addi	sp,sp,-16
 304              		.cfi_def_cfa_offset 16
 305 0004 23341100 		sd	ra,8(sp)
 306 0008 23308100 		sd	s0,0(sp)
 307              		.cfi_offset 1, -8
 308              		.cfi_offset 8, -16
 309 000c 13040101 		addi	s0,sp,16
 310              		.cfi_def_cfa 8, 0
  29:test/../test/ConsumerProducer_CPP_Sync_API_test.hpp ****     }
 311              		.loc 1 29 9
  29:test/../test/ConsumerProducer_CPP_Sync_API_test.hpp ****     }
 312              		.loc 1 29 25 is_stmt 0
 313 0010 83350501 		ld	a1,16(a0)
 314 0014 97000000 		call	_ZN16ProducerKeyboard16producerKeyboardEPv
 314      E7800000 
 315              	.LVL26:
  30:test/../test/ConsumerProducer_CPP_Sync_API_test.hpp **** };
 316              		.loc 1 30 5
 317 001c 83308100 		ld	ra,8(sp)
 318              		.cfi_restore 1
 319 0020 03340100 		ld	s0,0(sp)
 320              		.cfi_restore 8
 321              		.cfi_def_cfa 2, 16
 322 0024 13010101 		addi	sp,sp,16
 323              		.cfi_def_cfa_offset 0
 324 0028 67800000 		jr	ra
 325              		.cfi_endproc
 326              	.LFE8:
 328              		.text
 329              		.align	2
 330              		.globl	_ZN8Producer8producerEPv
 332              	_ZN8Producer8producerEPv:
 333              	.LFB14:
  64:test/../test/ConsumerProducer_CPP_Sync_API_test.hpp ****     struct thread_data *data = (struct thread_data *) arg;
 334              		.loc 1 64 36 is_stmt 1
 335              		.cfi_startproc
 336              	.LVL27:
 337 00c0 130101FE 		addi	sp,sp,-32
 338              		.cfi_def_cfa_offset 32
 339 00c4 233C1100 		sd	ra,24(sp)
 340 00c8 23388100 		sd	s0,16(sp)
 341 00cc 23349100 		sd	s1,8(sp)
 342 00d0 23302101 		sd	s2,0(sp)
GAS LISTING /tmp/ccGAoxRT.s 			page 9


 343              		.cfi_offset 1, -8
 344              		.cfi_offset 8, -16
 345              		.cfi_offset 9, -24
 346              		.cfi_offset 18, -32
 347 00d4 13040102 		addi	s0,sp,32
 348              		.cfi_def_cfa 8, 0
 349 00d8 93840500 		mv	s1,a1
  65:test/../test/ConsumerProducer_CPP_Sync_API_test.hpp **** 
 350              		.loc 1 65 5
 351              	.LVL28:
  67:test/../test/ConsumerProducer_CPP_Sync_API_test.hpp ****     while (!threadEnd) {
 352              		.loc 1 67 5
  67:test/../test/ConsumerProducer_CPP_Sync_API_test.hpp ****     while (!threadEnd) {
 353              		.loc 1 67 9 is_stmt 0
 354 00dc 13090000 		li	s2,0
 355 00e0 6F00C000 		j	.L22
 356              	.LVL29:
 357              	.L26:
  73:test/../test/ConsumerProducer_CPP_Sync_API_test.hpp ****         }
 358              		.loc 1 73 13 is_stmt 1
  73:test/../test/ConsumerProducer_CPP_Sync_API_test.hpp ****         }
 359              		.loc 1 73 29 is_stmt 0
 360 00e4 97000000 		call	_ZN6Thread8dispatchEv@plt
 360      E7800000 
 361              	.LVL30:
 362              	.L22:
  68:test/../test/ConsumerProducer_CPP_Sync_API_test.hpp ****         data->buffer->put(data->id + '0');
 363              		.loc 1 68 5 is_stmt 1
  68:test/../test/ConsumerProducer_CPP_Sync_API_test.hpp ****         data->buffer->put(data->id + '0');
 364              		.loc 1 68 12
 365 00ec 97070000 		lw	a5,.LANCHOR0
 365      83A70700 
 366 00f4 639E0702 		bnez	a5,.L23
  69:test/../test/ConsumerProducer_CPP_Sync_API_test.hpp ****         i++;
 367              		.loc 1 69 9
  69:test/../test/ConsumerProducer_CPP_Sync_API_test.hpp ****         i++;
 368              		.loc 1 69 33 is_stmt 0
 369 00f8 83A50400 		lw	a1,0(s1)
  69:test/../test/ConsumerProducer_CPP_Sync_API_test.hpp ****         i++;
 370              		.loc 1 69 26
 371 00fc 9B850503 		addiw	a1,a1,48
 372 0100 03B58400 		ld	a0,8(s1)
 373 0104 97000000 		call	_ZN9BufferCPP3putEi@plt
 373      E7800000 
 374              	.LVL31:
  70:test/../test/ConsumerProducer_CPP_Sync_API_test.hpp **** 
 375              		.loc 1 70 9 is_stmt 1
  70:test/../test/ConsumerProducer_CPP_Sync_API_test.hpp **** 
 376              		.loc 1 70 10 is_stmt 0
 377 010c 1B071900 		addiw	a4,s2,1
 378 0110 1B090700 		sext.w	s2,a4
 379              	.LVL32:
  72:test/../test/ConsumerProducer_CPP_Sync_API_test.hpp ****             Thread::dispatch();
 380              		.loc 1 72 9 is_stmt 1
  72:test/../test/ConsumerProducer_CPP_Sync_API_test.hpp ****             Thread::dispatch();
 381              		.loc 1 72 29 is_stmt 0
 382 0114 83A60400 		lw	a3,0(s1)
GAS LISTING /tmp/ccGAoxRT.s 			page 10


  72:test/../test/ConsumerProducer_CPP_Sync_API_test.hpp ****             Thread::dispatch();
 383              		.loc 1 72 21
 384 0118 9B972600 		slliw	a5,a3,2
 385 011c BB87D700 		addw	a5,a5,a3
 386 0120 9B971700 		slliw	a5,a5,1
  72:test/../test/ConsumerProducer_CPP_Sync_API_test.hpp ****             Thread::dispatch();
 387              		.loc 1 72 15
 388 0124 BB67F702 		remw	a5,a4,a5
  72:test/../test/ConsumerProducer_CPP_Sync_API_test.hpp ****             Thread::dispatch();
 389              		.loc 1 72 9
 390 0128 E39207FC 		bnez	a5,.L22
 391 012c 6FF09FFB 		j	.L26
 392              	.LVL33:
 393              	.L23:
  77:test/../test/ConsumerProducer_CPP_Sync_API_test.hpp **** }
 394              		.loc 1 77 5 is_stmt 1
  77:test/../test/ConsumerProducer_CPP_Sync_API_test.hpp **** }
 395              		.loc 1 77 23 is_stmt 0
 396 0130 03B50401 		ld	a0,16(s1)
 397 0134 97000000 		call	_ZN9Semaphore6signalEv@plt
 397      E7800000 
 398              	.LVL34:
  78:test/../test/ConsumerProducer_CPP_Sync_API_test.hpp **** 
 399              		.loc 1 78 1
 400 013c 83308101 		ld	ra,24(sp)
 401              		.cfi_restore 1
 402 0140 03340101 		ld	s0,16(sp)
 403              		.cfi_restore 8
 404              		.cfi_def_cfa 2, 32
 405 0144 83348100 		ld	s1,8(sp)
 406              		.cfi_restore 9
 407              	.LVL35:
 408 0148 03390100 		ld	s2,0(sp)
 409              		.cfi_restore 18
 410              	.LVL36:
 411 014c 13010102 		addi	sp,sp,32
 412              		.cfi_def_cfa_offset 0
 413 0150 67800000 		jr	ra
 414              		.cfi_endproc
 415              	.LFE14:
 417              		.section	.text._ZN8Producer3runEv,"axG",@progbits,_ZN8Producer3runEv,comdat
 418              		.align	2
 419              		.weak	_ZN8Producer3runEv
 421              	_ZN8Producer3runEv:
 422              	.LFB13:
  59:test/../test/ConsumerProducer_CPP_Sync_API_test.hpp ****         producer(td);
 423              		.loc 1 59 10 is_stmt 1
 424              		.cfi_startproc
 425              	.LVL37:
 426 0000 130101FF 		addi	sp,sp,-16
 427              		.cfi_def_cfa_offset 16
 428 0004 23341100 		sd	ra,8(sp)
 429 0008 23308100 		sd	s0,0(sp)
 430              		.cfi_offset 1, -8
 431              		.cfi_offset 8, -16
 432 000c 13040101 		addi	s0,sp,16
 433              		.cfi_def_cfa 8, 0
GAS LISTING /tmp/ccGAoxRT.s 			page 11


  60:test/../test/ConsumerProducer_CPP_Sync_API_test.hpp ****     }
 434              		.loc 1 60 9
  60:test/../test/ConsumerProducer_CPP_Sync_API_test.hpp ****     }
 435              		.loc 1 60 17 is_stmt 0
 436 0010 83350501 		ld	a1,16(a0)
 437 0014 97000000 		call	_ZN8Producer8producerEPv
 437      E7800000 
 438              	.LVL38:
  61:test/../test/ConsumerProducer_CPP_Sync_API_test.hpp **** };
 439              		.loc 1 61 5
 440 001c 83308100 		ld	ra,8(sp)
 441              		.cfi_restore 1
 442 0020 03340100 		ld	s0,0(sp)
 443              		.cfi_restore 8
 444              		.cfi_def_cfa 2, 16
 445 0024 13010101 		addi	sp,sp,16
 446              		.cfi_def_cfa_offset 0
 447 0028 67800000 		jr	ra
 448              		.cfi_endproc
 449              	.LFE13:
 451              		.text
 452              		.align	2
 453              		.globl	_ZN8Consumer8consumerEPv
 455              	_ZN8Consumer8consumerEPv:
 456              	.LFB19:
  81:test/../test/ConsumerProducer_CPP_Sync_API_test.hpp ****     thread_data* td;
  82:test/../test/ConsumerProducer_CPP_Sync_API_test.hpp ****     void consumer(void *arg);
  83:test/../test/ConsumerProducer_CPP_Sync_API_test.hpp **** public:
  84:test/../test/ConsumerProducer_CPP_Sync_API_test.hpp ****     Consumer(thread_data* _td):Thread(), td(_td) {}
  85:test/../test/ConsumerProducer_CPP_Sync_API_test.hpp **** 
  86:test/../test/ConsumerProducer_CPP_Sync_API_test.hpp ****     void run() override {
  87:test/../test/ConsumerProducer_CPP_Sync_API_test.hpp ****         consumer(td);
  88:test/../test/ConsumerProducer_CPP_Sync_API_test.hpp ****     }
  89:test/../test/ConsumerProducer_CPP_Sync_API_test.hpp **** };
  90:test/../test/ConsumerProducer_CPP_Sync_API_test.hpp **** 
  91:test/../test/ConsumerProducer_CPP_Sync_API_test.hpp **** void Consumer::consumer(void *arg) {
 457              		.loc 1 91 36 is_stmt 1
 458              		.cfi_startproc
 459              	.LVL39:
 460 0154 130101FD 		addi	sp,sp,-48
 461              		.cfi_def_cfa_offset 48
 462 0158 23341102 		sd	ra,40(sp)
 463 015c 23308102 		sd	s0,32(sp)
 464 0160 233C9100 		sd	s1,24(sp)
 465 0164 23382101 		sd	s2,16(sp)
 466 0168 23343101 		sd	s3,8(sp)
 467 016c 23304101 		sd	s4,0(sp)
 468              		.cfi_offset 1, -8
 469              		.cfi_offset 8, -16
 470              		.cfi_offset 9, -24
 471              		.cfi_offset 18, -32
 472              		.cfi_offset 19, -40
 473              		.cfi_offset 20, -48
 474 0170 13040103 		addi	s0,sp,48
 475              		.cfi_def_cfa 8, 0
 476 0174 93090500 		mv	s3,a0
 477 0178 13890500 		mv	s2,a1
GAS LISTING /tmp/ccGAoxRT.s 			page 12


  92:test/../test/ConsumerProducer_CPP_Sync_API_test.hpp ****     struct thread_data *data = (struct thread_data *) arg;
 478              		.loc 1 92 5
 479              	.LVL40:
  93:test/../test/ConsumerProducer_CPP_Sync_API_test.hpp **** 
  94:test/../test/ConsumerProducer_CPP_Sync_API_test.hpp ****     int i = 0;
 480              		.loc 1 94 5
 481              		.loc 1 94 9 is_stmt 0
 482 017c 130A0000 		li	s4,0
 483 0180 6F00C001 		j	.L30
 484              	.LVL41:
 485              	.L36:
 486              	.LBB41:
  95:test/../test/ConsumerProducer_CPP_Sync_API_test.hpp ****     while (!threadEnd) {
  96:test/../test/ConsumerProducer_CPP_Sync_API_test.hpp ****         int key = data->buffer->get();
  97:test/../test/ConsumerProducer_CPP_Sync_API_test.hpp ****         i++;
  98:test/../test/ConsumerProducer_CPP_Sync_API_test.hpp **** 
  99:test/../test/ConsumerProducer_CPP_Sync_API_test.hpp ****         putc(key);
 100:test/../test/ConsumerProducer_CPP_Sync_API_test.hpp **** 
 101:test/../test/ConsumerProducer_CPP_Sync_API_test.hpp ****         if (i % (5 * data->id) == 0) {
 102:test/../test/ConsumerProducer_CPP_Sync_API_test.hpp ****             Thread::dispatch();
 487              		.loc 1 102 13 is_stmt 1
 488              		.loc 1 102 29 is_stmt 0
 489 0184 97000000 		call	_ZN6Thread8dispatchEv@plt
 489      E7800000 
 490              	.LVL42:
 491 018c 6F000005 		j	.L32
 492              	.LVL43:
 493              	.L37:
 103:test/../test/ConsumerProducer_CPP_Sync_API_test.hpp ****         }
 104:test/../test/ConsumerProducer_CPP_Sync_API_test.hpp **** 
 105:test/../test/ConsumerProducer_CPP_Sync_API_test.hpp ****         if (i % 80 == 0) {
 106:test/../test/ConsumerProducer_CPP_Sync_API_test.hpp ****             putc('\n');
 494              		.loc 1 106 13 is_stmt 1
 495              		.loc 1 106 17 is_stmt 0
 496 0190 1305A000 		li	a0,10
 497 0194 97000000 		call	_Z4putcc@plt
 497      E7800000 
 498              	.LVL44:
 499              	.L30:
 500              	.LBE41:
  95:test/../test/ConsumerProducer_CPP_Sync_API_test.hpp ****     while (!threadEnd) {
 501              		.loc 1 95 5 is_stmt 1
  95:test/../test/ConsumerProducer_CPP_Sync_API_test.hpp ****     while (!threadEnd) {
 502              		.loc 1 95 12
 503 019c 97070000 		lw	a5,.LANCHOR0
 503      83A70700 
 504 01a4 63920706 		bnez	a5,.L31
 505              	.LBB42:
  96:test/../test/ConsumerProducer_CPP_Sync_API_test.hpp ****         i++;
 506              		.loc 1 96 9
  96:test/../test/ConsumerProducer_CPP_Sync_API_test.hpp ****         i++;
 507              		.loc 1 96 36 is_stmt 0
 508 01a8 03358900 		ld	a0,8(s2)
 509 01ac 97000000 		call	_ZN9BufferCPP3getEv@plt
 509      E7800000 
 510              	.LVL45:
  97:test/../test/ConsumerProducer_CPP_Sync_API_test.hpp **** 
GAS LISTING /tmp/ccGAoxRT.s 			page 13


 511              		.loc 1 97 9 is_stmt 1
  97:test/../test/ConsumerProducer_CPP_Sync_API_test.hpp **** 
 512              		.loc 1 97 10 is_stmt 0
 513 01b4 9B041A00 		addiw	s1,s4,1
 514 01b8 1B8A0400 		sext.w	s4,s1
 515              	.LVL46:
  99:test/../test/ConsumerProducer_CPP_Sync_API_test.hpp **** 
 516              		.loc 1 99 9 is_stmt 1
  99:test/../test/ConsumerProducer_CPP_Sync_API_test.hpp **** 
 517              		.loc 1 99 13 is_stmt 0
 518 01bc 1375F50F 		andi	a0,a0,0xff
 519              	.LVL47:
 520 01c0 97000000 		call	_Z4putcc@plt
 520      E7800000 
 521              	.LVL48:
 101:test/../test/ConsumerProducer_CPP_Sync_API_test.hpp ****             Thread::dispatch();
 522              		.loc 1 101 9 is_stmt 1
 101:test/../test/ConsumerProducer_CPP_Sync_API_test.hpp ****             Thread::dispatch();
 523              		.loc 1 101 28 is_stmt 0
 524 01c8 03270900 		lw	a4,0(s2)
 101:test/../test/ConsumerProducer_CPP_Sync_API_test.hpp ****             Thread::dispatch();
 525              		.loc 1 101 20
 526 01cc 9B172700 		slliw	a5,a4,2
 527 01d0 BB87E700 		addw	a5,a5,a4
 101:test/../test/ConsumerProducer_CPP_Sync_API_test.hpp ****             Thread::dispatch();
 528              		.loc 1 101 15
 529 01d4 BBE7F402 		remw	a5,s1,a5
 101:test/../test/ConsumerProducer_CPP_Sync_API_test.hpp ****             Thread::dispatch();
 530              		.loc 1 101 9
 531 01d8 E38607FA 		beqz	a5,.L36
 532              	.L32:
 105:test/../test/ConsumerProducer_CPP_Sync_API_test.hpp ****             putc('\n');
 533              		.loc 1 105 9 is_stmt 1
 105:test/../test/ConsumerProducer_CPP_Sync_API_test.hpp ****             putc('\n');
 534              		.loc 1 105 15 is_stmt 0
 535 01dc 93070005 		li	a5,80
 536 01e0 BBE4F402 		remw	s1,s1,a5
 537              	.LVL49:
 105:test/../test/ConsumerProducer_CPP_Sync_API_test.hpp ****             putc('\n');
 538              		.loc 1 105 9
 539 01e4 E39C04FA 		bnez	s1,.L30
 540 01e8 6FF09FFA 		j	.L37
 541              	.L38:
 542              	.LBE42:
 543              	.LBB43:
 107:test/../test/ConsumerProducer_CPP_Sync_API_test.hpp ****         }
 108:test/../test/ConsumerProducer_CPP_Sync_API_test.hpp ****     }
 109:test/../test/ConsumerProducer_CPP_Sync_API_test.hpp **** 
 110:test/../test/ConsumerProducer_CPP_Sync_API_test.hpp **** 
 111:test/../test/ConsumerProducer_CPP_Sync_API_test.hpp ****     while (td->buffer->getCnt() > 0) {
 112:test/../test/ConsumerProducer_CPP_Sync_API_test.hpp ****         int key = td->buffer->get();
 544              		.loc 1 112 9 is_stmt 1
 545              		.loc 1 112 19 is_stmt 0
 546 01ec 83B70901 		ld	a5,16(s3)
 547              		.loc 1 112 34
 548 01f0 03B58700 		ld	a0,8(a5)
 549 01f4 97000000 		call	_ZN9BufferCPP3getEv@plt
GAS LISTING /tmp/ccGAoxRT.s 			page 14


 549      E7800000 
 550              	.LVL50:
 113:test/../test/ConsumerProducer_CPP_Sync_API_test.hpp ****         Console::putc(key);
 551              		.loc 1 113 9 is_stmt 1
 552              		.loc 1 113 22 is_stmt 0
 553 01fc 1375F50F 		andi	a0,a0,0xff
 554              	.LVL51:
 555 0200 97000000 		call	_ZN7Console4putcEc@plt
 555      E7800000 
 556              	.LVL52:
 557              	.L31:
 558              	.LBE43:
 111:test/../test/ConsumerProducer_CPP_Sync_API_test.hpp ****         int key = td->buffer->get();
 559              		.loc 1 111 5 is_stmt 1
 111:test/../test/ConsumerProducer_CPP_Sync_API_test.hpp ****         int key = td->buffer->get();
 560              		.loc 1 111 33
 111:test/../test/ConsumerProducer_CPP_Sync_API_test.hpp ****         int key = td->buffer->get();
 561              		.loc 1 111 12 is_stmt 0
 562 0208 83B70901 		ld	a5,16(s3)
 111:test/../test/ConsumerProducer_CPP_Sync_API_test.hpp ****         int key = td->buffer->get();
 563              		.loc 1 111 30
 564 020c 03B58700 		ld	a0,8(a5)
 565 0210 97000000 		call	_ZN9BufferCPP6getCntEv@plt
 565      E7800000 
 566              	.LVL53:
 111:test/../test/ConsumerProducer_CPP_Sync_API_test.hpp ****         int key = td->buffer->get();
 567              		.loc 1 111 33
 568 0218 E34AA0FC 		bgtz	a0,.L38
 114:test/../test/ConsumerProducer_CPP_Sync_API_test.hpp ****     }
 115:test/../test/ConsumerProducer_CPP_Sync_API_test.hpp **** 
 116:test/../test/ConsumerProducer_CPP_Sync_API_test.hpp ****     data->wait->signal();
 569              		.loc 1 116 5 is_stmt 1
 570              		.loc 1 116 23 is_stmt 0
 571 021c 03350901 		ld	a0,16(s2)
 572 0220 97000000 		call	_ZN9Semaphore6signalEv@plt
 572      E7800000 
 573              	.LVL54:
 117:test/../test/ConsumerProducer_CPP_Sync_API_test.hpp **** }
 574              		.loc 1 117 1
 575 0228 83308102 		ld	ra,40(sp)
 576              		.cfi_restore 1
 577 022c 03340102 		ld	s0,32(sp)
 578              		.cfi_restore 8
 579              		.cfi_def_cfa 2, 48
 580 0230 83348101 		ld	s1,24(sp)
 581              		.cfi_restore 9
 582 0234 03390101 		ld	s2,16(sp)
 583              		.cfi_restore 18
 584              	.LVL55:
 585 0238 83398100 		ld	s3,8(sp)
 586              		.cfi_restore 19
 587              	.LVL56:
 588 023c 033A0100 		ld	s4,0(sp)
 589              		.cfi_restore 20
 590              	.LVL57:
 591 0240 13010103 		addi	sp,sp,48
 592              		.cfi_def_cfa_offset 0
GAS LISTING /tmp/ccGAoxRT.s 			page 15


 593 0244 67800000 		jr	ra
 594              		.cfi_endproc
 595              	.LFE19:
 597              		.section	.text._ZN8Consumer3runEv,"axG",@progbits,_ZN8Consumer3runEv,comdat
 598              		.align	2
 599              		.weak	_ZN8Consumer3runEv
 601              	_ZN8Consumer3runEv:
 602              	.LFB18:
  86:test/../test/ConsumerProducer_CPP_Sync_API_test.hpp ****         consumer(td);
 603              		.loc 1 86 10 is_stmt 1
 604              		.cfi_startproc
 605              	.LVL58:
 606 0000 130101FF 		addi	sp,sp,-16
 607              		.cfi_def_cfa_offset 16
 608 0004 23341100 		sd	ra,8(sp)
 609 0008 23308100 		sd	s0,0(sp)
 610              		.cfi_offset 1, -8
 611              		.cfi_offset 8, -16
 612 000c 13040101 		addi	s0,sp,16
 613              		.cfi_def_cfa 8, 0
  87:test/../test/ConsumerProducer_CPP_Sync_API_test.hpp ****     }
 614              		.loc 1 87 9
  87:test/../test/ConsumerProducer_CPP_Sync_API_test.hpp ****     }
 615              		.loc 1 87 17 is_stmt 0
 616 0010 83350501 		ld	a1,16(a0)
 617 0014 97000000 		call	_ZN8Consumer8consumerEPv
 617      E7800000 
 618              	.LVL59:
  88:test/../test/ConsumerProducer_CPP_Sync_API_test.hpp **** };
 619              		.loc 1 88 5
 620 001c 83308100 		ld	ra,8(sp)
 621              		.cfi_restore 1
 622 0020 03340100 		ld	s0,0(sp)
 623              		.cfi_restore 8
 624              		.cfi_def_cfa 2, 16
 625 0024 13010101 		addi	sp,sp,16
 626              		.cfi_def_cfa_offset 0
 627 0028 67800000 		jr	ra
 628              		.cfi_endproc
 629              	.LFE18:
 631              		.section	.rodata.str1.8,"aMS",@progbits,1
 632              		.align	3
 633              	.LC0:
 634 0000 556E6573 		.string	"Unesite broj proizvodjaca?\n"
 634      69746520 
 634      62726F6A 
 634      2070726F 
 634      697A766F 
 635 001c 00000000 		.align	3
 636              	.LC1:
 637 0020 556E6573 		.string	"Unesite velicinu bafera?\n"
 637      69746520 
 637      76656C69 
 637      63696E75 
 637      20626166 
 638 003a 00000000 		.align	3
 638      0000
GAS LISTING /tmp/ccGAoxRT.s 			page 16


 639              	.LC2:
 640 0040 42726F6A 		.string	"Broj proizvodjaca "
 640      2070726F 
 640      697A766F 
 640      646A6163 
 640      612000
 641 0053 00000000 		.align	3
 641      00
 642              	.LC3:
 643 0058 20692076 		.string	" i velicina bafera "
 643      656C6963 
 643      696E6120 
 643      62616665 
 643      72612000 
 644 006c 00000000 		.align	3
 645              	.LC4:
 646 0070 2E0A00   		.string	".\n"
 647 0073 00000000 		.align	3
 647      00
 648              	.LC5:
 649 0078 42726F6A 		.string	"Broj proizvodjaca ne sme biti manji od velicine bafera!\n"
 649      2070726F 
 649      697A766F 
 649      646A6163 
 649      61206E65 
 650 00b1 00000000 		.align	3
 650      000000
 651              	.LC6:
 652 00b8 42726F6A 		.string	"Broj proizvodjaca mora biti veci od nula!\n"
 652      2070726F 
 652      697A766F 
 652      646A6163 
 652      61206D6F 
 653              		.text
 654              		.align	2
 655              		.globl	_Z29producerConsumer_CPP_Sync_APIv
 657              	_Z29producerConsumer_CPP_Sync_APIv:
 658              	.LFB20:
 118:test/../test/ConsumerProducer_CPP_Sync_API_test.hpp **** 
 119:test/../test/ConsumerProducer_CPP_Sync_API_test.hpp **** void producerConsumer_CPP_Sync_API() {
 659              		.loc 1 119 38 is_stmt 1
 660              		.cfi_startproc
 661              		.cfi_personality 0x9b,DW.ref.__gxx_personality_v0
 662              		.cfi_lsda 0x1b,.LLSDA20
 663 0248 130101F8 		addi	sp,sp,-128
 664              		.cfi_def_cfa_offset 128
 665 024c 233C1106 		sd	ra,120(sp)
 666 0250 23388106 		sd	s0,112(sp)
 667 0254 23349106 		sd	s1,104(sp)
 668 0258 23302107 		sd	s2,96(sp)
 669 025c 233C3105 		sd	s3,88(sp)
 670 0260 23384105 		sd	s4,80(sp)
 671 0264 23345105 		sd	s5,72(sp)
 672 0268 23306105 		sd	s6,64(sp)
 673 026c 233C7103 		sd	s7,56(sp)
 674 0270 23388103 		sd	s8,48(sp)
 675 0274 23349103 		sd	s9,40(sp)
GAS LISTING /tmp/ccGAoxRT.s 			page 17


 676              		.cfi_offset 1, -8
 677              		.cfi_offset 8, -16
 678              		.cfi_offset 9, -24
 679              		.cfi_offset 18, -32
 680              		.cfi_offset 19, -40
 681              		.cfi_offset 20, -48
 682              		.cfi_offset 21, -56
 683              		.cfi_offset 22, -64
 684              		.cfi_offset 23, -72
 685              		.cfi_offset 24, -80
 686              		.cfi_offset 25, -88
 687 0278 13040108 		addi	s0,sp,128
 688              		.cfi_def_cfa 8, 0
 120:test/../test/ConsumerProducer_CPP_Sync_API_test.hpp ****     char input[30];
 121:test/../test/ConsumerProducer_CPP_Sync_API_test.hpp ****     int n, threadNum;
 122:test/../test/ConsumerProducer_CPP_Sync_API_test.hpp **** 
 123:test/../test/ConsumerProducer_CPP_Sync_API_test.hpp ****     printString("Unesite broj proizvodjaca?\n");
 124:test/../test/ConsumerProducer_CPP_Sync_API_test.hpp ****     getString(input, 30);
 125:test/../test/ConsumerProducer_CPP_Sync_API_test.hpp ****     threadNum = stringToInt(input);
 126:test/../test/ConsumerProducer_CPP_Sync_API_test.hpp **** 
 127:test/../test/ConsumerProducer_CPP_Sync_API_test.hpp ****     printString("Unesite velicinu bafera?\n");
 128:test/../test/ConsumerProducer_CPP_Sync_API_test.hpp ****     getString(input, 30);
 129:test/../test/ConsumerProducer_CPP_Sync_API_test.hpp ****     n = stringToInt(input);
 130:test/../test/ConsumerProducer_CPP_Sync_API_test.hpp **** 
 131:test/../test/ConsumerProducer_CPP_Sync_API_test.hpp ****     printString("Broj proizvodjaca "); printInt(threadNum);
 132:test/../test/ConsumerProducer_CPP_Sync_API_test.hpp ****     printString(" i velicina bafera "); printInt(n);
 133:test/../test/ConsumerProducer_CPP_Sync_API_test.hpp ****     printString(".\n");
 134:test/../test/ConsumerProducer_CPP_Sync_API_test.hpp **** 
 135:test/../test/ConsumerProducer_CPP_Sync_API_test.hpp ****     if(threadNum > n) {
 136:test/../test/ConsumerProducer_CPP_Sync_API_test.hpp ****         printString("Broj proizvodjaca ne sme biti manji od velicine bafera!\n");
 137:test/../test/ConsumerProducer_CPP_Sync_API_test.hpp ****         return;
 138:test/../test/ConsumerProducer_CPP_Sync_API_test.hpp ****     } else if (threadNum < 1) {
 139:test/../test/ConsumerProducer_CPP_Sync_API_test.hpp ****         printString("Broj proizvodjaca mora biti veci od nula!\n");
 140:test/../test/ConsumerProducer_CPP_Sync_API_test.hpp ****         return;
 141:test/../test/ConsumerProducer_CPP_Sync_API_test.hpp ****     }
 142:test/../test/ConsumerProducer_CPP_Sync_API_test.hpp **** 
 143:test/../test/ConsumerProducer_CPP_Sync_API_test.hpp ****     BufferCPP *buffer = new BufferCPP(n);
 144:test/../test/ConsumerProducer_CPP_Sync_API_test.hpp **** 
 145:test/../test/ConsumerProducer_CPP_Sync_API_test.hpp ****     waitForAll = new Semaphore(0);
 146:test/../test/ConsumerProducer_CPP_Sync_API_test.hpp **** 
 147:test/../test/ConsumerProducer_CPP_Sync_API_test.hpp ****     Thread* threads[threadNum];
 148:test/../test/ConsumerProducer_CPP_Sync_API_test.hpp ****     Thread* consumerThread;
 149:test/../test/ConsumerProducer_CPP_Sync_API_test.hpp **** 
 150:test/../test/ConsumerProducer_CPP_Sync_API_test.hpp ****     struct thread_data data[threadNum + 1];
 151:test/../test/ConsumerProducer_CPP_Sync_API_test.hpp **** 
 152:test/../test/ConsumerProducer_CPP_Sync_API_test.hpp ****     data[threadNum].id = threadNum;
 153:test/../test/ConsumerProducer_CPP_Sync_API_test.hpp ****     data[threadNum].buffer = buffer;
 154:test/../test/ConsumerProducer_CPP_Sync_API_test.hpp ****     data[threadNum].wait = waitForAll;
 155:test/../test/ConsumerProducer_CPP_Sync_API_test.hpp ****     consumerThread = new Consumer(data+threadNum);
 156:test/../test/ConsumerProducer_CPP_Sync_API_test.hpp ****     consumerThread->start();
 157:test/../test/ConsumerProducer_CPP_Sync_API_test.hpp **** 
 158:test/../test/ConsumerProducer_CPP_Sync_API_test.hpp ****     for (int i = 0; i < threadNum; i++) {
 159:test/../test/ConsumerProducer_CPP_Sync_API_test.hpp ****         data[i].id = i;
 160:test/../test/ConsumerProducer_CPP_Sync_API_test.hpp ****         data[i].buffer = buffer;
 161:test/../test/ConsumerProducer_CPP_Sync_API_test.hpp ****         data[i].wait = waitForAll;
 162:test/../test/ConsumerProducer_CPP_Sync_API_test.hpp **** 
 163:test/../test/ConsumerProducer_CPP_Sync_API_test.hpp ****         if(i>0) {
GAS LISTING /tmp/ccGAoxRT.s 			page 18


 164:test/../test/ConsumerProducer_CPP_Sync_API_test.hpp ****             threads[i] = new Producer(data+i);
 165:test/../test/ConsumerProducer_CPP_Sync_API_test.hpp ****         } else {
 166:test/../test/ConsumerProducer_CPP_Sync_API_test.hpp ****             threads[i] = new ProducerKeyboard(data+i);
 167:test/../test/ConsumerProducer_CPP_Sync_API_test.hpp ****         }
 168:test/../test/ConsumerProducer_CPP_Sync_API_test.hpp **** 
 169:test/../test/ConsumerProducer_CPP_Sync_API_test.hpp ****         threads[i]->start();
 170:test/../test/ConsumerProducer_CPP_Sync_API_test.hpp ****     }
 171:test/../test/ConsumerProducer_CPP_Sync_API_test.hpp **** 
 172:test/../test/ConsumerProducer_CPP_Sync_API_test.hpp ****     Thread::dispatch();
 173:test/../test/ConsumerProducer_CPP_Sync_API_test.hpp **** 
 174:test/../test/ConsumerProducer_CPP_Sync_API_test.hpp ****     for (int i = 0; i <= threadNum; i++) {
 175:test/../test/ConsumerProducer_CPP_Sync_API_test.hpp ****         waitForAll->wait();
 176:test/../test/ConsumerProducer_CPP_Sync_API_test.hpp ****     }
 177:test/../test/ConsumerProducer_CPP_Sync_API_test.hpp **** 
 178:test/../test/ConsumerProducer_CPP_Sync_API_test.hpp ****     for (int i = 0; i < threadNum; i++) {
 179:test/../test/ConsumerProducer_CPP_Sync_API_test.hpp ****         delete threads[i];
 180:test/../test/ConsumerProducer_CPP_Sync_API_test.hpp ****     }
 181:test/../test/ConsumerProducer_CPP_Sync_API_test.hpp ****     delete consumerThread;
 182:test/../test/ConsumerProducer_CPP_Sync_API_test.hpp ****     delete waitForAll;
 183:test/../test/ConsumerProducer_CPP_Sync_API_test.hpp ****     delete buffer;
 689              		.loc 1 183 18 is_stmt 0
 690 027c 930B0100 		mv	s7,sp
 120:test/../test/ConsumerProducer_CPP_Sync_API_test.hpp ****     char input[30];
 691              		.loc 1 120 5 is_stmt 1
 121:test/../test/ConsumerProducer_CPP_Sync_API_test.hpp **** 
 692              		.loc 1 121 5
 123:test/../test/ConsumerProducer_CPP_Sync_API_test.hpp ****     getString(input, 30);
 693              		.loc 1 123 5
 123:test/../test/ConsumerProducer_CPP_Sync_API_test.hpp ****     getString(input, 30);
 694              		.loc 1 123 16 is_stmt 0
 695 0280 17050000 		lla	a0,.LC0
 695      13050500 
 696              	.LEHB0:
 697 0288 97000000 		call	_Z11printStringPKc@plt
 697      E7800000 
 698              	.LVL60:
 124:test/../test/ConsumerProducer_CPP_Sync_API_test.hpp ****     threadNum = stringToInt(input);
 699              		.loc 1 124 5 is_stmt 1
 124:test/../test/ConsumerProducer_CPP_Sync_API_test.hpp ****     threadNum = stringToInt(input);
 700              		.loc 1 124 14 is_stmt 0
 701 0290 9305E001 		li	a1,30
 702 0294 930404F8 		addi	s1,s0,-128
 703 0298 13850400 		mv	a0,s1
 704 029c 97000000 		call	_Z9getStringPci@plt
 704      E7800000 
 705              	.LVL61:
 125:test/../test/ConsumerProducer_CPP_Sync_API_test.hpp **** 
 706              		.loc 1 125 5 is_stmt 1
 125:test/../test/ConsumerProducer_CPP_Sync_API_test.hpp **** 
 707              		.loc 1 125 28 is_stmt 0
 708 02a4 13850400 		mv	a0,s1
 709 02a8 97000000 		call	_Z11stringToIntPKc@plt
 709      E7800000 
 710              	.LVL62:
 711 02b0 13090500 		mv	s2,a0
 712              	.LVL63:
 127:test/../test/ConsumerProducer_CPP_Sync_API_test.hpp ****     getString(input, 30);
GAS LISTING /tmp/ccGAoxRT.s 			page 19


 713              		.loc 1 127 5 is_stmt 1
 127:test/../test/ConsumerProducer_CPP_Sync_API_test.hpp ****     getString(input, 30);
 714              		.loc 1 127 16 is_stmt 0
 715 02b4 17050000 		lla	a0,.LC1
 715      13050500 
 716 02bc 97000000 		call	_Z11printStringPKc@plt
 716      E7800000 
 717              	.LVL64:
 128:test/../test/ConsumerProducer_CPP_Sync_API_test.hpp ****     n = stringToInt(input);
 718              		.loc 1 128 5 is_stmt 1
 128:test/../test/ConsumerProducer_CPP_Sync_API_test.hpp ****     n = stringToInt(input);
 719              		.loc 1 128 14 is_stmt 0
 720 02c4 9305E001 		li	a1,30
 721 02c8 13850400 		mv	a0,s1
 722 02cc 97000000 		call	_Z9getStringPci@plt
 722      E7800000 
 723              	.LVL65:
 129:test/../test/ConsumerProducer_CPP_Sync_API_test.hpp **** 
 724              		.loc 1 129 5 is_stmt 1
 129:test/../test/ConsumerProducer_CPP_Sync_API_test.hpp **** 
 725              		.loc 1 129 20 is_stmt 0
 726 02d4 13850400 		mv	a0,s1
 727 02d8 97000000 		call	_Z11stringToIntPKc@plt
 727      E7800000 
 728              	.LVL66:
 729 02e0 93040500 		mv	s1,a0
 730              	.LVL67:
 131:test/../test/ConsumerProducer_CPP_Sync_API_test.hpp ****     printString(" i velicina bafera "); printInt(n);
 731              		.loc 1 131 5 is_stmt 1
 131:test/../test/ConsumerProducer_CPP_Sync_API_test.hpp ****     printString(" i velicina bafera "); printInt(n);
 732              		.loc 1 131 16 is_stmt 0
 733 02e4 17050000 		lla	a0,.LC2
 733      13050500 
 734 02ec 97000000 		call	_Z11printStringPKc@plt
 734      E7800000 
 735              	.LVL68:
 131:test/../test/ConsumerProducer_CPP_Sync_API_test.hpp ****     printString(" i velicina bafera "); printInt(n);
 736              		.loc 1 131 40 is_stmt 1
 131:test/../test/ConsumerProducer_CPP_Sync_API_test.hpp ****     printString(" i velicina bafera "); printInt(n);
 737              		.loc 1 131 48 is_stmt 0
 738 02f4 13060000 		li	a2,0
 739 02f8 9305A000 		li	a1,10
 740 02fc 13050900 		mv	a0,s2
 741 0300 97000000 		call	_Z8printIntiii@plt
 741      E7800000 
 742              	.LVL69:
 132:test/../test/ConsumerProducer_CPP_Sync_API_test.hpp ****     printString(".\n");
 743              		.loc 1 132 5 is_stmt 1
 132:test/../test/ConsumerProducer_CPP_Sync_API_test.hpp ****     printString(".\n");
 744              		.loc 1 132 16 is_stmt 0
 745 0308 17050000 		lla	a0,.LC3
 745      13050500 
 746 0310 97000000 		call	_Z11printStringPKc@plt
 746      E7800000 
 747              	.LVL70:
 132:test/../test/ConsumerProducer_CPP_Sync_API_test.hpp ****     printString(".\n");
 748              		.loc 1 132 41 is_stmt 1
GAS LISTING /tmp/ccGAoxRT.s 			page 20


 132:test/../test/ConsumerProducer_CPP_Sync_API_test.hpp ****     printString(".\n");
 749              		.loc 1 132 49 is_stmt 0
 750 0318 13060000 		li	a2,0
 751 031c 9305A000 		li	a1,10
 752 0320 13850400 		mv	a0,s1
 753 0324 97000000 		call	_Z8printIntiii@plt
 753      E7800000 
 754              	.LVL71:
 133:test/../test/ConsumerProducer_CPP_Sync_API_test.hpp **** 
 755              		.loc 1 133 5 is_stmt 1
 133:test/../test/ConsumerProducer_CPP_Sync_API_test.hpp **** 
 756              		.loc 1 133 16 is_stmt 0
 757 032c 17050000 		lla	a0,.LC4
 757      13050500 
 758 0334 97000000 		call	_Z11printStringPKc@plt
 758      E7800000 
 759              	.LVL72:
 135:test/../test/ConsumerProducer_CPP_Sync_API_test.hpp ****         printString("Broj proizvodjaca ne sme biti manji od velicine bafera!\n");
 760              		.loc 1 135 5 is_stmt 1
 761 033c 63C42403 		bgt	s2,s1,.L69
 138:test/../test/ConsumerProducer_CPP_Sync_API_test.hpp ****         printString("Broj proizvodjaca mora biti veci od nula!\n");
 762              		.loc 1 138 12
 763 0340 635C2003 		blez	s2,.L70
 143:test/../test/ConsumerProducer_CPP_Sync_API_test.hpp **** 
 764              		.loc 1 143 5
 143:test/../test/ConsumerProducer_CPP_Sync_API_test.hpp **** 
 765              		.loc 1 143 40 is_stmt 0
 766 0344 13058003 		li	a0,56
 767 0348 97000000 		call	_Znwm@plt
 767      E7800000 
 768              	.LVL73:
 769              	.LEHE0:
 770 0350 930A0500 		mv	s5,a0
 771 0354 93850400 		mv	a1,s1
 772              	.LEHB1:
 773 0358 97000000 		call	_ZN9BufferCPPC1Ei@plt
 773      E7800000 
 774              	.LVL74:
 775              	.LEHE1:
 776 0360 6F000003 		j	.L71
 777              	.L69:
 136:test/../test/ConsumerProducer_CPP_Sync_API_test.hpp ****         return;
 778              		.loc 1 136 9 is_stmt 1
 136:test/../test/ConsumerProducer_CPP_Sync_API_test.hpp ****         return;
 779              		.loc 1 136 20 is_stmt 0
 780 0364 17050000 		lla	a0,.LC5
 780      13050500 
 781              	.LEHB2:
 782 036c 97000000 		call	_Z11printStringPKc@plt
 782      E7800000 
 783              	.LVL75:
 137:test/../test/ConsumerProducer_CPP_Sync_API_test.hpp ****     } else if (threadNum < 1) {
 784              		.loc 1 137 9 is_stmt 1
 785 0374 6F004001 		j	.L43
 786              	.L70:
 139:test/../test/ConsumerProducer_CPP_Sync_API_test.hpp ****         return;
 787              		.loc 1 139 9
GAS LISTING /tmp/ccGAoxRT.s 			page 21


 139:test/../test/ConsumerProducer_CPP_Sync_API_test.hpp ****         return;
 788              		.loc 1 139 20 is_stmt 0
 789 0378 17050000 		lla	a0,.LC6
 789      13050500 
 790 0380 97000000 		call	_Z11printStringPKc@plt
 790      E7800000 
 791              	.LVL76:
 140:test/../test/ConsumerProducer_CPP_Sync_API_test.hpp ****     }
 792              		.loc 1 140 9 is_stmt 1
 793              	.L43:
 794 0388 13810B00 		mv	sp,s7
 795 038c 6F000024 		j	.L41
 796              	.L71:
 797              	.LVL77:
 145:test/../test/ConsumerProducer_CPP_Sync_API_test.hpp **** 
 798              		.loc 1 145 5 discriminator 3
 145:test/../test/ConsumerProducer_CPP_Sync_API_test.hpp **** 
 799              		.loc 1 145 33 is_stmt 0 discriminator 3
 800 0390 13050001 		li	a0,16
 801 0394 97000000 		call	_Znwm@plt
 801      E7800000 
 802              	.LVL78:
 803              	.LEHE2:
 804 039c 93040500 		mv	s1,a0
 805              	.LVL79:
 806 03a0 93050000 		li	a1,0
 807              	.LEHB3:
 808 03a4 97000000 		call	_ZN9SemaphoreC1Ej@plt
 808      E7800000 
 809              	.LVL80:
 810              	.LEHE3:
 145:test/../test/ConsumerProducer_CPP_Sync_API_test.hpp **** 
 811              		.loc 1 145 16 discriminator 3
 812 03ac 17070000 		lla	a4,.LANCHOR0
 812      13070700 
 813 03b4 23349700 		sd	s1,8(a4)
 147:test/../test/ConsumerProducer_CPP_Sync_API_test.hpp ****     Thread* consumerThread;
 814              		.loc 1 147 5 is_stmt 1 discriminator 3
 815              	.LVL81:
 147:test/../test/ConsumerProducer_CPP_Sync_API_test.hpp ****     Thread* consumerThread;
 816              		.loc 1 147 13 is_stmt 0 discriminator 3
 817 03b8 93173900 		slli	a5,s2,3
 818 03bc 9387F700 		addi	a5,a5,15
 819 03c0 93F707FF 		andi	a5,a5,-16
 820 03c4 3301F140 		sub	sp,sp,a5
 821 03c8 93090100 		mv	s3,sp
 822              	.LVL82:
 148:test/../test/ConsumerProducer_CPP_Sync_API_test.hpp **** 
 823              		.loc 1 148 5 is_stmt 1 discriminator 3
 150:test/../test/ConsumerProducer_CPP_Sync_API_test.hpp **** 
 824              		.loc 1 150 5 discriminator 3
 150:test/../test/ConsumerProducer_CPP_Sync_API_test.hpp **** 
 825              		.loc 1 150 39 is_stmt 0 discriminator 3
 826 03cc 9B061900 		addiw	a3,s2,1
 827              	.LVL83:
 150:test/../test/ConsumerProducer_CPP_Sync_API_test.hpp **** 
 828              		.loc 1 150 24 discriminator 3
GAS LISTING /tmp/ccGAoxRT.s 			page 22


 829 03d0 93971600 		slli	a5,a3,1
 830 03d4 B387D700 		add	a5,a5,a3
 831 03d8 93973700 		slli	a5,a5,3
 832 03dc 9387F700 		addi	a5,a5,15
 833 03e0 93F707FF 		andi	a5,a5,-16
 834 03e4 3301F140 		sub	sp,sp,a5
 835              	.LVL84:
 836 03e8 130A0100 		mv	s4,sp
 837              	.LVL85:
 152:test/../test/ConsumerProducer_CPP_Sync_API_test.hpp ****     data[threadNum].buffer = buffer;
 838              		.loc 1 152 5 is_stmt 1 discriminator 3
 152:test/../test/ConsumerProducer_CPP_Sync_API_test.hpp ****     data[threadNum].buffer = buffer;
 839              		.loc 1 152 24 is_stmt 0 discriminator 3
 840 03ec 93141900 		slli	s1,s2,1
 841 03f0 B3872401 		add	a5,s1,s2
 842 03f4 93973700 		slli	a5,a5,3
 843 03f8 B307FA00 		add	a5,s4,a5
 844 03fc 23A02701 		sw	s2,0(a5)
 153:test/../test/ConsumerProducer_CPP_Sync_API_test.hpp ****     data[threadNum].wait = waitForAll;
 845              		.loc 1 153 5 is_stmt 1 discriminator 3
 153:test/../test/ConsumerProducer_CPP_Sync_API_test.hpp ****     data[threadNum].wait = waitForAll;
 846              		.loc 1 153 28 is_stmt 0 discriminator 3
 847 0400 23B45701 		sd	s5,8(a5)
 154:test/../test/ConsumerProducer_CPP_Sync_API_test.hpp ****     consumerThread = new Consumer(data+threadNum);
 848              		.loc 1 154 5 is_stmt 1 discriminator 3
 154:test/../test/ConsumerProducer_CPP_Sync_API_test.hpp ****     consumerThread = new Consumer(data+threadNum);
 849              		.loc 1 154 26 is_stmt 0 discriminator 3
 850 0404 03378700 		ld	a4,8(a4)
 851 0408 23B8E700 		sd	a4,16(a5)
 155:test/../test/ConsumerProducer_CPP_Sync_API_test.hpp ****     consumerThread->start();
 852              		.loc 1 155 5 is_stmt 1 discriminator 3
 155:test/../test/ConsumerProducer_CPP_Sync_API_test.hpp ****     consumerThread->start();
 853              		.loc 1 155 49 is_stmt 0 discriminator 3
 854 040c 13058001 		li	a0,24
 855              	.LEHB4:
 856 0410 97000000 		call	_Znwm@plt
 856      E7800000 
 857              	.LVL86:
 858              	.LEHE4:
 859 0418 130B0500 		mv	s6,a0
 155:test/../test/ConsumerProducer_CPP_Sync_API_test.hpp ****     consumerThread->start();
 860              		.loc 1 155 39 discriminator 3
 861 041c B3842401 		add	s1,s1,s2
 862 0420 93943400 		slli	s1,s1,3
 155:test/../test/ConsumerProducer_CPP_Sync_API_test.hpp ****     consumerThread->start();
 863              		.loc 1 155 49 discriminator 3
 864 0424 B3049A00 		add	s1,s4,s1
 865              	.LVL87:
 866              	.LEHB5:
 867              	.LBB44:
 868              	.LBB45:
  84:test/../test/ConsumerProducer_CPP_Sync_API_test.hpp **** 
 869              		.loc 1 84 48 discriminator 3
 870 0428 97000000 		call	_ZN6ThreadC2Ev@plt
 870      E7800000 
 871              	.LVL88:
 872              	.LEHE5:
GAS LISTING /tmp/ccGAoxRT.s 			page 23


  84:test/../test/ConsumerProducer_CPP_Sync_API_test.hpp **** 
 873              		.loc 1 84 48
 874 0430 97070000 		lla	a5,_ZTV8Consumer+16
 874      93870700 
 875 0438 2330FB00 		sd	a5,0(s6)
 876 043c 23389B00 		sd	s1,16(s6)
 877              	.LVL89:
 878              	.LBE45:
 879              	.LBE44:
 156:test/../test/ConsumerProducer_CPP_Sync_API_test.hpp **** 
 880              		.loc 1 156 5 is_stmt 1
 156:test/../test/ConsumerProducer_CPP_Sync_API_test.hpp **** 
 881              		.loc 1 156 26 is_stmt 0
 882 0440 13050B00 		mv	a0,s6
 883              	.LEHB6:
 884 0444 97000000 		call	_ZN6Thread5startEv@plt
 884      E7800000 
 885              	.LVL90:
 886              	.LBB46:
 158:test/../test/ConsumerProducer_CPP_Sync_API_test.hpp ****         data[i].id = i;
 887              		.loc 1 158 14
 888 044c 93040000 		li	s1,0
 889 0450 6F008003 		j	.L48
 890              	.LVL91:
 891              	.L72:
 892              	.LBB47:
 893              	.LBB48:
  57:test/../test/ConsumerProducer_CPP_Sync_API_test.hpp **** 
 894              		.loc 1 57 48
 895 0454 97070000 		lla	a5,_ZTV8Producer+16
 895      93870700 
 896 045c 23B0FC00 		sd	a5,0(s9)
 897 0460 23B88C01 		sd	s8,16(s9)
 898              	.LVL92:
 899              	.LBE48:
 900              	.LBE47:
 164:test/../test/ConsumerProducer_CPP_Sync_API_test.hpp ****         } else {
 901              		.loc 1 164 24
 902 0464 93973400 		slli	a5,s1,3
 903 0468 B387F900 		add	a5,s3,a5
 904 046c 23B09701 		sd	s9,0(a5)
 905              	.L47:
 169:test/../test/ConsumerProducer_CPP_Sync_API_test.hpp ****     }
 906              		.loc 1 169 9 is_stmt 1
 169:test/../test/ConsumerProducer_CPP_Sync_API_test.hpp ****     }
 907              		.loc 1 169 18 is_stmt 0
 908 0470 93973400 		slli	a5,s1,3
 909 0474 B387F900 		add	a5,s3,a5
 169:test/../test/ConsumerProducer_CPP_Sync_API_test.hpp ****     }
 910              		.loc 1 169 26
 911 0478 03B50700 		ld	a0,0(a5)
 912 047c 97000000 		call	_ZN6Thread5startEv@plt
 912      E7800000 
 913              	.LVL93:
 158:test/../test/ConsumerProducer_CPP_Sync_API_test.hpp ****         data[i].id = i;
 914              		.loc 1 158 5 is_stmt 1
 915 0484 9B841400 		addiw	s1,s1,1
GAS LISTING /tmp/ccGAoxRT.s 			page 24


 916              	.LVL94:
 917              	.L48:
 158:test/../test/ConsumerProducer_CPP_Sync_API_test.hpp ****         data[i].id = i;
 918              		.loc 1 158 23 discriminator 1
 919 0488 63D0240B 		bge	s1,s2,.L45
 159:test/../test/ConsumerProducer_CPP_Sync_API_test.hpp ****         data[i].buffer = buffer;
 920              		.loc 1 159 9
 159:test/../test/ConsumerProducer_CPP_Sync_API_test.hpp ****         data[i].buffer = buffer;
 921              		.loc 1 159 20 is_stmt 0
 922 048c 93971400 		slli	a5,s1,1
 923 0490 B3879700 		add	a5,a5,s1
 924 0494 93973700 		slli	a5,a5,3
 925 0498 B307FA00 		add	a5,s4,a5
 926 049c 23A09700 		sw	s1,0(a5)
 160:test/../test/ConsumerProducer_CPP_Sync_API_test.hpp ****         data[i].wait = waitForAll;
 927              		.loc 1 160 9 is_stmt 1
 160:test/../test/ConsumerProducer_CPP_Sync_API_test.hpp ****         data[i].wait = waitForAll;
 928              		.loc 1 160 24 is_stmt 0
 929 04a0 23B45701 		sd	s5,8(a5)
 161:test/../test/ConsumerProducer_CPP_Sync_API_test.hpp **** 
 930              		.loc 1 161 9 is_stmt 1
 161:test/../test/ConsumerProducer_CPP_Sync_API_test.hpp **** 
 931              		.loc 1 161 22 is_stmt 0
 932 04a4 17070000 		ld	a4,.LANCHOR0+8
 932      03370700 
 933 04ac 23B8E700 		sd	a4,16(a5)
 163:test/../test/ConsumerProducer_CPP_Sync_API_test.hpp ****             threads[i] = new Producer(data+i);
 934              		.loc 1 163 9 is_stmt 1
 935 04b0 63589002 		blez	s1,.L46
 164:test/../test/ConsumerProducer_CPP_Sync_API_test.hpp ****         } else {
 936              		.loc 1 164 13
 164:test/../test/ConsumerProducer_CPP_Sync_API_test.hpp ****         } else {
 937              		.loc 1 164 45 is_stmt 0
 938 04b4 13058001 		li	a0,24
 939 04b8 97000000 		call	_Znwm@plt
 939      E7800000 
 940              	.LVL95:
 941              	.LEHE6:
 942 04c0 930C0500 		mv	s9,a0
 164:test/../test/ConsumerProducer_CPP_Sync_API_test.hpp ****         } else {
 943              		.loc 1 164 43
 944 04c4 139C1400 		slli	s8,s1,1
 945 04c8 330C9C00 		add	s8,s8,s1
 946 04cc 131C3C00 		slli	s8,s8,3
 164:test/../test/ConsumerProducer_CPP_Sync_API_test.hpp ****         } else {
 947              		.loc 1 164 45
 948 04d0 330C8A01 		add	s8,s4,s8
 949              	.LVL96:
 950              	.LEHB7:
 951              	.LBB50:
 952              	.LBB49:
  57:test/../test/ConsumerProducer_CPP_Sync_API_test.hpp **** 
 953              		.loc 1 57 48
 954 04d4 97000000 		call	_ZN6ThreadC2Ev@plt
 954      E7800000 
 955              	.LVL97:
 956              	.LEHE7:
GAS LISTING /tmp/ccGAoxRT.s 			page 25


 957 04dc 6FF09FF7 		j	.L72
 958              	.LVL98:
 959              	.L46:
 960              	.LBE49:
 961              	.LBE50:
 166:test/../test/ConsumerProducer_CPP_Sync_API_test.hpp ****         }
 962              		.loc 1 166 13 is_stmt 1
 166:test/../test/ConsumerProducer_CPP_Sync_API_test.hpp ****         }
 963              		.loc 1 166 53 is_stmt 0
 964 04e0 13058001 		li	a0,24
 965              	.LEHB8:
 966 04e4 97000000 		call	_Znwm@plt
 966      E7800000 
 967              	.LVL99:
 968              	.LEHE8:
 969 04ec 930C0500 		mv	s9,a0
 166:test/../test/ConsumerProducer_CPP_Sync_API_test.hpp ****         }
 970              		.loc 1 166 51
 971 04f0 139C1400 		slli	s8,s1,1
 972 04f4 330C9C00 		add	s8,s8,s1
 973 04f8 131C3C00 		slli	s8,s8,3
 166:test/../test/ConsumerProducer_CPP_Sync_API_test.hpp ****         }
 974              		.loc 1 166 53
 975 04fc 330C8A01 		add	s8,s4,s8
 976              	.LVL100:
 977              	.LEHB9:
 978              	.LBB51:
 979              	.LBB52:
  26:test/../test/ConsumerProducer_CPP_Sync_API_test.hpp **** 
 980              		.loc 1 26 56
 981 0500 97000000 		call	_ZN6ThreadC2Ev@plt
 981      E7800000 
 982              	.LVL101:
 983              	.LEHE9:
 984 0508 97070000 		lla	a5,_ZTV16ProducerKeyboard+16
 984      93870700 
 985 0510 23B0FC00 		sd	a5,0(s9)
 986 0514 23B88C01 		sd	s8,16(s9)
 987              	.LVL102:
 988              	.LBE52:
 989              	.LBE51:
 166:test/../test/ConsumerProducer_CPP_Sync_API_test.hpp ****         }
 990              		.loc 1 166 24
 991 0518 93973400 		slli	a5,s1,3
 992 051c B387F900 		add	a5,s3,a5
 993 0520 23B09701 		sd	s9,0(a5)
 994 0524 6FF0DFF4 		j	.L47
 995              	.L45:
 996              	.LBE46:
 172:test/../test/ConsumerProducer_CPP_Sync_API_test.hpp **** 
 997              		.loc 1 172 5 is_stmt 1
 998              	.LEHB10:
 172:test/../test/ConsumerProducer_CPP_Sync_API_test.hpp **** 
 999              		.loc 1 172 21 is_stmt 0
 1000 0528 97000000 		call	_ZN6Thread8dispatchEv@plt
 1000      E7800000 
 1001              	.LVL103:
GAS LISTING /tmp/ccGAoxRT.s 			page 26


 1002              	.LBB53:
 174:test/../test/ConsumerProducer_CPP_Sync_API_test.hpp ****         waitForAll->wait();
 1003              		.loc 1 174 14
 1004 0530 93040000 		li	s1,0
 1005              	.LVL104:
 1006              	.L50:
 174:test/../test/ConsumerProducer_CPP_Sync_API_test.hpp ****         waitForAll->wait();
 1007              		.loc 1 174 23 is_stmt 1 discriminator 1
 1008 0534 634E9900 		bgt	s1,s2,.L62
 175:test/../test/ConsumerProducer_CPP_Sync_API_test.hpp ****     }
 1009              		.loc 1 175 9
 175:test/../test/ConsumerProducer_CPP_Sync_API_test.hpp ****     }
 1010              		.loc 1 175 25 is_stmt 0
 1011 0538 17050000 		ld	a0,.LANCHOR0+8
 1011      03350500 
 1012 0540 97000000 		call	_ZN9Semaphore4waitEv@plt
 1012      E7800000 
 1013              	.LVL105:
 174:test/../test/ConsumerProducer_CPP_Sync_API_test.hpp ****         waitForAll->wait();
 1014              		.loc 1 174 5 is_stmt 1
 1015 0548 9B841400 		addiw	s1,s1,1
 1016              	.LVL106:
 1017 054c 6FF09FFE 		j	.L50
 1018              	.LVL107:
 1019              	.L62:
 1020              	.LBE53:
 1021              	.LBB54:
 178:test/../test/ConsumerProducer_CPP_Sync_API_test.hpp ****         delete threads[i];
 1022              		.loc 1 178 14 is_stmt 0
 1023 0550 93040000 		li	s1,0
 1024              	.LVL108:
 1025 0554 6F008000 		j	.L49
 1026              	.LVL109:
 1027              	.L52:
 178:test/../test/ConsumerProducer_CPP_Sync_API_test.hpp ****         delete threads[i];
 1028              		.loc 1 178 5 is_stmt 1 discriminator 2
 1029 0558 9B841400 		addiw	s1,s1,1
 1030              	.LVL110:
 1031              	.L49:
 178:test/../test/ConsumerProducer_CPP_Sync_API_test.hpp ****         delete threads[i];
 1032              		.loc 1 178 23 discriminator 1
 1033 055c 63D22403 		bge	s1,s2,.L51
 179:test/../test/ConsumerProducer_CPP_Sync_API_test.hpp ****     }
 1034              		.loc 1 179 9
 179:test/../test/ConsumerProducer_CPP_Sync_API_test.hpp ****     }
 1035              		.loc 1 179 25 is_stmt 0
 1036 0560 93973400 		slli	a5,s1,3
 1037 0564 B387F900 		add	a5,s3,a5
 1038 0568 03B50700 		ld	a0,0(a5)
 179:test/../test/ConsumerProducer_CPP_Sync_API_test.hpp ****     }
 1039              		.loc 1 179 26
 1040 056c E30605FE 		beqz	a0,.L52
 179:test/../test/ConsumerProducer_CPP_Sync_API_test.hpp ****     }
 1041              		.loc 1 179 25 discriminator 1
 1042 0570 83370500 		ld	a5,0(a0)
 1043 0574 83B78700 		ld	a5,8(a5)
 1044 0578 E7800700 		jalr	a5
GAS LISTING /tmp/ccGAoxRT.s 			page 27


 1045              	.LVL111:
 1046 057c 6FF0DFFD 		j	.L52
 1047              	.L51:
 1048              	.LBE54:
 181:test/../test/ConsumerProducer_CPP_Sync_API_test.hpp ****     delete waitForAll;
 1049              		.loc 1 181 5 is_stmt 1
 181:test/../test/ConsumerProducer_CPP_Sync_API_test.hpp ****     delete waitForAll;
 1050              		.loc 1 181 26 is_stmt 0
 1051 0580 630A0B00 		beqz	s6,.L53
 181:test/../test/ConsumerProducer_CPP_Sync_API_test.hpp ****     delete waitForAll;
 1052              		.loc 1 181 12 discriminator 1
 1053 0584 83370B00 		ld	a5,0(s6)
 1054 0588 83B78700 		ld	a5,8(a5)
 1055 058c 13050B00 		mv	a0,s6
 1056 0590 E7800700 		jalr	a5
 1057              	.LVL112:
 1058              	.L53:
 182:test/../test/ConsumerProducer_CPP_Sync_API_test.hpp ****     delete buffer;
 1059              		.loc 1 182 5 is_stmt 1
 182:test/../test/ConsumerProducer_CPP_Sync_API_test.hpp ****     delete buffer;
 1060              		.loc 1 182 12 is_stmt 0
 1061 0594 17050000 		ld	a0,.LANCHOR0+8
 1061      03350500 
 182:test/../test/ConsumerProducer_CPP_Sync_API_test.hpp ****     delete buffer;
 1062              		.loc 1 182 22
 1063 059c 63080500 		beqz	a0,.L54
 182:test/../test/ConsumerProducer_CPP_Sync_API_test.hpp ****     delete buffer;
 1064              		.loc 1 182 12 discriminator 1
 1065 05a0 83370500 		ld	a5,0(a0)
 1066 05a4 83B78700 		ld	a5,8(a5)
 1067 05a8 E7800700 		jalr	a5
 1068              	.LVL113:
 1069              	.L54:
 1070              		.loc 1 183 5 is_stmt 1
 1071              		.loc 1 183 18 is_stmt 0
 1072 05ac 638E0A00 		beqz	s5,.L55
 1073              		.loc 1 183 12 discriminator 1
 1074 05b0 13850A00 		mv	a0,s5
 1075 05b4 97000000 		call	_ZN9BufferCPPD1Ev@plt
 1075      E7800000 
 1076              	.LVL114:
 1077 05bc 13850A00 		mv	a0,s5
 1078 05c0 97000000 		call	_ZdlPv@plt
 1078      E7800000 
 1079              	.LVL115:
 1080              	.L55:
 1081 05c8 13810B00 		mv	sp,s7
 1082              	.LVL116:
 1083              	.L41:
 184:test/../test/ConsumerProducer_CPP_Sync_API_test.hpp **** 
 185:test/../test/ConsumerProducer_CPP_Sync_API_test.hpp **** }
 1084              		.loc 1 185 1
 1085 05cc 130104F8 		addi	sp,s0,-128
 1086              		.cfi_remember_state
 1087              		.cfi_def_cfa 2, 128
 1088 05d0 83308107 		ld	ra,120(sp)
 1089              		.cfi_restore 1
GAS LISTING /tmp/ccGAoxRT.s 			page 28


 1090 05d4 03340107 		ld	s0,112(sp)
 1091              		.cfi_restore 8
 1092 05d8 83348106 		ld	s1,104(sp)
 1093              		.cfi_restore 9
 1094 05dc 03390106 		ld	s2,96(sp)
 1095              		.cfi_restore 18
 1096              	.LVL117:
 1097 05e0 83398105 		ld	s3,88(sp)
 1098              		.cfi_restore 19
 1099 05e4 033A0105 		ld	s4,80(sp)
 1100              		.cfi_restore 20
 1101 05e8 833A8104 		ld	s5,72(sp)
 1102              		.cfi_restore 21
 1103 05ec 033B0104 		ld	s6,64(sp)
 1104              		.cfi_restore 22
 1105 05f0 833B8103 		ld	s7,56(sp)
 1106              		.cfi_restore 23
 1107 05f4 033C0103 		ld	s8,48(sp)
 1108              		.cfi_restore 24
 1109 05f8 833C8102 		ld	s9,40(sp)
 1110              		.cfi_restore 25
 1111 05fc 13010108 		addi	sp,sp,128
 1112              		.cfi_def_cfa_offset 0
 1113 0600 67800000 		jr	ra
 1114              	.LVL118:
 1115              	.L63:
 1116              		.cfi_restore_state
 1117 0604 93040500 		mv	s1,a0
 1118              	.LVL119:
 143:test/../test/ConsumerProducer_CPP_Sync_API_test.hpp **** 
 1119              		.loc 1 143 40
 1120 0608 13850A00 		mv	a0,s5
 1121 060c 97000000 		call	_ZdlPv@plt
 1121      E7800000 
 1122              	.LVL120:
 1123 0614 13850400 		mv	a0,s1
 1124 0618 97000000 		call	_Unwind_Resume@plt
 1124      E7800000 
 1125              	.LVL121:
 1126              	.L64:
 1127 0620 13090500 		mv	s2,a0
 1128              	.LVL122:
 145:test/../test/ConsumerProducer_CPP_Sync_API_test.hpp **** 
 1129              		.loc 1 145 33
 1130 0624 13850400 		mv	a0,s1
 1131 0628 97000000 		call	_ZdlPv@plt
 1131      E7800000 
 1132              	.LVL123:
 1133 0630 13050900 		mv	a0,s2
 1134 0634 97000000 		call	_Unwind_Resume@plt
 1134      E7800000 
 1135              	.LVL124:
 1136              	.L65:
 1137 063c 93040500 		mv	s1,a0
 1138              	.LVL125:
 155:test/../test/ConsumerProducer_CPP_Sync_API_test.hpp ****     consumerThread->start();
 1139              		.loc 1 155 49
GAS LISTING /tmp/ccGAoxRT.s 			page 29


 1140 0640 13050B00 		mv	a0,s6
 1141 0644 97000000 		call	_ZdlPv@plt
 1141      E7800000 
 1142              	.LVL126:
 1143 064c 13850400 		mv	a0,s1
 1144 0650 97000000 		call	_Unwind_Resume@plt
 1144      E7800000 
 1145              	.LVL127:
 1146              	.L66:
 1147 0658 93040500 		mv	s1,a0
 1148              	.LVL128:
 1149              	.LBB55:
 164:test/../test/ConsumerProducer_CPP_Sync_API_test.hpp ****         } else {
 1150              		.loc 1 164 45
 1151 065c 13850C00 		mv	a0,s9
 1152 0660 97000000 		call	_ZdlPv@plt
 1152      E7800000 
 1153              	.LVL129:
 1154 0668 13850400 		mv	a0,s1
 1155 066c 97000000 		call	_Unwind_Resume@plt
 1155      E7800000 
 1156              	.LVL130:
 1157              	.L67:
 1158 0674 93040500 		mv	s1,a0
 1159              	.LVL131:
 166:test/../test/ConsumerProducer_CPP_Sync_API_test.hpp ****         }
 1160              		.loc 1 166 53
 1161 0678 13850C00 		mv	a0,s9
 1162 067c 97000000 		call	_ZdlPv@plt
 1162      E7800000 
 1163              	.LVL132:
 1164 0684 13850400 		mv	a0,s1
 1165 0688 97000000 		call	_Unwind_Resume@plt
 1165      E7800000 
 1166              	.LVL133:
 1167              	.LEHE10:
 1168              	.LBE55:
 1169              		.cfi_endproc
 1170              	.LFE20:
 1171              		.globl	__gxx_personality_v0
 1172              		.section	.gcc_except_table,"a",@progbits
 1173              	.LLSDA20:
 1174 0000 FF       		.byte	0xff
 1175 0001 FF       		.byte	0xff
 1176 0002 03       		.byte	0x3
 1177 0003 8F01     		.byte	0x8f,0x1
 1178 0005 00000000 		.4byte	.LEHB0-.LFB20
 1179 0009 00000000 		.4byte	.LEHE0-.LEHB0
 1180 000d 00000000 		.4byte	0
 1181 0011 00       		.byte	0
 1182 0012 00000000 		.4byte	.LEHB1-.LFB20
 1183 0016 00000000 		.4byte	.LEHE1-.LEHB1
 1184 001a 00000000 		.4byte	.L63-.LFB20
 1185 001e 00       		.byte	0
 1186 001f 00000000 		.4byte	.LEHB2-.LFB20
 1187 0023 00000000 		.4byte	.LEHE2-.LEHB2
 1188 0027 00000000 		.4byte	0
GAS LISTING /tmp/ccGAoxRT.s 			page 30


 1189 002b 00       		.byte	0
 1190 002c 00000000 		.4byte	.LEHB3-.LFB20
 1191 0030 00000000 		.4byte	.LEHE3-.LEHB3
 1192 0034 00000000 		.4byte	.L64-.LFB20
 1193 0038 00       		.byte	0
 1194 0039 00000000 		.4byte	.LEHB4-.LFB20
 1195 003d 00000000 		.4byte	.LEHE4-.LEHB4
 1196 0041 00000000 		.4byte	0
 1197 0045 00       		.byte	0
 1198 0046 00000000 		.4byte	.LEHB5-.LFB20
 1199 004a 00000000 		.4byte	.LEHE5-.LEHB5
 1200 004e 00000000 		.4byte	.L65-.LFB20
 1201 0052 00       		.byte	0
 1202 0053 00000000 		.4byte	.LEHB6-.LFB20
 1203 0057 00000000 		.4byte	.LEHE6-.LEHB6
 1204 005b 00000000 		.4byte	0
 1205 005f 00       		.byte	0
 1206 0060 00000000 		.4byte	.LEHB7-.LFB20
 1207 0064 00000000 		.4byte	.LEHE7-.LEHB7
 1208 0068 00000000 		.4byte	.L66-.LFB20
 1209 006c 00       		.byte	0
 1210 006d 00000000 		.4byte	.LEHB8-.LFB20
 1211 0071 00000000 		.4byte	.LEHE8-.LEHB8
 1212 0075 00000000 		.4byte	0
 1213 0079 00       		.byte	0
 1214 007a 00000000 		.4byte	.LEHB9-.LFB20
 1215 007e 00000000 		.4byte	.LEHE9-.LEHB9
 1216 0082 00000000 		.4byte	.L67-.LFB20
 1217 0086 00       		.byte	0
 1218 0087 00000000 		.4byte	.LEHB10-.LFB20
 1219 008b 00000000 		.4byte	.LEHE10-.LEHB10
 1220 008f 00000000 		.4byte	0
 1221 0093 00       		.byte	0
 1222              		.text
 1224              		.align	2
 1225              		.globl	_Z8userMainv
 1227              	_Z8userMainv:
 1228              	.LFB21:
 1229              		.file 2 "test/userMain.cpp"
   1:test/userMain.cpp **** //#include "../test/Threads_C_API_test.hpp" // zadatak 2, niti C API i sinhrona promena konteksta
   2:test/userMain.cpp **** //#include "../test/Threads_CPP_API_test.hpp" // zadatak 2., niti CPP API i sinhrona promena kontek
   3:test/userMain.cpp **** 
   4:test/userMain.cpp **** //#include "../test/ConsumerProducer_C_API_test.h" // zadatak 3., kompletan C API sa semaforima, si
   5:test/userMain.cpp **** #include "../test/ConsumerProducer_CPP_Sync_API_test.hpp" // zadatak 3., kompletan CPP API sa semaf
   6:test/userMain.cpp **** 
   7:test/userMain.cpp **** //#include "../test/ThreadSleep_C_API_test.hpp" // thread_sleep test C API
   8:test/userMain.cpp **** //#include "../test/ConsumerProducer_CPP_API_test.hpp" // zadatak 4. CPP API i asinhrona promena ko
   9:test/userMain.cpp **** 
  10:test/userMain.cpp **** void userMain() {
 1230              		.loc 2 10 17 is_stmt 1
 1231              		.cfi_startproc
 1232 0690 130101FF 		addi	sp,sp,-16
 1233              		.cfi_def_cfa_offset 16
 1234 0694 23341100 		sd	ra,8(sp)
 1235 0698 23308100 		sd	s0,0(sp)
 1236              		.cfi_offset 1, -8
 1237              		.cfi_offset 8, -16
GAS LISTING /tmp/ccGAoxRT.s 			page 31


 1238 069c 13040101 		addi	s0,sp,16
 1239              		.cfi_def_cfa 8, 0
  11:test/userMain.cpp ****     //Threads_C_API_test(); // zadatak 2., niti C API i sinhrona promena konteksta
  12:test/userMain.cpp ****     //Threads_CPP_API_test(); // zadatak 2., niti CPP API i sinhrona promena konteksta
  13:test/userMain.cpp **** 
  14:test/userMain.cpp ****     //producerConsumer_C_API(); // zadatak 3., kompletan C API sa semaforima, sinhrona promena kont
  15:test/userMain.cpp ****     producerConsumer_CPP_Sync_API(); // zadatak 3., kompletan CPP API sa semaforima, sinhrona prome
 1240              		.loc 2 15 5
 1241              		.loc 2 15 34 is_stmt 0
 1242 06a0 97000000 		call	_Z29producerConsumer_CPP_Sync_APIv
 1242      E7800000 
 1243              	.LVL134:
  16:test/userMain.cpp **** 
  17:test/userMain.cpp ****     //testSleeping(); // thread_sleep test C API
  18:test/userMain.cpp ****     //ConsumerProducerCPP::testConsumerProducer(); // zadatak 4. CPP API i asinhrona promena kontek
  19:test/userMain.cpp **** }...
 1244              		.loc 2 19 1
 1245 06a8 83308100 		ld	ra,8(sp)
 1246              		.cfi_restore 1
 1247 06ac 03340100 		ld	s0,0(sp)
 1248              		.cfi_restore 8
 1249              		.cfi_def_cfa 2, 16
 1250 06b0 13010101 		addi	sp,sp,16
 1251              		.cfi_def_cfa_offset 0
 1252 06b4 67800000 		jr	ra
 1253              		.cfi_endproc
 1254              	.LFE21:
 1256              		.weak	_ZTV16ProducerKeyboard
 1257              		.section	.data.rel.ro.local._ZTV16ProducerKeyboard,"awG",@progbits,_ZTV16ProducerKeyboard,comdat
 1258              		.align	3
 1261              	_ZTV16ProducerKeyboard:
 1262 0000 00000000 		.dword	0
 1262      00000000 
 1263 0008 00000000 		.dword	0
 1263      00000000 
 1264 0010 00000000 		.dword	_ZN16ProducerKeyboardD1Ev
 1264      00000000 
 1265 0018 00000000 		.dword	_ZN16ProducerKeyboardD0Ev
 1265      00000000 
 1266 0020 00000000 		.dword	_ZN16ProducerKeyboard3runEv
 1266      00000000 
 1267              		.weak	_ZTV8Producer
 1268              		.section	.data.rel.ro.local._ZTV8Producer,"awG",@progbits,_ZTV8Producer,comdat
 1269              		.align	3
 1272              	_ZTV8Producer:
 1273 0000 00000000 		.dword	0
 1273      00000000 
 1274 0008 00000000 		.dword	0
 1274      00000000 
 1275 0010 00000000 		.dword	_ZN8ProducerD1Ev
 1275      00000000 
 1276 0018 00000000 		.dword	_ZN8ProducerD0Ev
 1276      00000000 
 1277 0020 00000000 		.dword	_ZN8Producer3runEv
 1277      00000000 
 1278              		.weak	_ZTV8Consumer
 1279              		.section	.data.rel.ro.local._ZTV8Consumer,"awG",@progbits,_ZTV8Consumer,comdat
GAS LISTING /tmp/ccGAoxRT.s 			page 32


 1280              		.align	3
 1283              	_ZTV8Consumer:
 1284 0000 00000000 		.dword	0
 1284      00000000 
 1285 0008 00000000 		.dword	0
 1285      00000000 
 1286 0010 00000000 		.dword	_ZN8ConsumerD1Ev
 1286      00000000 
 1287 0018 00000000 		.dword	_ZN8ConsumerD0Ev
 1287      00000000 
 1288 0020 00000000 		.dword	_ZN8Consumer3runEv
 1288      00000000 
 1289              		.globl	threadEnd
 1290              		.globl	waitForAll
 1291              		.bss
 1292              		.align	3
 1293              		.set	.LANCHOR0,. + 0
 1296              	threadEnd:
 1297 0000 00000000 		.zero	4
 1298 0004 00000000 		.zero	4
 1301              	waitForAll:
 1302 0008 00000000 		.zero	8
 1302      00000000 
 1303              		.text
 1304              	.Letext0:
 1305              		.file 3 "test/../test/../h/../lib/hw.h"
 1306              		.file 4 "test/../test/../h/syscall_c.h"
 1307              		.file 5 "test/../test/../h/syscall_cpp.h"
 1308              		.file 6 "test/../test/buffer_CPP_API.hpp"
 1309              		.file 7 "test/../test/printing.hpp"
 5684              		.align	3
 5687              	DW.ref.__gxx_personality_v0:
 5688 0000 00000000 		.dword	__gxx_personality_v0
 5688      00000000 
 5689              		.ident	"GCC: (Ubuntu 9.4.0-1ubuntu1~20.04) 9.4.0"
 5690              		.section	.note.GNU-stack,"",@progbits
GAS LISTING /tmp/ccGAoxRT.s 			page 33


DEFINED SYMBOLS
                            *ABS*:0000000000000000 userMain.cpp
     /tmp/ccGAoxRT.s:10     .text._ZN8ConsumerD2Ev:0000000000000000 _ZN8ConsumerD2Ev
     /tmp/ccGAoxRT.s:14     .text._ZN8ConsumerD2Ev:0000000000000000 .L0 
     /tmp/ccGAoxRT.s:16     .text._ZN8ConsumerD2Ev:0000000000000000 .L0 
     /tmp/ccGAoxRT.s:17     .text._ZN8ConsumerD2Ev:0000000000000004 .L0 
     /tmp/ccGAoxRT.s:19     .text._ZN8ConsumerD2Ev:0000000000000008 .L0 
     /tmp/ccGAoxRT.s:21     .text._ZN8ConsumerD2Ev:000000000000000c .L0 
     /tmp/ccGAoxRT.s:23     .text._ZN8ConsumerD2Ev:000000000000000c .L0 
     /tmp/ccGAoxRT.s:24     .text._ZN8ConsumerD2Ev:0000000000000010 .L0 
     /tmp/ccGAoxRT.s:25     .text._ZN8ConsumerD2Ev:0000000000000010 .L0 
     /tmp/ccGAoxRT.s:27     .text._ZN8ConsumerD2Ev:0000000000000014 .L0 
     /tmp/ccGAoxRT.s:29     .text._ZN8ConsumerD2Ev:0000000000000018 .L0 
     /tmp/ccGAoxRT.s:10     .text._ZN8ConsumerD2Ev:0000000000000000 _ZN8ConsumerD1Ev
     /tmp/ccGAoxRT.s:38     .text._ZN8ProducerD2Ev:0000000000000000 _ZN8ProducerD2Ev
     /tmp/ccGAoxRT.s:41     .text._ZN8ProducerD2Ev:0000000000000000 .L0 
     /tmp/ccGAoxRT.s:43     .text._ZN8ProducerD2Ev:0000000000000000 .L0 
     /tmp/ccGAoxRT.s:44     .text._ZN8ProducerD2Ev:0000000000000004 .L0 
     /tmp/ccGAoxRT.s:46     .text._ZN8ProducerD2Ev:0000000000000008 .L0 
     /tmp/ccGAoxRT.s:48     .text._ZN8ProducerD2Ev:000000000000000c .L0 
     /tmp/ccGAoxRT.s:50     .text._ZN8ProducerD2Ev:000000000000000c .L0 
     /tmp/ccGAoxRT.s:51     .text._ZN8ProducerD2Ev:0000000000000010 .L0 
     /tmp/ccGAoxRT.s:52     .text._ZN8ProducerD2Ev:0000000000000010 .L0 
     /tmp/ccGAoxRT.s:54     .text._ZN8ProducerD2Ev:0000000000000014 .L0 
     /tmp/ccGAoxRT.s:56     .text._ZN8ProducerD2Ev:0000000000000018 .L0 
     /tmp/ccGAoxRT.s:38     .text._ZN8ProducerD2Ev:0000000000000000 _ZN8ProducerD1Ev
     /tmp/ccGAoxRT.s:65     .text._ZN16ProducerKeyboardD2Ev:0000000000000000 _ZN16ProducerKeyboardD2Ev
     /tmp/ccGAoxRT.s:68     .text._ZN16ProducerKeyboardD2Ev:0000000000000000 .L0 
     /tmp/ccGAoxRT.s:70     .text._ZN16ProducerKeyboardD2Ev:0000000000000000 .L0 
     /tmp/ccGAoxRT.s:71     .text._ZN16ProducerKeyboardD2Ev:0000000000000004 .L0 
     /tmp/ccGAoxRT.s:73     .text._ZN16ProducerKeyboardD2Ev:0000000000000008 .L0 
     /tmp/ccGAoxRT.s:75     .text._ZN16ProducerKeyboardD2Ev:000000000000000c .L0 
     /tmp/ccGAoxRT.s:77     .text._ZN16ProducerKeyboardD2Ev:000000000000000c .L0 
     /tmp/ccGAoxRT.s:78     .text._ZN16ProducerKeyboardD2Ev:0000000000000010 .L0 
     /tmp/ccGAoxRT.s:79     .text._ZN16ProducerKeyboardD2Ev:0000000000000010 .L0 
     /tmp/ccGAoxRT.s:81     .text._ZN16ProducerKeyboardD2Ev:0000000000000014 .L0 
     /tmp/ccGAoxRT.s:83     .text._ZN16ProducerKeyboardD2Ev:0000000000000018 .L0 
     /tmp/ccGAoxRT.s:65     .text._ZN16ProducerKeyboardD2Ev:0000000000000000 _ZN16ProducerKeyboardD1Ev
     /tmp/ccGAoxRT.s:92     .text._ZN8ConsumerD0Ev:0000000000000000 _ZN8ConsumerD0Ev
     /tmp/ccGAoxRT.s:95     .text._ZN8ConsumerD0Ev:0000000000000000 .L0 
     /tmp/ccGAoxRT.s:97     .text._ZN8ConsumerD0Ev:0000000000000000 .L0 
     /tmp/ccGAoxRT.s:98     .text._ZN8ConsumerD0Ev:0000000000000004 .L0 
     /tmp/ccGAoxRT.s:101    .text._ZN8ConsumerD0Ev:000000000000000c .L0 
     /tmp/ccGAoxRT.s:102    .text._ZN8ConsumerD0Ev:000000000000000c .L0 
     /tmp/ccGAoxRT.s:104    .text._ZN8ConsumerD0Ev:0000000000000010 .L0 
     /tmp/ccGAoxRT.s:106    .text._ZN8ConsumerD0Ev:0000000000000010 .L0 
     /tmp/ccGAoxRT.s:109    .text._ZN8ConsumerD0Ev:000000000000001c .L0 
     /tmp/ccGAoxRT.s:111    .text._ZN8ConsumerD0Ev:0000000000000020 .L0 
     /tmp/ccGAoxRT.s:112    .text._ZN8ConsumerD0Ev:0000000000000020 .L0 
     /tmp/ccGAoxRT.s:114    .text._ZN8ConsumerD0Ev:0000000000000024 .L0 
     /tmp/ccGAoxRT.s:116    .text._ZN8ConsumerD0Ev:0000000000000028 .L0 
     /tmp/ccGAoxRT.s:123    .text._ZN8ProducerD0Ev:0000000000000000 _ZN8ProducerD0Ev
     /tmp/ccGAoxRT.s:126    .text._ZN8ProducerD0Ev:0000000000000000 .L0 
     /tmp/ccGAoxRT.s:128    .text._ZN8ProducerD0Ev:0000000000000000 .L0 
     /tmp/ccGAoxRT.s:129    .text._ZN8ProducerD0Ev:0000000000000004 .L0 
     /tmp/ccGAoxRT.s:132    .text._ZN8ProducerD0Ev:000000000000000c .L0 
     /tmp/ccGAoxRT.s:133    .text._ZN8ProducerD0Ev:000000000000000c .L0 
GAS LISTING /tmp/ccGAoxRT.s 			page 34


     /tmp/ccGAoxRT.s:135    .text._ZN8ProducerD0Ev:0000000000000010 .L0 
     /tmp/ccGAoxRT.s:137    .text._ZN8ProducerD0Ev:0000000000000010 .L0 
     /tmp/ccGAoxRT.s:140    .text._ZN8ProducerD0Ev:000000000000001c .L0 
     /tmp/ccGAoxRT.s:142    .text._ZN8ProducerD0Ev:0000000000000020 .L0 
     /tmp/ccGAoxRT.s:143    .text._ZN8ProducerD0Ev:0000000000000020 .L0 
     /tmp/ccGAoxRT.s:145    .text._ZN8ProducerD0Ev:0000000000000024 .L0 
     /tmp/ccGAoxRT.s:147    .text._ZN8ProducerD0Ev:0000000000000028 .L0 
     /tmp/ccGAoxRT.s:154    .text._ZN16ProducerKeyboardD0Ev:0000000000000000 _ZN16ProducerKeyboardD0Ev
     /tmp/ccGAoxRT.s:157    .text._ZN16ProducerKeyboardD0Ev:0000000000000000 .L0 
     /tmp/ccGAoxRT.s:159    .text._ZN16ProducerKeyboardD0Ev:0000000000000000 .L0 
     /tmp/ccGAoxRT.s:160    .text._ZN16ProducerKeyboardD0Ev:0000000000000004 .L0 
     /tmp/ccGAoxRT.s:163    .text._ZN16ProducerKeyboardD0Ev:000000000000000c .L0 
     /tmp/ccGAoxRT.s:164    .text._ZN16ProducerKeyboardD0Ev:000000000000000c .L0 
     /tmp/ccGAoxRT.s:166    .text._ZN16ProducerKeyboardD0Ev:0000000000000010 .L0 
     /tmp/ccGAoxRT.s:168    .text._ZN16ProducerKeyboardD0Ev:0000000000000010 .L0 
     /tmp/ccGAoxRT.s:171    .text._ZN16ProducerKeyboardD0Ev:000000000000001c .L0 
     /tmp/ccGAoxRT.s:173    .text._ZN16ProducerKeyboardD0Ev:0000000000000020 .L0 
     /tmp/ccGAoxRT.s:174    .text._ZN16ProducerKeyboardD0Ev:0000000000000020 .L0 
     /tmp/ccGAoxRT.s:176    .text._ZN16ProducerKeyboardD0Ev:0000000000000024 .L0 
     /tmp/ccGAoxRT.s:178    .text._ZN16ProducerKeyboardD0Ev:0000000000000028 .L0 
     /tmp/ccGAoxRT.s:185    .text:0000000000000000 _ZN16ProducerKeyboard16producerKeyboardEPv
     /tmp/ccGAoxRT.s:188    .text:0000000000000000 .L0 
     /tmp/ccGAoxRT.s:190    .text:0000000000000000 .L0 
     /tmp/ccGAoxRT.s:191    .text:0000000000000004 .L0 
     /tmp/ccGAoxRT.s:197    .text:0000000000000018 .L0 
     /tmp/ccGAoxRT.s:198    .text:0000000000000018 .L0 
     /tmp/ccGAoxRT.s:199    .text:0000000000000018 .L0 
     /tmp/ccGAoxRT.s:200    .text:0000000000000018 .L0 
     /tmp/ccGAoxRT.s:201    .text:0000000000000018 .L0 
     /tmp/ccGAoxRT.s:203    .text:000000000000001c .L0 
     /tmp/ccGAoxRT.s:208    .text:0000000000000024 .L0 
     /tmp/ccGAoxRT.s:209    .text:0000000000000024 .L0 
     /tmp/ccGAoxRT.s:210    .text:0000000000000024 .L0 
     /tmp/ccGAoxRT.s:211    .text:0000000000000024 .L0 
     /tmp/ccGAoxRT.s:216    .text:000000000000002c .L0 
     /tmp/ccGAoxRT.s:217    .text:000000000000002c .L0 
     /tmp/ccGAoxRT.s:221    .text:0000000000000034 .L0 
     /tmp/ccGAoxRT.s:222    .text:0000000000000034 .L0 
     /tmp/ccGAoxRT.s:223    .text:0000000000000034 .L0 
     /tmp/ccGAoxRT.s:226    .text:000000000000003c .L0 
     /tmp/ccGAoxRT.s:229    .text:0000000000000040 .L0 
     /tmp/ccGAoxRT.s:232    .text:0000000000000048 .L0 
     /tmp/ccGAoxRT.s:233    .text:0000000000000048 .L0 
     /tmp/ccGAoxRT.s:237    .text:0000000000000054 .L0 
     /tmp/ccGAoxRT.s:238    .text:0000000000000054 .L0 
     /tmp/ccGAoxRT.s:242    .text:000000000000005c .L0 
     /tmp/ccGAoxRT.s:243    .text:000000000000005c .L0 
     /tmp/ccGAoxRT.s:245    .text:0000000000000060 .L0 
     /tmp/ccGAoxRT.s:249    .text:000000000000006c .L0 
     /tmp/ccGAoxRT.s:251    .text:0000000000000070 .L0 
     /tmp/ccGAoxRT.s:256    .text:0000000000000078 .L0 
     /tmp/ccGAoxRT.s:257    .text:0000000000000078 .L0 
     /tmp/ccGAoxRT.s:260    .text:0000000000000084 .L0 
     /tmp/ccGAoxRT.s:262    .text:0000000000000088 .L0 
     /tmp/ccGAoxRT.s:269    .text:0000000000000098 .L0 
     /tmp/ccGAoxRT.s:270    .text:0000000000000098 .L0 
     /tmp/ccGAoxRT.s:274    .text:00000000000000a4 .L0 
GAS LISTING /tmp/ccGAoxRT.s 			page 35


     /tmp/ccGAoxRT.s:275    .text:00000000000000a8 .L0 
     /tmp/ccGAoxRT.s:277    .text:00000000000000ac .L0 
     /tmp/ccGAoxRT.s:278    .text:00000000000000ac .L0 
     /tmp/ccGAoxRT.s:280    .text:00000000000000b0 .L0 
     /tmp/ccGAoxRT.s:283    .text:00000000000000b4 .L0 
     /tmp/ccGAoxRT.s:286    .text:00000000000000b8 .L0 
     /tmp/ccGAoxRT.s:289    .text:00000000000000bc .L0 
     /tmp/ccGAoxRT.s:291    .text:00000000000000c0 .L0 
     /tmp/ccGAoxRT.s:298    .text._ZN16ProducerKeyboard3runEv:0000000000000000 _ZN16ProducerKeyboard3runEv
     /tmp/ccGAoxRT.s:301    .text._ZN16ProducerKeyboard3runEv:0000000000000000 .L0 
     /tmp/ccGAoxRT.s:303    .text._ZN16ProducerKeyboard3runEv:0000000000000000 .L0 
     /tmp/ccGAoxRT.s:304    .text._ZN16ProducerKeyboard3runEv:0000000000000004 .L0 
     /tmp/ccGAoxRT.s:307    .text._ZN16ProducerKeyboard3runEv:000000000000000c .L0 
     /tmp/ccGAoxRT.s:308    .text._ZN16ProducerKeyboard3runEv:000000000000000c .L0 
     /tmp/ccGAoxRT.s:310    .text._ZN16ProducerKeyboard3runEv:0000000000000010 .L0 
     /tmp/ccGAoxRT.s:312    .text._ZN16ProducerKeyboard3runEv:0000000000000010 .L0 
     /tmp/ccGAoxRT.s:313    .text._ZN16ProducerKeyboard3runEv:0000000000000010 .L0 
     /tmp/ccGAoxRT.s:317    .text._ZN16ProducerKeyboard3runEv:000000000000001c .L0 
     /tmp/ccGAoxRT.s:318    .text._ZN16ProducerKeyboard3runEv:0000000000000020 .L0 
     /tmp/ccGAoxRT.s:320    .text._ZN16ProducerKeyboard3runEv:0000000000000024 .L0 
     /tmp/ccGAoxRT.s:321    .text._ZN16ProducerKeyboard3runEv:0000000000000024 .L0 
     /tmp/ccGAoxRT.s:323    .text._ZN16ProducerKeyboard3runEv:0000000000000028 .L0 
     /tmp/ccGAoxRT.s:325    .text._ZN16ProducerKeyboard3runEv:000000000000002c .L0 
     /tmp/ccGAoxRT.s:332    .text:00000000000000c0 _ZN8Producer8producerEPv
     /tmp/ccGAoxRT.s:335    .text:00000000000000c0 .L0 
     /tmp/ccGAoxRT.s:337    .text:00000000000000c0 .L0 
     /tmp/ccGAoxRT.s:338    .text:00000000000000c4 .L0 
     /tmp/ccGAoxRT.s:343    .text:00000000000000d4 .L0 
     /tmp/ccGAoxRT.s:344    .text:00000000000000d4 .L0 
     /tmp/ccGAoxRT.s:345    .text:00000000000000d4 .L0 
     /tmp/ccGAoxRT.s:346    .text:00000000000000d4 .L0 
     /tmp/ccGAoxRT.s:348    .text:00000000000000d8 .L0 
     /tmp/ccGAoxRT.s:352    .text:00000000000000dc .L0 
     /tmp/ccGAoxRT.s:353    .text:00000000000000dc .L0 
     /tmp/ccGAoxRT.s:354    .text:00000000000000dc .L0 
     /tmp/ccGAoxRT.s:359    .text:00000000000000e4 .L0 
     /tmp/ccGAoxRT.s:360    .text:00000000000000e4 .L0 
     /tmp/ccGAoxRT.s:364    .text:00000000000000ec .L0 
     /tmp/ccGAoxRT.s:365    .text:00000000000000ec .L0 
     /tmp/ccGAoxRT.s:368    .text:00000000000000f8 .L0 
     /tmp/ccGAoxRT.s:369    .text:00000000000000f8 .L0 
     /tmp/ccGAoxRT.s:371    .text:00000000000000fc .L0 
     /tmp/ccGAoxRT.s:376    .text:000000000000010c .L0 
     /tmp/ccGAoxRT.s:377    .text:000000000000010c .L0 
     /tmp/ccGAoxRT.s:381    .text:0000000000000114 .L0 
     /tmp/ccGAoxRT.s:382    .text:0000000000000114 .L0 
     /tmp/ccGAoxRT.s:384    .text:0000000000000118 .L0 
     /tmp/ccGAoxRT.s:388    .text:0000000000000124 .L0 
     /tmp/ccGAoxRT.s:390    .text:0000000000000128 .L0 
     /tmp/ccGAoxRT.s:395    .text:0000000000000130 .L0 
     /tmp/ccGAoxRT.s:396    .text:0000000000000130 .L0 
     /tmp/ccGAoxRT.s:400    .text:000000000000013c .L0 
     /tmp/ccGAoxRT.s:401    .text:0000000000000140 .L0 
     /tmp/ccGAoxRT.s:403    .text:0000000000000144 .L0 
     /tmp/ccGAoxRT.s:404    .text:0000000000000144 .L0 
     /tmp/ccGAoxRT.s:406    .text:0000000000000148 .L0 
     /tmp/ccGAoxRT.s:409    .text:000000000000014c .L0 
GAS LISTING /tmp/ccGAoxRT.s 			page 36


     /tmp/ccGAoxRT.s:412    .text:0000000000000150 .L0 
     /tmp/ccGAoxRT.s:414    .text:0000000000000154 .L0 
     /tmp/ccGAoxRT.s:421    .text._ZN8Producer3runEv:0000000000000000 _ZN8Producer3runEv
     /tmp/ccGAoxRT.s:424    .text._ZN8Producer3runEv:0000000000000000 .L0 
     /tmp/ccGAoxRT.s:426    .text._ZN8Producer3runEv:0000000000000000 .L0 
     /tmp/ccGAoxRT.s:427    .text._ZN8Producer3runEv:0000000000000004 .L0 
     /tmp/ccGAoxRT.s:430    .text._ZN8Producer3runEv:000000000000000c .L0 
     /tmp/ccGAoxRT.s:431    .text._ZN8Producer3runEv:000000000000000c .L0 
     /tmp/ccGAoxRT.s:433    .text._ZN8Producer3runEv:0000000000000010 .L0 
     /tmp/ccGAoxRT.s:435    .text._ZN8Producer3runEv:0000000000000010 .L0 
     /tmp/ccGAoxRT.s:436    .text._ZN8Producer3runEv:0000000000000010 .L0 
     /tmp/ccGAoxRT.s:440    .text._ZN8Producer3runEv:000000000000001c .L0 
     /tmp/ccGAoxRT.s:441    .text._ZN8Producer3runEv:0000000000000020 .L0 
     /tmp/ccGAoxRT.s:443    .text._ZN8Producer3runEv:0000000000000024 .L0 
     /tmp/ccGAoxRT.s:444    .text._ZN8Producer3runEv:0000000000000024 .L0 
     /tmp/ccGAoxRT.s:446    .text._ZN8Producer3runEv:0000000000000028 .L0 
     /tmp/ccGAoxRT.s:448    .text._ZN8Producer3runEv:000000000000002c .L0 
     /tmp/ccGAoxRT.s:455    .text:0000000000000154 _ZN8Consumer8consumerEPv
     /tmp/ccGAoxRT.s:458    .text:0000000000000154 .L0 
     /tmp/ccGAoxRT.s:460    .text:0000000000000154 .L0 
     /tmp/ccGAoxRT.s:461    .text:0000000000000158 .L0 
     /tmp/ccGAoxRT.s:468    .text:0000000000000170 .L0 
     /tmp/ccGAoxRT.s:469    .text:0000000000000170 .L0 
     /tmp/ccGAoxRT.s:470    .text:0000000000000170 .L0 
     /tmp/ccGAoxRT.s:471    .text:0000000000000170 .L0 
     /tmp/ccGAoxRT.s:472    .text:0000000000000170 .L0 
     /tmp/ccGAoxRT.s:473    .text:0000000000000170 .L0 
     /tmp/ccGAoxRT.s:475    .text:0000000000000174 .L0 
     /tmp/ccGAoxRT.s:480    .text:000000000000017c .L0 
     /tmp/ccGAoxRT.s:481    .text:000000000000017c .L0 
     /tmp/ccGAoxRT.s:482    .text:000000000000017c .L0 
     /tmp/ccGAoxRT.s:488    .text:0000000000000184 .L0 
     /tmp/ccGAoxRT.s:489    .text:0000000000000184 .L0 
     /tmp/ccGAoxRT.s:495    .text:0000000000000190 .L0 
     /tmp/ccGAoxRT.s:496    .text:0000000000000190 .L0 
     /tmp/ccGAoxRT.s:502    .text:000000000000019c .L0 
     /tmp/ccGAoxRT.s:503    .text:000000000000019c .L0 
     /tmp/ccGAoxRT.s:507    .text:00000000000001a8 .L0 
     /tmp/ccGAoxRT.s:508    .text:00000000000001a8 .L0 
     /tmp/ccGAoxRT.s:512    .text:00000000000001b4 .L0 
     /tmp/ccGAoxRT.s:513    .text:00000000000001b4 .L0 
     /tmp/ccGAoxRT.s:517    .text:00000000000001bc .L0 
     /tmp/ccGAoxRT.s:518    .text:00000000000001bc .L0 
     /tmp/ccGAoxRT.s:523    .text:00000000000001c8 .L0 
     /tmp/ccGAoxRT.s:524    .text:00000000000001c8 .L0 
     /tmp/ccGAoxRT.s:526    .text:00000000000001cc .L0 
     /tmp/ccGAoxRT.s:529    .text:00000000000001d4 .L0 
     /tmp/ccGAoxRT.s:531    .text:00000000000001d8 .L0 
     /tmp/ccGAoxRT.s:534    .text:00000000000001dc .L0 
     /tmp/ccGAoxRT.s:535    .text:00000000000001dc .L0 
     /tmp/ccGAoxRT.s:539    .text:00000000000001e4 .L0 
     /tmp/ccGAoxRT.s:545    .text:00000000000001ec .L0 
     /tmp/ccGAoxRT.s:546    .text:00000000000001ec .L0 
     /tmp/ccGAoxRT.s:548    .text:00000000000001f0 .L0 
     /tmp/ccGAoxRT.s:552    .text:00000000000001fc .L0 
     /tmp/ccGAoxRT.s:553    .text:00000000000001fc .L0 
     /tmp/ccGAoxRT.s:560    .text:0000000000000208 .L0 
GAS LISTING /tmp/ccGAoxRT.s 			page 37


     /tmp/ccGAoxRT.s:561    .text:0000000000000208 .L0 
     /tmp/ccGAoxRT.s:562    .text:0000000000000208 .L0 
     /tmp/ccGAoxRT.s:564    .text:000000000000020c .L0 
     /tmp/ccGAoxRT.s:568    .text:0000000000000218 .L0 
     /tmp/ccGAoxRT.s:570    .text:000000000000021c .L0 
     /tmp/ccGAoxRT.s:571    .text:000000000000021c .L0 
     /tmp/ccGAoxRT.s:575    .text:0000000000000228 .L0 
     /tmp/ccGAoxRT.s:576    .text:000000000000022c .L0 
     /tmp/ccGAoxRT.s:578    .text:0000000000000230 .L0 
     /tmp/ccGAoxRT.s:579    .text:0000000000000230 .L0 
     /tmp/ccGAoxRT.s:581    .text:0000000000000234 .L0 
     /tmp/ccGAoxRT.s:583    .text:0000000000000238 .L0 
     /tmp/ccGAoxRT.s:586    .text:000000000000023c .L0 
     /tmp/ccGAoxRT.s:589    .text:0000000000000240 .L0 
     /tmp/ccGAoxRT.s:592    .text:0000000000000244 .L0 
     /tmp/ccGAoxRT.s:594    .text:0000000000000248 .L0 
     /tmp/ccGAoxRT.s:601    .text._ZN8Consumer3runEv:0000000000000000 _ZN8Consumer3runEv
     /tmp/ccGAoxRT.s:604    .text._ZN8Consumer3runEv:0000000000000000 .L0 
     /tmp/ccGAoxRT.s:606    .text._ZN8Consumer3runEv:0000000000000000 .L0 
     /tmp/ccGAoxRT.s:607    .text._ZN8Consumer3runEv:0000000000000004 .L0 
     /tmp/ccGAoxRT.s:610    .text._ZN8Consumer3runEv:000000000000000c .L0 
     /tmp/ccGAoxRT.s:611    .text._ZN8Consumer3runEv:000000000000000c .L0 
     /tmp/ccGAoxRT.s:613    .text._ZN8Consumer3runEv:0000000000000010 .L0 
     /tmp/ccGAoxRT.s:615    .text._ZN8Consumer3runEv:0000000000000010 .L0 
     /tmp/ccGAoxRT.s:616    .text._ZN8Consumer3runEv:0000000000000010 .L0 
     /tmp/ccGAoxRT.s:620    .text._ZN8Consumer3runEv:000000000000001c .L0 
     /tmp/ccGAoxRT.s:621    .text._ZN8Consumer3runEv:0000000000000020 .L0 
     /tmp/ccGAoxRT.s:623    .text._ZN8Consumer3runEv:0000000000000024 .L0 
     /tmp/ccGAoxRT.s:624    .text._ZN8Consumer3runEv:0000000000000024 .L0 
     /tmp/ccGAoxRT.s:626    .text._ZN8Consumer3runEv:0000000000000028 .L0 
     /tmp/ccGAoxRT.s:628    .text._ZN8Consumer3runEv:000000000000002c .L0 
     /tmp/ccGAoxRT.s:657    .text:0000000000000248 _Z29producerConsumer_CPP_Sync_APIv
     /tmp/ccGAoxRT.s:660    .text:0000000000000248 .L0 
     /tmp/ccGAoxRT.s:5687   .data.rel.local.DW.ref.__gxx_personality_v0:0000000000000000 DW.ref.__gxx_personality_v0
     /tmp/ccGAoxRT.s:663    .text:0000000000000248 .L0 
     /tmp/ccGAoxRT.s:664    .text:000000000000024c .L0 
     /tmp/ccGAoxRT.s:676    .text:0000000000000278 .L0 
     /tmp/ccGAoxRT.s:677    .text:0000000000000278 .L0 
     /tmp/ccGAoxRT.s:678    .text:0000000000000278 .L0 
     /tmp/ccGAoxRT.s:679    .text:0000000000000278 .L0 
     /tmp/ccGAoxRT.s:680    .text:0000000000000278 .L0 
     /tmp/ccGAoxRT.s:681    .text:0000000000000278 .L0 
     /tmp/ccGAoxRT.s:682    .text:0000000000000278 .L0 
     /tmp/ccGAoxRT.s:683    .text:0000000000000278 .L0 
     /tmp/ccGAoxRT.s:684    .text:0000000000000278 .L0 
     /tmp/ccGAoxRT.s:685    .text:0000000000000278 .L0 
     /tmp/ccGAoxRT.s:686    .text:0000000000000278 .L0 
     /tmp/ccGAoxRT.s:688    .text:000000000000027c .L0 
     /tmp/ccGAoxRT.s:690    .text:000000000000027c .L0 
     /tmp/ccGAoxRT.s:692    .text:0000000000000280 .L0 
     /tmp/ccGAoxRT.s:693    .text:0000000000000280 .L0 
     /tmp/ccGAoxRT.s:694    .text:0000000000000280 .L0 
     /tmp/ccGAoxRT.s:695    .text:0000000000000280 .L0 
     /tmp/ccGAoxRT.s:700    .text:0000000000000290 .L0 
     /tmp/ccGAoxRT.s:701    .text:0000000000000290 .L0 
     /tmp/ccGAoxRT.s:707    .text:00000000000002a4 .L0 
     /tmp/ccGAoxRT.s:708    .text:00000000000002a4 .L0 
GAS LISTING /tmp/ccGAoxRT.s 			page 38


     /tmp/ccGAoxRT.s:714    .text:00000000000002b4 .L0 
     /tmp/ccGAoxRT.s:715    .text:00000000000002b4 .L0 
     /tmp/ccGAoxRT.s:719    .text:00000000000002c4 .L0 
     /tmp/ccGAoxRT.s:720    .text:00000000000002c4 .L0 
     /tmp/ccGAoxRT.s:725    .text:00000000000002d4 .L0 
     /tmp/ccGAoxRT.s:726    .text:00000000000002d4 .L0 
     /tmp/ccGAoxRT.s:732    .text:00000000000002e4 .L0 
     /tmp/ccGAoxRT.s:733    .text:00000000000002e4 .L0 
     /tmp/ccGAoxRT.s:737    .text:00000000000002f4 .L0 
     /tmp/ccGAoxRT.s:738    .text:00000000000002f4 .L0 
     /tmp/ccGAoxRT.s:744    .text:0000000000000308 .L0 
     /tmp/ccGAoxRT.s:745    .text:0000000000000308 .L0 
     /tmp/ccGAoxRT.s:749    .text:0000000000000318 .L0 
     /tmp/ccGAoxRT.s:750    .text:0000000000000318 .L0 
     /tmp/ccGAoxRT.s:756    .text:000000000000032c .L0 
     /tmp/ccGAoxRT.s:757    .text:000000000000032c .L0 
     /tmp/ccGAoxRT.s:761    .text:000000000000033c .L0 
     /tmp/ccGAoxRT.s:763    .text:0000000000000340 .L0 
     /tmp/ccGAoxRT.s:765    .text:0000000000000344 .L0 
     /tmp/ccGAoxRT.s:766    .text:0000000000000344 .L0 
     /tmp/ccGAoxRT.s:779    .text:0000000000000364 .L0 
     /tmp/ccGAoxRT.s:780    .text:0000000000000364 .L0 
     /tmp/ccGAoxRT.s:785    .text:0000000000000374 .L0 
     /tmp/ccGAoxRT.s:788    .text:0000000000000378 .L0 
     /tmp/ccGAoxRT.s:789    .text:0000000000000378 .L0 
     /tmp/ccGAoxRT.s:794    .text:0000000000000388 .L0 
     /tmp/ccGAoxRT.s:799    .text:0000000000000390 .L0 
     /tmp/ccGAoxRT.s:800    .text:0000000000000390 .L0 
     /tmp/ccGAoxRT.s:812    .text:00000000000003ac .L0 
     /tmp/ccGAoxRT.s:816    .text:00000000000003b8 .L0 
     /tmp/ccGAoxRT.s:817    .text:00000000000003b8 .L0 
     /tmp/ccGAoxRT.s:824    .text:00000000000003cc .L0 
     /tmp/ccGAoxRT.s:825    .text:00000000000003cc .L0 
     /tmp/ccGAoxRT.s:826    .text:00000000000003cc .L0 
     /tmp/ccGAoxRT.s:829    .text:00000000000003d0 .L0 
     /tmp/ccGAoxRT.s:839    .text:00000000000003ec .L0 
     /tmp/ccGAoxRT.s:840    .text:00000000000003ec .L0 
     /tmp/ccGAoxRT.s:846    .text:0000000000000400 .L0 
     /tmp/ccGAoxRT.s:847    .text:0000000000000400 .L0 
     /tmp/ccGAoxRT.s:849    .text:0000000000000404 .L0 
     /tmp/ccGAoxRT.s:850    .text:0000000000000404 .L0 
     /tmp/ccGAoxRT.s:853    .text:000000000000040c .L0 
     /tmp/ccGAoxRT.s:854    .text:000000000000040c .L0 
     /tmp/ccGAoxRT.s:861    .text:000000000000041c .L0 
     /tmp/ccGAoxRT.s:864    .text:0000000000000424 .L0 
     /tmp/ccGAoxRT.s:870    .text:0000000000000428 .L0 
     /tmp/ccGAoxRT.s:1283   .data.rel.ro.local._ZTV8Consumer:0000000000000000 _ZTV8Consumer
     /tmp/ccGAoxRT.s:874    .text:0000000000000430 .L0 
     /tmp/ccGAoxRT.s:881    .text:0000000000000440 .L0 
     /tmp/ccGAoxRT.s:882    .text:0000000000000440 .L0 
     /tmp/ccGAoxRT.s:888    .text:000000000000044c .L0 
     /tmp/ccGAoxRT.s:1272   .data.rel.ro.local._ZTV8Producer:0000000000000000 _ZTV8Producer
     /tmp/ccGAoxRT.s:895    .text:0000000000000454 .L0 
     /tmp/ccGAoxRT.s:902    .text:0000000000000464 .L0 
     /tmp/ccGAoxRT.s:907    .text:0000000000000470 .L0 
     /tmp/ccGAoxRT.s:908    .text:0000000000000470 .L0 
     /tmp/ccGAoxRT.s:911    .text:0000000000000478 .L0 
GAS LISTING /tmp/ccGAoxRT.s 			page 39


     /tmp/ccGAoxRT.s:915    .text:0000000000000484 .L0 
     /tmp/ccGAoxRT.s:919    .text:0000000000000488 .L0 
     /tmp/ccGAoxRT.s:921    .text:000000000000048c .L0 
     /tmp/ccGAoxRT.s:922    .text:000000000000048c .L0 
     /tmp/ccGAoxRT.s:928    .text:00000000000004a0 .L0 
     /tmp/ccGAoxRT.s:929    .text:00000000000004a0 .L0 
     /tmp/ccGAoxRT.s:931    .text:00000000000004a4 .L0 
     /tmp/ccGAoxRT.s:932    .text:00000000000004a4 .L0 
     /tmp/ccGAoxRT.s:935    .text:00000000000004b0 .L0 
     /tmp/ccGAoxRT.s:937    .text:00000000000004b4 .L0 
     /tmp/ccGAoxRT.s:938    .text:00000000000004b4 .L0 
     /tmp/ccGAoxRT.s:944    .text:00000000000004c4 .L0 
     /tmp/ccGAoxRT.s:948    .text:00000000000004d0 .L0 
     /tmp/ccGAoxRT.s:954    .text:00000000000004d4 .L0 
     /tmp/ccGAoxRT.s:963    .text:00000000000004e0 .L0 
     /tmp/ccGAoxRT.s:964    .text:00000000000004e0 .L0 
     /tmp/ccGAoxRT.s:971    .text:00000000000004f0 .L0 
     /tmp/ccGAoxRT.s:975    .text:00000000000004fc .L0 
     /tmp/ccGAoxRT.s:981    .text:0000000000000500 .L0 
     /tmp/ccGAoxRT.s:1261   .data.rel.ro.local._ZTV16ProducerKeyboard:0000000000000000 _ZTV16ProducerKeyboard
     /tmp/ccGAoxRT.s:991    .text:0000000000000518 .L0 
     /tmp/ccGAoxRT.s:999    .text:0000000000000528 .L0 
     /tmp/ccGAoxRT.s:1000   .text:0000000000000528 .L0 
     /tmp/ccGAoxRT.s:1004   .text:0000000000000530 .L0 
     /tmp/ccGAoxRT.s:1008   .text:0000000000000534 .L0 
     /tmp/ccGAoxRT.s:1010   .text:0000000000000538 .L0 
     /tmp/ccGAoxRT.s:1011   .text:0000000000000538 .L0 
     /tmp/ccGAoxRT.s:1015   .text:0000000000000548 .L0 
     /tmp/ccGAoxRT.s:1023   .text:0000000000000550 .L0 
     /tmp/ccGAoxRT.s:1029   .text:0000000000000558 .L0 
     /tmp/ccGAoxRT.s:1033   .text:000000000000055c .L0 
     /tmp/ccGAoxRT.s:1035   .text:0000000000000560 .L0 
     /tmp/ccGAoxRT.s:1036   .text:0000000000000560 .L0 
     /tmp/ccGAoxRT.s:1040   .text:000000000000056c .L0 
     /tmp/ccGAoxRT.s:1042   .text:0000000000000570 .L0 
     /tmp/ccGAoxRT.s:1050   .text:0000000000000580 .L0 
     /tmp/ccGAoxRT.s:1051   .text:0000000000000580 .L0 
     /tmp/ccGAoxRT.s:1053   .text:0000000000000584 .L0 
     /tmp/ccGAoxRT.s:1060   .text:0000000000000594 .L0 
     /tmp/ccGAoxRT.s:1061   .text:0000000000000594 .L0 
     /tmp/ccGAoxRT.s:1063   .text:000000000000059c .L0 
     /tmp/ccGAoxRT.s:1065   .text:00000000000005a0 .L0 
     /tmp/ccGAoxRT.s:1071   .text:00000000000005ac .L0 
     /tmp/ccGAoxRT.s:1072   .text:00000000000005ac .L0 
     /tmp/ccGAoxRT.s:1074   .text:00000000000005b0 .L0 
     /tmp/ccGAoxRT.s:1085   .text:00000000000005cc .L0 
     /tmp/ccGAoxRT.s:1086   .text:00000000000005d0 .L0 
     /tmp/ccGAoxRT.s:1087   .text:00000000000005d0 .L0 
     /tmp/ccGAoxRT.s:1089   .text:00000000000005d4 .L0 
     /tmp/ccGAoxRT.s:1091   .text:00000000000005d8 .L0 
     /tmp/ccGAoxRT.s:1093   .text:00000000000005dc .L0 
     /tmp/ccGAoxRT.s:1095   .text:00000000000005e0 .L0 
     /tmp/ccGAoxRT.s:1098   .text:00000000000005e4 .L0 
     /tmp/ccGAoxRT.s:1100   .text:00000000000005e8 .L0 
     /tmp/ccGAoxRT.s:1102   .text:00000000000005ec .L0 
     /tmp/ccGAoxRT.s:1104   .text:00000000000005f0 .L0 
     /tmp/ccGAoxRT.s:1106   .text:00000000000005f4 .L0 
GAS LISTING /tmp/ccGAoxRT.s 			page 40


     /tmp/ccGAoxRT.s:1108   .text:00000000000005f8 .L0 
     /tmp/ccGAoxRT.s:1110   .text:00000000000005fc .L0 
     /tmp/ccGAoxRT.s:1112   .text:0000000000000600 .L0 
     /tmp/ccGAoxRT.s:1116   .text:0000000000000604 .L0 
     /tmp/ccGAoxRT.s:1120   .text:0000000000000608 .L0 
     /tmp/ccGAoxRT.s:1130   .text:0000000000000624 .L0 
     /tmp/ccGAoxRT.s:1140   .text:0000000000000640 .L0 
     /tmp/ccGAoxRT.s:1151   .text:000000000000065c .L0 
     /tmp/ccGAoxRT.s:1161   .text:0000000000000678 .L0 
     /tmp/ccGAoxRT.s:1169   .text:0000000000000690 .L0 
     /tmp/ccGAoxRT.s:1227   .text:0000000000000690 _Z8userMainv
     /tmp/ccGAoxRT.s:1231   .text:0000000000000690 .L0 
     /tmp/ccGAoxRT.s:1232   .text:0000000000000690 .L0 
     /tmp/ccGAoxRT.s:1233   .text:0000000000000694 .L0 
     /tmp/ccGAoxRT.s:1236   .text:000000000000069c .L0 
     /tmp/ccGAoxRT.s:1237   .text:000000000000069c .L0 
     /tmp/ccGAoxRT.s:1239   .text:00000000000006a0 .L0 
     /tmp/ccGAoxRT.s:1241   .text:00000000000006a0 .L0 
     /tmp/ccGAoxRT.s:1242   .text:00000000000006a0 .L0 
     /tmp/ccGAoxRT.s:1245   .text:00000000000006a8 .L0 
     /tmp/ccGAoxRT.s:1246   .text:00000000000006ac .L0 
     /tmp/ccGAoxRT.s:1248   .text:00000000000006b0 .L0 
     /tmp/ccGAoxRT.s:1249   .text:00000000000006b0 .L0 
     /tmp/ccGAoxRT.s:1251   .text:00000000000006b4 .L0 
     /tmp/ccGAoxRT.s:1253   .text:00000000000006b8 .L0 
     /tmp/ccGAoxRT.s:1296   .bss:0000000000000000 threadEnd
     /tmp/ccGAoxRT.s:1301   .bss:0000000000000008 waitForAll
     /tmp/ccGAoxRT.s:1293   .bss:0000000000000000 .LANCHOR0
     /tmp/ccGAoxRT.s:34     .text._ZN8ConsumerD2Ev:0000000000000018 .L0 
     /tmp/ccGAoxRT.s:61     .text._ZN8ProducerD2Ev:0000000000000018 .L0 
     /tmp/ccGAoxRT.s:88     .text._ZN16ProducerKeyboardD2Ev:0000000000000018 .L0 
     /tmp/ccGAoxRT.s:119    .text._ZN8ConsumerD0Ev:0000000000000028 .L0 
     /tmp/ccGAoxRT.s:150    .text._ZN8ProducerD0Ev:0000000000000028 .L0 
     /tmp/ccGAoxRT.s:181    .text._ZN16ProducerKeyboardD0Ev:0000000000000028 .L0 
     /tmp/ccGAoxRT.s:1310   .text:00000000000006b8 .L0 
     /tmp/ccGAoxRT.s:328    .text._ZN16ProducerKeyboard3runEv:000000000000002c .L0 
     /tmp/ccGAoxRT.s:451    .text._ZN8Producer3runEv:000000000000002c .L0 
     /tmp/ccGAoxRT.s:631    .text._ZN8Consumer3runEv:000000000000002c .L0 
     /tmp/ccGAoxRT.s:258    .text:000000000000007c .L0 
     /tmp/ccGAoxRT.s:365    .text:00000000000000ec .L0 
     /tmp/ccGAoxRT.s:503    .text:000000000000019c .L0 
     /tmp/ccGAoxRT.s:633    .rodata.str1.8:0000000000000000 .LC0
     /tmp/ccGAoxRT.s:695    .text:0000000000000280 .L0 
     /tmp/ccGAoxRT.s:636    .rodata.str1.8:0000000000000020 .LC1
     /tmp/ccGAoxRT.s:715    .text:00000000000002b4 .L0 
     /tmp/ccGAoxRT.s:639    .rodata.str1.8:0000000000000040 .LC2
     /tmp/ccGAoxRT.s:733    .text:00000000000002e4 .L0 
     /tmp/ccGAoxRT.s:642    .rodata.str1.8:0000000000000058 .LC3
     /tmp/ccGAoxRT.s:745    .text:0000000000000308 .L0 
     /tmp/ccGAoxRT.s:645    .rodata.str1.8:0000000000000070 .LC4
     /tmp/ccGAoxRT.s:757    .text:000000000000032c .L0 
     /tmp/ccGAoxRT.s:648    .rodata.str1.8:0000000000000078 .LC5
     /tmp/ccGAoxRT.s:780    .text:0000000000000364 .L0 
     /tmp/ccGAoxRT.s:651    .rodata.str1.8:00000000000000b8 .LC6
     /tmp/ccGAoxRT.s:789    .text:0000000000000378 .L0 
     /tmp/ccGAoxRT.s:812    .text:00000000000003ac .L0 
     /tmp/ccGAoxRT.s:874    .text:0000000000000430 .L0 
GAS LISTING /tmp/ccGAoxRT.s 			page 41


     /tmp/ccGAoxRT.s:895    .text:0000000000000454 .L0 
     /tmp/ccGAoxRT.s:932    .text:00000000000004a4 .L0 
     /tmp/ccGAoxRT.s:984    .text:0000000000000508 .L0 
     /tmp/ccGAoxRT.s:1011   .text:0000000000000538 .L0 
     /tmp/ccGAoxRT.s:1061   .text:0000000000000594 .L0 
     /tmp/ccGAoxRT.s:219    .text:0000000000000034 .L14
     /tmp/ccGAoxRT.s:254    .text:0000000000000078 .L15
     /tmp/ccGAoxRT.s:214    .text:000000000000002c .L18
     /tmp/ccGAoxRT.s:362    .text:00000000000000ec .L22
     /tmp/ccGAoxRT.s:393    .text:0000000000000130 .L23
     /tmp/ccGAoxRT.s:357    .text:00000000000000e4 .L26
     /tmp/ccGAoxRT.s:499    .text:000000000000019c .L30
     /tmp/ccGAoxRT.s:532    .text:00000000000001dc .L32
     /tmp/ccGAoxRT.s:557    .text:0000000000000208 .L31
     /tmp/ccGAoxRT.s:485    .text:0000000000000184 .L36
     /tmp/ccGAoxRT.s:493    .text:0000000000000190 .L37
     /tmp/ccGAoxRT.s:541    .text:00000000000001ec .L38
     /tmp/ccGAoxRT.s:777    .text:0000000000000364 .L69
     /tmp/ccGAoxRT.s:786    .text:0000000000000378 .L70
     /tmp/ccGAoxRT.s:796    .text:0000000000000390 .L71
     /tmp/ccGAoxRT.s:793    .text:0000000000000388 .L43
     /tmp/ccGAoxRT.s:1083   .text:00000000000005cc .L41
     /tmp/ccGAoxRT.s:917    .text:0000000000000488 .L48
     /tmp/ccGAoxRT.s:995    .text:0000000000000528 .L45
     /tmp/ccGAoxRT.s:959    .text:00000000000004e0 .L46
     /tmp/ccGAoxRT.s:891    .text:0000000000000454 .L72
     /tmp/ccGAoxRT.s:905    .text:0000000000000470 .L47
     /tmp/ccGAoxRT.s:1019   .text:0000000000000550 .L62
     /tmp/ccGAoxRT.s:1006   .text:0000000000000534 .L50
     /tmp/ccGAoxRT.s:1031   .text:000000000000055c .L49
     /tmp/ccGAoxRT.s:1047   .text:0000000000000580 .L51
     /tmp/ccGAoxRT.s:1027   .text:0000000000000558 .L52
     /tmp/ccGAoxRT.s:1058   .text:0000000000000594 .L53
     /tmp/ccGAoxRT.s:1069   .text:00000000000005ac .L54
     /tmp/ccGAoxRT.s:1080   .text:00000000000005c8 .L55
     /tmp/ccGAoxRT.s:696    .text:0000000000000288 .LEHB0
     /tmp/ccGAoxRT.s:658    .text:0000000000000248 .LFB20
     /tmp/ccGAoxRT.s:769    .text:0000000000000350 .LEHE0
     /tmp/ccGAoxRT.s:772    .text:0000000000000358 .LEHB1
     /tmp/ccGAoxRT.s:775    .text:0000000000000360 .LEHE1
     /tmp/ccGAoxRT.s:1115   .text:0000000000000604 .L63
     /tmp/ccGAoxRT.s:781    .text:000000000000036c .LEHB2
     /tmp/ccGAoxRT.s:803    .text:000000000000039c .LEHE2
     /tmp/ccGAoxRT.s:807    .text:00000000000003a4 .LEHB3
     /tmp/ccGAoxRT.s:810    .text:00000000000003ac .LEHE3
     /tmp/ccGAoxRT.s:1126   .text:0000000000000620 .L64
     /tmp/ccGAoxRT.s:855    .text:0000000000000410 .LEHB4
     /tmp/ccGAoxRT.s:858    .text:0000000000000418 .LEHE4
     /tmp/ccGAoxRT.s:866    .text:0000000000000428 .LEHB5
     /tmp/ccGAoxRT.s:872    .text:0000000000000430 .LEHE5
     /tmp/ccGAoxRT.s:1136   .text:000000000000063c .L65
     /tmp/ccGAoxRT.s:883    .text:0000000000000444 .LEHB6
     /tmp/ccGAoxRT.s:941    .text:00000000000004c0 .LEHE6
     /tmp/ccGAoxRT.s:950    .text:00000000000004d4 .LEHB7
     /tmp/ccGAoxRT.s:956    .text:00000000000004dc .LEHE7
     /tmp/ccGAoxRT.s:1146   .text:0000000000000658 .L66
     /tmp/ccGAoxRT.s:965    .text:00000000000004e4 .LEHB8
GAS LISTING /tmp/ccGAoxRT.s 			page 42


     /tmp/ccGAoxRT.s:968    .text:00000000000004ec .LEHE8
     /tmp/ccGAoxRT.s:977    .text:0000000000000500 .LEHB9
     /tmp/ccGAoxRT.s:983    .text:0000000000000508 .LEHE9
     /tmp/ccGAoxRT.s:1157   .text:0000000000000674 .L67
     /tmp/ccGAoxRT.s:998    .text:0000000000000528 .LEHB10
     /tmp/ccGAoxRT.s:1167   .text:0000000000000690 .LEHE10
     /tmp/ccGAoxRT.s:3504   .debug_abbrev:0000000000000000 .Ldebug_abbrev0
     /tmp/ccGAoxRT.s:5629   .debug_str:0000000000000741 .LASF133
     /tmp/ccGAoxRT.s:5431   .debug_str:000000000000014a .LASF134
     /tmp/ccGAoxRT.s:5565   .debug_str:0000000000000525 .LASF135
     /tmp/ccGAoxRT.s:5343   .debug_ranges:0000000000000000 .Ldebug_ranges0
     /tmp/ccGAoxRT.s:5385   .debug_line:0000000000000000 .Ldebug_line0
     /tmp/ccGAoxRT.s:5543   .debug_str:000000000000049b .LASF0
     /tmp/ccGAoxRT.s:5563   .debug_str:0000000000000512 .LASF1
     /tmp/ccGAoxRT.s:5527   .debug_str:0000000000000426 .LASF2
     /tmp/ccGAoxRT.s:5501   .debug_str:000000000000037e .LASF4
     /tmp/ccGAoxRT.s:5611   .debug_str:00000000000006bb .LASF3
     /tmp/ccGAoxRT.s:5417   .debug_str:00000000000000da .LASF5
     /tmp/ccGAoxRT.s:5569   .debug_str:000000000000055b .LASF6
     /tmp/ccGAoxRT.s:5541   .debug_str:0000000000000488 .LASF7
     /tmp/ccGAoxRT.s:5647   .debug_str:0000000000000888 .LASF8
     /tmp/ccGAoxRT.s:5483   .debug_str:00000000000002c4 .LASF9
     /tmp/ccGAoxRT.s:5583   .debug_str:00000000000005c0 .LASF10
     /tmp/ccGAoxRT.s:5633   .debug_str:000000000000080f .LASF11
     /tmp/ccGAoxRT.s:5423   .debug_str:000000000000010b .LASF12
     /tmp/ccGAoxRT.s:5395   .debug_str:0000000000000038 .LASF13
     /tmp/ccGAoxRT.s:5437   .debug_str:0000000000000178 .LASF14
     /tmp/ccGAoxRT.s:5603   .debug_str:0000000000000662 .LASF15
     /tmp/ccGAoxRT.s:5445   .debug_str:00000000000001b0 .LASF16
     /tmp/ccGAoxRT.s:5397   .debug_str:0000000000000048 .LASF17
     /tmp/ccGAoxRT.s:5469   .debug_str:000000000000024f .LASF18
     /tmp/ccGAoxRT.s:5391   .debug_str:0000000000000013 .LASF19
     /tmp/ccGAoxRT.s:5443   .debug_str:00000000000001a5 .LASF20
     /tmp/ccGAoxRT.s:5441   .debug_str:0000000000000196 .LASF21
     /tmp/ccGAoxRT.s:5643   .debug_str:0000000000000869 .LASF22
     /tmp/ccGAoxRT.s:5571   .debug_str:000000000000056e .LASF23
     /tmp/ccGAoxRT.s:5615   .debug_str:00000000000006d7 .LASF24
     /tmp/ccGAoxRT.s:5665   .debug_str:000000000000091d .LASF25
     /tmp/ccGAoxRT.s:5535   .debug_str:0000000000000454 .LASF26
     /tmp/ccGAoxRT.s:5655   .debug_str:00000000000008cd .LASF27
     /tmp/ccGAoxRT.s:5467   .debug_str:0000000000000242 .LASF28
     /tmp/ccGAoxRT.s:5679   .debug_str:0000000000000998 .LASF29
     /tmp/ccGAoxRT.s:5627   .debug_str:0000000000000736 .LASF30
     /tmp/ccGAoxRT.s:5551   .debug_str:00000000000004cc .LASF31
     /tmp/ccGAoxRT.s:5549   .debug_str:00000000000004bb .LASF32
     /tmp/ccGAoxRT.s:5387   .debug_str:0000000000000000 .LASF33
     /tmp/ccGAoxRT.s:5495   .debug_str:000000000000034c .LASF35
     /tmp/ccGAoxRT.s:5457   .debug_str:000000000000020f .LASF132
     /tmp/ccGAoxRT.s:5433   .debug_str:000000000000015c .LASF136
     /tmp/ccGAoxRT.s:5531   .debug_str:000000000000043d .LASF55
     /tmp/ccGAoxRT.s:5653   .debug_str:00000000000008ba .LASF70
     /tmp/ccGAoxRT.s:5573   .debug_str:000000000000057e .LASF34
     /tmp/ccGAoxRT.s:5599   .debug_str:0000000000000651 .LASF36
     /tmp/ccGAoxRT.s:5601   .debug_str:000000000000065b .LASF37
     /tmp/ccGAoxRT.s:5451   .debug_str:00000000000001f1 .LASF38
     /tmp/ccGAoxRT.s:5523   .debug_str:0000000000000414 .LASF39
     /tmp/ccGAoxRT.s:5459   .debug_str:0000000000000214 .LASF40
GAS LISTING /tmp/ccGAoxRT.s 			page 43


     /tmp/ccGAoxRT.s:5487   .debug_str:00000000000002d8 .LASF41
     /tmp/ccGAoxRT.s:5521   .debug_str:000000000000040a .LASF42
     /tmp/ccGAoxRT.s:5547   .debug_str:00000000000004b1 .LASF43
     /tmp/ccGAoxRT.s:5439   .debug_str:0000000000000184 .LASF45
     /tmp/ccGAoxRT.s:5515   .debug_str:00000000000003df .LASF44
     /tmp/ccGAoxRT.s:5651   .debug_str:00000000000008a8 .LASF46
     /tmp/ccGAoxRT.s:5489   .debug_str:00000000000002e6 .LASF137
     /tmp/ccGAoxRT.s:5419   .debug_str:00000000000000e1 .LASF138
     /tmp/ccGAoxRT.s:5413   .debug_str:00000000000000bc .LASF47
     /tmp/ccGAoxRT.s:5415   .debug_str:00000000000000c3 .LASF48
     /tmp/ccGAoxRT.s:5389   .debug_str:0000000000000009 .LASF139
     /tmp/ccGAoxRT.s:5635   .debug_str:000000000000081e .LASF49
     /tmp/ccGAoxRT.s:5465   .debug_str:000000000000023d .LASF51
     /tmp/ccGAoxRT.s:5597   .debug_str:000000000000063a .LASF50
     /tmp/ccGAoxRT.s:5575   .debug_str:0000000000000583 .LASF52
     /tmp/ccGAoxRT.s:5473   .debug_str:0000000000000274 .LASF53
     /tmp/ccGAoxRT.s:5481   .debug_str:00000000000002b8 .LASF140
     /tmp/ccGAoxRT.s:5503   .debug_str:0000000000000385 .LASF54
     /tmp/ccGAoxRT.s:5425   .debug_str:000000000000011b .LASF56
     /tmp/ccGAoxRT.s:5479   .debug_str:00000000000002a5 .LASF57
     /tmp/ccGAoxRT.s:5505   .debug_str:000000000000038f .LASF58
     /tmp/ccGAoxRT.s:5427   .debug_str:0000000000000124 .LASF60
     /tmp/ccGAoxRT.s:5671   .debug_str:0000000000000947 .LASF77
     /tmp/ccGAoxRT.s:5475   .debug_str:000000000000027f .LASF59
     /tmp/ccGAoxRT.s:5645   .debug_str:0000000000000875 .LASF67
     /tmp/ccGAoxRT.s:5553   .debug_str:00000000000004d7 .LASF61
     /tmp/ccGAoxRT.s:5447   .debug_str:00000000000001c6 .LASF82
     /tmp/ccGAoxRT.s:5641   .debug_str:0000000000000862 .LASF62
     /tmp/ccGAoxRT.s:5533   .debug_str:0000000000000442 .LASF63
     /tmp/ccGAoxRT.s:5525   .debug_str:0000000000000419 .LASF141
     /tmp/ccGAoxRT.s:5587   .debug_str:00000000000005e3 .LASF64
     /tmp/ccGAoxRT.s:5507   .debug_str:00000000000003a3 .LASF142
     /tmp/ccGAoxRT.s:5555   .debug_str:00000000000004e1 .LASF143
     /tmp/ccGAoxRT.s:5561   .debug_str:000000000000050c .LASF65
     /tmp/ccGAoxRT.s:5661   .debug_str:00000000000008fa .LASF102
     /tmp/ccGAoxRT.s:5545   .debug_str:00000000000004a8 .LASF144
     /tmp/ccGAoxRT.s:5421   .debug_str:00000000000000f5 .LASF145
     /tmp/ccGAoxRT.s:5595   .debug_str:000000000000062b .LASF66
     /tmp/ccGAoxRT.s:5621   .debug_str:000000000000070b .LASF68
     /tmp/ccGAoxRT.s:5667   .debug_str:0000000000000929 .LASF69
     /tmp/ccGAoxRT.s:5411   .debug_str:00000000000000a2 .LASF71
     /tmp/ccGAoxRT.s:5677   .debug_str:000000000000098f .LASF72
     /tmp/ccGAoxRT.s:5559   .debug_str:0000000000000503 .LASF73
     /tmp/ccGAoxRT.s:5637   .debug_str:0000000000000833 .LASF74
     /tmp/ccGAoxRT.s:5585   .debug_str:00000000000005cf .LASF75
     /tmp/ccGAoxRT.s:5529   .debug_str:0000000000000434 .LASF76
     /tmp/ccGAoxRT.s:5619   .debug_str:00000000000006f2 .LASF78
     /tmp/ccGAoxRT.s:5499   .debug_str:0000000000000360 .LASF79
     /tmp/ccGAoxRT.s:5657   .debug_str:00000000000008da .LASF80
     /tmp/ccGAoxRT.s:5409   .debug_str:0000000000000098 .LASF81
     /tmp/ccGAoxRT.s:5625   .debug_str:0000000000000725 .LASF83
     /tmp/ccGAoxRT.s:5673   .debug_str:0000000000000960 .LASF84
     /tmp/ccGAoxRT.s:5567   .debug_str:000000000000053f .LASF85
     /tmp/ccGAoxRT.s:5429   .debug_str:000000000000012d .LASF86
     /tmp/ccGAoxRT.s:5577   .debug_str:000000000000058a .LASF87
     /tmp/ccGAoxRT.s:5493   .debug_str:0000000000000321 .LASF88
     /tmp/ccGAoxRT.s:5491   .debug_str:00000000000002fa .LASF89
GAS LISTING /tmp/ccGAoxRT.s 			page 44


     /tmp/ccGAoxRT.s:5639   .debug_str:0000000000000846 .LASF90
     /tmp/ccGAoxRT.s:5399   .debug_str:0000000000000054 .LASF91
     /tmp/ccGAoxRT.s:5449   .debug_str:00000000000001d7 .LASF92
     /tmp/ccGAoxRT.s:5649   .debug_str:0000000000000898 .LASF146
     /tmp/ccGAoxRT.s:5591   .debug_str:0000000000000621 .LASF93
     /tmp/ccGAoxRT.s:5613   .debug_str:00000000000006cd .LASF94
     /tmp/ccGAoxRT.s:5471   .debug_str:000000000000025a .LASF95
     /tmp/ccGAoxRT.s:155    .text._ZN16ProducerKeyboardD0Ev:0000000000000000 .LFB33
     /tmp/ccGAoxRT.s:179    .text._ZN16ProducerKeyboardD0Ev:0000000000000028 .LFE33
     /tmp/ccGAoxRT.s:4693   .debug_loc:0000000000000000 .LLST2
     /tmp/ccGAoxRT.s:169    .text._ZN16ProducerKeyboardD0Ev:0000000000000018 .LVL8
     /tmp/ccGAoxRT.s:5537   .debug_str:000000000000045f .LASF96
     /tmp/ccGAoxRT.s:66     .text._ZN16ProducerKeyboardD2Ev:0000000000000000 .LFB31
     /tmp/ccGAoxRT.s:84     .text._ZN16ProducerKeyboardD2Ev:0000000000000018 .LFE31
     /tmp/ccGAoxRT.s:5463   .debug_str:000000000000022c .LASF97
     /tmp/ccGAoxRT.s:124    .text._ZN8ProducerD0Ev:0000000000000000 .LFB29
     /tmp/ccGAoxRT.s:148    .text._ZN8ProducerD0Ev:0000000000000028 .LFE29
     /tmp/ccGAoxRT.s:4707   .debug_loc:0000000000000039 .LLST1
     /tmp/ccGAoxRT.s:138    .text._ZN8ProducerD0Ev:0000000000000018 .LVL6
     /tmp/ccGAoxRT.s:5401   .debug_str:0000000000000066 .LASF98
     /tmp/ccGAoxRT.s:39     .text._ZN8ProducerD2Ev:0000000000000000 .LFB27
     /tmp/ccGAoxRT.s:57     .text._ZN8ProducerD2Ev:0000000000000018 .LFE27
     /tmp/ccGAoxRT.s:5609   .debug_str:00000000000006aa .LASF99
     /tmp/ccGAoxRT.s:93     .text._ZN8ConsumerD0Ev:0000000000000000 .LFB25
     /tmp/ccGAoxRT.s:117    .text._ZN8ConsumerD0Ev:0000000000000028 .LFE25
     /tmp/ccGAoxRT.s:4721   .debug_loc:0000000000000072 .LLST0
     /tmp/ccGAoxRT.s:107    .text._ZN8ConsumerD0Ev:0000000000000018 .LVL4
     /tmp/ccGAoxRT.s:5517   .debug_str:00000000000003ea .LASF100
     /tmp/ccGAoxRT.s:11     .text._ZN8ConsumerD2Ev:0000000000000000 .LFB23
     /tmp/ccGAoxRT.s:30     .text._ZN8ConsumerD2Ev:0000000000000018 .LFE23
     /tmp/ccGAoxRT.s:5461   .debug_str:0000000000000223 .LASF101
     /tmp/ccGAoxRT.s:5509   .debug_str:00000000000003ab .LASF103
     /tmp/ccGAoxRT.s:1228   .text:0000000000000690 .LFB21
     /tmp/ccGAoxRT.s:1254   .text:00000000000006b8 .LFE21
     /tmp/ccGAoxRT.s:1243   .text:00000000000006a8 .LVL134
     /tmp/ccGAoxRT.s:5511   .debug_str:00000000000003b8 .LASF104
     /tmp/ccGAoxRT.s:5607   .debug_str:0000000000000687 .LASF105
     /tmp/ccGAoxRT.s:1170   .text:0000000000000690 .LFE20
     /tmp/ccGAoxRT.s:5407   .debug_str:0000000000000092 .LASF106
     /tmp/ccGAoxRT.s:4735   .debug_loc:00000000000000ab .LLST25
     /tmp/ccGAoxRT.s:5631   .debug_str:0000000000000805 .LASF107
     /tmp/ccGAoxRT.s:4746   .debug_loc:00000000000000e1 .LLST26
     /tmp/ccGAoxRT.s:4761   .debug_loc:000000000000012a .LLST27
     /tmp/ccGAoxRT.s:5477   .debug_str:000000000000029d .LASF108
     /tmp/ccGAoxRT.s:4772   .debug_loc:0000000000000160 .LLST28
     /tmp/ccGAoxRT.s:5519   .debug_str:00000000000003fb .LASF109
     /tmp/ccGAoxRT.s:4790   .debug_loc:00000000000001ac .LLST29
     /tmp/ccGAoxRT.s:5593   .debug_str:0000000000000626 .LASF110
     /tmp/ccGAoxRT.s:4801   .debug_loc:00000000000001e2 .LLST30
     /tmp/ccGAoxRT.s:4814   .debug_loc:000000000000021a .LLST33
     /tmp/ccGAoxRT.s:892    .text:0000000000000454 .LBB47
     /tmp/ccGAoxRT.s:4829   .debug_loc:0000000000000263 .LLST34
     /tmp/ccGAoxRT.s:4844   .debug_loc:00000000000002ac .LLST35
     /tmp/ccGAoxRT.s:955    .text:00000000000004dc .LVL97
     /tmp/ccGAoxRT.s:978    .text:0000000000000500 .LBB51
     /tmp/ccGAoxRT.s:989    .text:0000000000000518 .LBE51
     /tmp/ccGAoxRT.s:4863   .debug_loc:0000000000000308 .LLST36
GAS LISTING /tmp/ccGAoxRT.s 			page 45


     /tmp/ccGAoxRT.s:4874   .debug_loc:000000000000033e .LLST37
     /tmp/ccGAoxRT.s:982    .text:0000000000000508 .LVL101
     /tmp/ccGAoxRT.s:913    .text:0000000000000484 .LVL93
     /tmp/ccGAoxRT.s:940    .text:00000000000004c0 .LVL95
     /tmp/ccGAoxRT.s:967    .text:00000000000004ec .LVL99
     /tmp/ccGAoxRT.s:1153   .text:0000000000000668 .LVL129
     /tmp/ccGAoxRT.s:1163   .text:0000000000000684 .LVL132
     /tmp/ccGAoxRT.s:1002   .text:0000000000000530 .LBB53
     /tmp/ccGAoxRT.s:1020   .text:0000000000000550 .LBE53
     /tmp/ccGAoxRT.s:4889   .debug_loc:0000000000000387 .LLST38
     /tmp/ccGAoxRT.s:1013   .text:0000000000000548 .LVL105
     /tmp/ccGAoxRT.s:1021   .text:0000000000000550 .LBB54
     /tmp/ccGAoxRT.s:1048   .text:0000000000000580 .LBE54
     /tmp/ccGAoxRT.s:4900   .debug_loc:00000000000003bd .LLST39
     /tmp/ccGAoxRT.s:4907   .debug_loc:00000000000003e0 .LLST22
     /tmp/ccGAoxRT.s:4938   .debug_loc:000000000000042a .LLST24
     /tmp/ccGAoxRT.s:867    .text:0000000000000428 .LBB44
     /tmp/ccGAoxRT.s:879    .text:0000000000000440 .LBE44
     /tmp/ccGAoxRT.s:4969   .debug_loc:0000000000000474 .LLST31
     /tmp/ccGAoxRT.s:4996   .debug_loc:00000000000004c9 .LLST32
     /tmp/ccGAoxRT.s:871    .text:0000000000000430 .LVL88
     /tmp/ccGAoxRT.s:698    .text:0000000000000290 .LVL60
     /tmp/ccGAoxRT.s:705    .text:00000000000002a4 .LVL61
     /tmp/ccGAoxRT.s:710    .text:00000000000002b0 .LVL62
     /tmp/ccGAoxRT.s:717    .text:00000000000002c4 .LVL64
     /tmp/ccGAoxRT.s:723    .text:00000000000002d4 .LVL65
     /tmp/ccGAoxRT.s:728    .text:00000000000002e0 .LVL66
     /tmp/ccGAoxRT.s:735    .text:00000000000002f4 .LVL68
     /tmp/ccGAoxRT.s:742    .text:0000000000000308 .LVL69
     /tmp/ccGAoxRT.s:747    .text:0000000000000318 .LVL70
     /tmp/ccGAoxRT.s:754    .text:000000000000032c .LVL71
     /tmp/ccGAoxRT.s:759    .text:000000000000033c .LVL72
     /tmp/ccGAoxRT.s:768    .text:0000000000000350 .LVL73
     /tmp/ccGAoxRT.s:774    .text:0000000000000360 .LVL74
     /tmp/ccGAoxRT.s:783    .text:0000000000000374 .LVL75
     /tmp/ccGAoxRT.s:791    .text:0000000000000388 .LVL76
     /tmp/ccGAoxRT.s:802    .text:000000000000039c .LVL78
     /tmp/ccGAoxRT.s:809    .text:00000000000003ac .LVL80
     /tmp/ccGAoxRT.s:857    .text:0000000000000418 .LVL86
     /tmp/ccGAoxRT.s:885    .text:000000000000044c .LVL90
     /tmp/ccGAoxRT.s:1001   .text:0000000000000530 .LVL103
     /tmp/ccGAoxRT.s:1057   .text:0000000000000594 .LVL112
     /tmp/ccGAoxRT.s:1076   .text:00000000000005bc .LVL114
     /tmp/ccGAoxRT.s:1079   .text:00000000000005c8 .LVL115
     /tmp/ccGAoxRT.s:1122   .text:0000000000000614 .LVL120
     /tmp/ccGAoxRT.s:1125   .text:0000000000000620 .LVL121
     /tmp/ccGAoxRT.s:1132   .text:0000000000000630 .LVL123
     /tmp/ccGAoxRT.s:1135   .text:000000000000063c .LVL124
     /tmp/ccGAoxRT.s:1142   .text:000000000000064c .LVL126
     /tmp/ccGAoxRT.s:1145   .text:0000000000000658 .LVL127
     /tmp/ccGAoxRT.s:1156   .text:0000000000000674 .LVL130
     /tmp/ccGAoxRT.s:1166   .text:0000000000000690 .LVL133
     /tmp/ccGAoxRT.s:456    .text:0000000000000154 .LFB19
     /tmp/ccGAoxRT.s:595    .text:0000000000000248 .LFE19
     /tmp/ccGAoxRT.s:5011   .debug_loc:0000000000000512 .LLST14
     /tmp/ccGAoxRT.s:5029   .debug_loc:000000000000055e .LLST15
     /tmp/ccGAoxRT.s:5047   .debug_loc:00000000000005aa .LLST16
GAS LISTING /tmp/ccGAoxRT.s 			page 46


     /tmp/ccGAoxRT.s:5065   .debug_loc:00000000000005f6 .LLST17
     /tmp/ccGAoxRT.s:5089   .debug_loc:0000000000000666 .LLST18
     /tmp/ccGAoxRT.s:490    .text:000000000000018c .LVL42
     /tmp/ccGAoxRT.s:498    .text:000000000000019c .LVL44
     /tmp/ccGAoxRT.s:510    .text:00000000000001b4 .LVL45
     /tmp/ccGAoxRT.s:521    .text:00000000000001c8 .LVL48
     /tmp/ccGAoxRT.s:543    .text:00000000000001ec .LBB43
     /tmp/ccGAoxRT.s:558    .text:0000000000000208 .LBE43
     /tmp/ccGAoxRT.s:5096   .debug_loc:0000000000000689 .LLST19
     /tmp/ccGAoxRT.s:550    .text:00000000000001fc .LVL50
     /tmp/ccGAoxRT.s:556    .text:0000000000000208 .LVL52
     /tmp/ccGAoxRT.s:566    .text:0000000000000218 .LVL53
     /tmp/ccGAoxRT.s:573    .text:0000000000000228 .LVL54
     /tmp/ccGAoxRT.s:602    .text._ZN8Consumer3runEv:0000000000000000 .LFB18
     /tmp/ccGAoxRT.s:629    .text._ZN8Consumer3runEv:000000000000002c .LFE18
     /tmp/ccGAoxRT.s:5103   .debug_loc:00000000000006ac .LLST20
     /tmp/ccGAoxRT.s:618    .text._ZN8Consumer3runEv:000000000000001c .LVL59
     /tmp/ccGAoxRT.s:5675   .debug_str:0000000000000971 .LASF111
     /tmp/ccGAoxRT.s:333    .text:00000000000000c0 .LFB14
     /tmp/ccGAoxRT.s:415    .text:0000000000000154 .LFE14
     /tmp/ccGAoxRT.s:5117   .debug_loc:00000000000006e5 .LLST9
     /tmp/ccGAoxRT.s:5131   .debug_loc:000000000000071e .LLST10
     /tmp/ccGAoxRT.s:5149   .debug_loc:000000000000076a .LLST11
     /tmp/ccGAoxRT.s:5167   .debug_loc:00000000000007b6 .LLST12
     /tmp/ccGAoxRT.s:361    .text:00000000000000ec .LVL30
     /tmp/ccGAoxRT.s:374    .text:000000000000010c .LVL31
     /tmp/ccGAoxRT.s:398    .text:000000000000013c .LVL34
     /tmp/ccGAoxRT.s:422    .text._ZN8Producer3runEv:0000000000000000 .LFB13
     /tmp/ccGAoxRT.s:449    .text._ZN8Producer3runEv:000000000000002c .LFE13
     /tmp/ccGAoxRT.s:5191   .debug_loc:0000000000000826 .LLST13
     /tmp/ccGAoxRT.s:438    .text._ZN8Producer3runEv:000000000000001c .LVL38
     /tmp/ccGAoxRT.s:5581   .debug_str:00000000000005a2 .LASF112
     /tmp/ccGAoxRT.s:186    .text:0000000000000000 .LFB9
     /tmp/ccGAoxRT.s:292    .text:00000000000000c0 .LFE9
     /tmp/ccGAoxRT.s:5205   .debug_loc:000000000000085f .LLST3
     /tmp/ccGAoxRT.s:5223   .debug_loc:00000000000008ab .LLST4
     /tmp/ccGAoxRT.s:5241   .debug_loc:00000000000008f7 .LLST5
     /tmp/ccGAoxRT.s:5259   .debug_loc:0000000000000943 .LLST6
     /tmp/ccGAoxRT.s:5274   .debug_loc:000000000000098c .LLST7
     /tmp/ccGAoxRT.s:218    .text:0000000000000034 .LVL12
     /tmp/ccGAoxRT.s:224    .text:000000000000003c .LVL13
     /tmp/ccGAoxRT.s:235    .text:0000000000000054 .LVL15
     /tmp/ccGAoxRT.s:267    .text:0000000000000098 .LVL20
     /tmp/ccGAoxRT.s:272    .text:00000000000000a4 .LVL21
     /tmp/ccGAoxRT.s:299    .text._ZN16ProducerKeyboard3runEv:0000000000000000 .LFB8
     /tmp/ccGAoxRT.s:326    .text._ZN16ProducerKeyboard3runEv:000000000000002c .LFE8
     /tmp/ccGAoxRT.s:5298   .debug_loc:00000000000009fc .LLST8
     /tmp/ccGAoxRT.s:315    .text._ZN16ProducerKeyboard3runEv:000000000000001c .LVL26
     /tmp/ccGAoxRT.s:5589   .debug_str:00000000000005fa .LASF113
     /tmp/ccGAoxRT.s:5405   .debug_str:0000000000000083 .LASF114
     /tmp/ccGAoxRT.s:5455   .debug_str:0000000000000200 .LASF115
     /tmp/ccGAoxRT.s:5579   .debug_str:000000000000059b .LASF116
     /tmp/ccGAoxRT.s:5617   .debug_str:00000000000006e2 .LASF118
     /tmp/ccGAoxRT.s:5485   .debug_str:00000000000002d2 .LASF117
     /tmp/ccGAoxRT.s:5659   .debug_str:00000000000008ed .LASF119
     /tmp/ccGAoxRT.s:5669   .debug_str:0000000000000934 .LASF120
     /tmp/ccGAoxRT.s:5403   .debug_str:0000000000000077 .LASF121
GAS LISTING /tmp/ccGAoxRT.s 			page 47


     /tmp/ccGAoxRT.s:5663   .debug_str:000000000000090d .LASF122
     /tmp/ccGAoxRT.s:5453   .debug_str:00000000000001f6 .LASF123
     /tmp/ccGAoxRT.s:5557   .debug_str:00000000000004f0 .LASF124
     /tmp/ccGAoxRT.s:5497   .debug_str:0000000000000354 .LASF125
     /tmp/ccGAoxRT.s:5539   .debug_str:0000000000000479 .LASF126
     /tmp/ccGAoxRT.s:5435   .debug_str:000000000000016f .LASF127
     /tmp/ccGAoxRT.s:5605   .debug_str:0000000000000678 .LASF128
     /tmp/ccGAoxRT.s:5393   .debug_str:0000000000000020 .LASF129
     /tmp/ccGAoxRT.s:5623   .debug_str:000000000000071c .LASF130
     /tmp/ccGAoxRT.s:5513   .debug_str:00000000000003d6 .LASF131
     /tmp/ccGAoxRT.s:158    .text._ZN16ProducerKeyboardD0Ev:0000000000000000 .LVL7
     /tmp/ccGAoxRT.s:127    .text._ZN8ProducerD0Ev:0000000000000000 .LVL5
     /tmp/ccGAoxRT.s:96     .text._ZN8ConsumerD0Ev:0000000000000000 .LVL3
     /tmp/ccGAoxRT.s:730    .text:00000000000002e4 .LVL67
     /tmp/ccGAoxRT.s:805    .text:00000000000003a0 .LVL79
     /tmp/ccGAoxRT.s:1114   .text:0000000000000604 .LVL118
     /tmp/ccGAoxRT.s:1118   .text:0000000000000608 .LVL119
     /tmp/ccGAoxRT.s:712    .text:00000000000002b4 .LVL63
     /tmp/ccGAoxRT.s:1096   .text:00000000000005e0 .LVL117
     /tmp/ccGAoxRT.s:1128   .text:0000000000000624 .LVL122
     /tmp/ccGAoxRT.s:797    .text:0000000000000390 .LVL77
     /tmp/ccGAoxRT.s:1082   .text:00000000000005cc .LVL116
     /tmp/ccGAoxRT.s:822    .text:00000000000003cc .LVL82
     /tmp/ccGAoxRT.s:835    .text:00000000000003e8 .LVL84
     /tmp/ccGAoxRT.s:877    .text:0000000000000440 .LVL89
     /tmp/ccGAoxRT.s:837    .text:00000000000003ec .LVL85
     /tmp/ccGAoxRT.s:890    .text:0000000000000454 .LVL91
     /tmp/ccGAoxRT.s:1005   .text:0000000000000534 .LVL104
     /tmp/ccGAoxRT.s:1148   .text:000000000000065c .LVL128
     /tmp/ccGAoxRT.s:1159   .text:0000000000000678 .LVL131
     /tmp/ccGAoxRT.s:898    .text:0000000000000464 .LVL92
     /tmp/ccGAoxRT.s:949    .text:00000000000004d4 .LVL96
     /tmp/ccGAoxRT.s:958    .text:00000000000004e0 .LVL98
     /tmp/ccGAoxRT.s:976    .text:0000000000000500 .LVL100
     /tmp/ccGAoxRT.s:987    .text:0000000000000518 .LVL102
     /tmp/ccGAoxRT.s:1016   .text:000000000000054c .LVL106
     /tmp/ccGAoxRT.s:1018   .text:0000000000000550 .LVL107
     /tmp/ccGAoxRT.s:1024   .text:0000000000000554 .LVL108
     /tmp/ccGAoxRT.s:1026   .text:0000000000000558 .LVL109
     /tmp/ccGAoxRT.s:815    .text:00000000000003b8 .LVL81
     /tmp/ccGAoxRT.s:827    .text:00000000000003d0 .LVL83
     /tmp/ccGAoxRT.s:865    .text:0000000000000428 .LVL87
     /tmp/ccGAoxRT.s:1138   .text:0000000000000640 .LVL125
     /tmp/ccGAoxRT.s:459    .text:0000000000000154 .LVL39
     /tmp/ccGAoxRT.s:484    .text:0000000000000184 .LVL41
     /tmp/ccGAoxRT.s:587    .text:000000000000023c .LVL56
     /tmp/ccGAoxRT.s:584    .text:0000000000000238 .LVL55
     /tmp/ccGAoxRT.s:479    .text:000000000000017c .LVL40
     /tmp/ccGAoxRT.s:492    .text:0000000000000190 .LVL43
     /tmp/ccGAoxRT.s:515    .text:00000000000001bc .LVL46
     /tmp/ccGAoxRT.s:537    .text:00000000000001e4 .LVL49
     /tmp/ccGAoxRT.s:590    .text:0000000000000240 .LVL57
     /tmp/ccGAoxRT.s:519    .text:00000000000001c0 .LVL47
     /tmp/ccGAoxRT.s:554    .text:0000000000000200 .LVL51
     /tmp/ccGAoxRT.s:605    .text._ZN8Consumer3runEv:0000000000000000 .LVL58
     /tmp/ccGAoxRT.s:336    .text:00000000000000c0 .LVL27
     /tmp/ccGAoxRT.s:356    .text:00000000000000e4 .LVL29
GAS LISTING /tmp/ccGAoxRT.s 			page 48


     /tmp/ccGAoxRT.s:407    .text:0000000000000148 .LVL35
     /tmp/ccGAoxRT.s:351    .text:00000000000000dc .LVL28
     /tmp/ccGAoxRT.s:379    .text:0000000000000114 .LVL32
     /tmp/ccGAoxRT.s:392    .text:0000000000000130 .LVL33
     /tmp/ccGAoxRT.s:410    .text:000000000000014c .LVL36
     /tmp/ccGAoxRT.s:425    .text._ZN8Producer3runEv:0000000000000000 .LVL37
     /tmp/ccGAoxRT.s:189    .text:0000000000000000 .LVL9
     /tmp/ccGAoxRT.s:213    .text:000000000000002c .LVL11
     /tmp/ccGAoxRT.s:287    .text:00000000000000b8 .LVL24
     /tmp/ccGAoxRT.s:281    .text:00000000000000b0 .LVL22
     /tmp/ccGAoxRT.s:207    .text:0000000000000024 .LVL10
     /tmp/ccGAoxRT.s:227    .text:0000000000000040 .LVL14
     /tmp/ccGAoxRT.s:253    .text:0000000000000078 .LVL17
     /tmp/ccGAoxRT.s:263    .text:000000000000008c .LVL18
     /tmp/ccGAoxRT.s:265    .text:0000000000000090 .LVL19
     /tmp/ccGAoxRT.s:240    .text:000000000000005c .LVL16
     /tmp/ccGAoxRT.s:284    .text:00000000000000b4 .LVL23
     /tmp/ccGAoxRT.s:302    .text._ZN16ProducerKeyboard3runEv:0000000000000000 .LVL25
     /tmp/ccGAoxRT.s:1311   .debug_info:0000000000000000 .Ldebug_info0
     /tmp/ccGAoxRT.s:5      .text:0000000000000000 .Ltext0
     /tmp/ccGAoxRT.s:1304   .text:00000000000006b8 .Letext0
     /tmp/ccGAoxRT.s:486    .text:0000000000000184 .LBB41
     /tmp/ccGAoxRT.s:500    .text:000000000000019c .LBE41
     /tmp/ccGAoxRT.s:505    .text:00000000000001a8 .LBB42
     /tmp/ccGAoxRT.s:542    .text:00000000000001ec .LBE42
     /tmp/ccGAoxRT.s:886    .text:000000000000044c .LBB46
     /tmp/ccGAoxRT.s:996    .text:0000000000000528 .LBE46
     /tmp/ccGAoxRT.s:1149   .text:000000000000065c .LBB55
     /tmp/ccGAoxRT.s:1168   .text:0000000000000690 .LBE55
     /tmp/ccGAoxRT.s:900    .text:0000000000000464 .LBE47
     /tmp/ccGAoxRT.s:951    .text:00000000000004d4 .LBB50
     /tmp/ccGAoxRT.s:961    .text:00000000000004e0 .LBE50
     /tmp/ccGAoxRT.s:1173   .gcc_except_table:0000000000000000 .LLSDA20
                           .group:0000000000000000 _ZN8ConsumerD5Ev
                           .group:0000000000000000 _ZN8ProducerD5Ev
                           .group:0000000000000000 _ZN16ProducerKeyboardD5Ev

UNDEFINED SYMBOLS
_ZdlPv
_ZN6Thread8dispatchEv
_Z4getcv
_ZN9BufferCPP3putEi
_ZN9Semaphore6signalEv
_Z4putcc
_ZN9BufferCPP3getEv
_ZN7Console4putcEc
_ZN9BufferCPP6getCntEv
_Z11printStringPKc
_Z9getStringPci
_Z11stringToIntPKc
_Z8printIntiii
_Znwm
_ZN9BufferCPPC1Ei
_ZN9SemaphoreC1Ej
_ZN6ThreadC2Ev
_ZN6Thread5startEv
_ZN9Semaphore4waitEv
GAS LISTING /tmp/ccGAoxRT.s 			page 49


_ZN9BufferCPPD1Ev
_Unwind_Resume
__gxx_personality_v0
