GAS LISTING /tmp/ccdrhIDd.s 			page 1


   1              		.file	"userMain.cpp"
   2              		.option pic
   3              		.option norelax
   4              		.text
   5              	.Ltext0:
   6              		.align	2
   7              		.globl	_Z16producerKeyboardPv
   9              	_Z16producerKeyboardPv:
  10              	.LFB0:
  11              		.file 1 "test/../test/ConsumerProducer_C_API_test.h"
   1:test/../test/ConsumerProducer_C_API_test.h **** //
   2:test/../test/ConsumerProducer_C_API_test.h **** // Created by os on 4/17/22.
   3:test/../test/ConsumerProducer_C_API_test.h **** //
   4:test/../test/ConsumerProducer_C_API_test.h **** 
   5:test/../test/ConsumerProducer_C_API_test.h **** #ifndef XV6_CONSUMERPRODUCER_C_API_TEST_H
   6:test/../test/ConsumerProducer_C_API_test.h **** #define XV6_CONSUMERPRODUCER_C_API_TEST_H
   7:test/../test/ConsumerProducer_C_API_test.h **** 
   8:test/../test/ConsumerProducer_C_API_test.h **** #include "../h/syscall_c.h"
   9:test/../test/ConsumerProducer_C_API_test.h **** #include "../lib/console.h"
  10:test/../test/ConsumerProducer_C_API_test.h **** 
  11:test/../test/ConsumerProducer_C_API_test.h **** #include "buffer.hpp"
  12:test/../test/ConsumerProducer_C_API_test.h **** 
  13:test/../test/ConsumerProducer_C_API_test.h **** sem_t waitForAll;
  14:test/../test/ConsumerProducer_C_API_test.h **** 
  15:test/../test/ConsumerProducer_C_API_test.h **** struct thread_data {
  16:test/../test/ConsumerProducer_C_API_test.h ****     int id;
  17:test/../test/ConsumerProducer_C_API_test.h ****     Buffer *buffer;
  18:test/../test/ConsumerProducer_C_API_test.h ****     sem_t wait;
  19:test/../test/ConsumerProducer_C_API_test.h **** };
  20:test/../test/ConsumerProducer_C_API_test.h **** 
  21:test/../test/ConsumerProducer_C_API_test.h **** volatile int threadEnd = 0;
  22:test/../test/ConsumerProducer_C_API_test.h **** 
  23:test/../test/ConsumerProducer_C_API_test.h **** void producerKeyboard(void *arg) {
  12              		.loc 1 23 34
  13              		.cfi_startproc
  14              	.LVL0:
  15 0000 130101FE 		addi	sp,sp,-32
  16              		.cfi_def_cfa_offset 32
  17 0004 233C1100 		sd	ra,24(sp)
  18 0008 23388100 		sd	s0,16(sp)
  19 000c 23349100 		sd	s1,8(sp)
  20 0010 23302101 		sd	s2,0(sp)
  21              		.cfi_offset 1, -8
  22              		.cfi_offset 8, -16
  23              		.cfi_offset 9, -24
  24              		.cfi_offset 18, -32
  25 0014 13040102 		addi	s0,sp,32
  26              		.cfi_def_cfa 8, 0
  27 0018 93040500 		mv	s1,a0
  24:test/../test/ConsumerProducer_C_API_test.h ****     struct thread_data *data = (struct thread_data *) arg;
  28              		.loc 1 24 5
  29              	.LVL1:
  25:test/../test/ConsumerProducer_C_API_test.h **** 
  26:test/../test/ConsumerProducer_C_API_test.h ****     int key;
  30              		.loc 1 26 5
  27:test/../test/ConsumerProducer_C_API_test.h ****     int i = 0;
  31              		.loc 1 27 5
GAS LISTING /tmp/ccdrhIDd.s 			page 2


  32              		.loc 1 27 9 is_stmt 0
  33 001c 13090000 		li	s2,0
  34 0020 6F00C000 		j	.L2
  35              	.LVL2:
  36              	.L6:
  28:test/../test/ConsumerProducer_C_API_test.h ****     while ((key = __getc()) != 0x1b) {
  29:test/../test/ConsumerProducer_C_API_test.h ****         data->buffer->put(key);
  30:test/../test/ConsumerProducer_C_API_test.h ****         i++;
  31:test/../test/ConsumerProducer_C_API_test.h **** 
  32:test/../test/ConsumerProducer_C_API_test.h ****         if (i % (10 * data->id) == 0) {
  33:test/../test/ConsumerProducer_C_API_test.h ****             thread_dispatch();
  37              		.loc 1 33 13 is_stmt 1
  38              		.loc 1 33 28 is_stmt 0
  39 0024 97000000 		call	_Z15thread_dispatchv@plt
  39      E7800000 
  40              	.LVL3:
  41              	.L2:
  28:test/../test/ConsumerProducer_C_API_test.h ****     while ((key = __getc()) != 0x1b) {
  42              		.loc 1 28 5 is_stmt 1
  28:test/../test/ConsumerProducer_C_API_test.h ****     while ((key = __getc()) != 0x1b) {
  43              		.loc 1 28 29
  28:test/../test/ConsumerProducer_C_API_test.h ****     while ((key = __getc()) != 0x1b) {
  44              		.loc 1 28 25 is_stmt 0
  45 002c 97000000 		call	__getc@plt
  45      E7800000 
  46              	.LVL4:
  28:test/../test/ConsumerProducer_C_API_test.h ****     while ((key = __getc()) != 0x1b) {
  47              		.loc 1 28 17
  48 0034 9B050500 		sext.w	a1,a0
  49              	.LVL5:
  28:test/../test/ConsumerProducer_C_API_test.h ****     while ((key = __getc()) != 0x1b) {
  50              		.loc 1 28 29
  51 0038 9307B001 		li	a5,27
  52 003c 638AF502 		beq	a1,a5,.L3
  29:test/../test/ConsumerProducer_C_API_test.h ****         i++;
  53              		.loc 1 29 9 is_stmt 1
  29:test/../test/ConsumerProducer_C_API_test.h ****         i++;
  54              		.loc 1 29 26 is_stmt 0
  55 0040 03B58400 		ld	a0,8(s1)
  56 0044 97000000 		call	_ZN6Buffer3putEi@plt
  56      E7800000 
  57              	.LVL6:
  30:test/../test/ConsumerProducer_C_API_test.h **** 
  58              		.loc 1 30 9 is_stmt 1
  30:test/../test/ConsumerProducer_C_API_test.h **** 
  59              		.loc 1 30 10 is_stmt 0
  60 004c 1B071900 		addiw	a4,s2,1
  61 0050 1B090700 		sext.w	s2,a4
  62              	.LVL7:
  32:test/../test/ConsumerProducer_C_API_test.h ****             thread_dispatch();
  63              		.loc 1 32 9 is_stmt 1
  32:test/../test/ConsumerProducer_C_API_test.h ****             thread_dispatch();
  64              		.loc 1 32 29 is_stmt 0
  65 0054 83A60400 		lw	a3,0(s1)
  32:test/../test/ConsumerProducer_C_API_test.h ****             thread_dispatch();
  66              		.loc 1 32 21
  67 0058 9B972600 		slliw	a5,a3,2
GAS LISTING /tmp/ccdrhIDd.s 			page 3


  68 005c BB87D700 		addw	a5,a5,a3
  69 0060 9B971700 		slliw	a5,a5,1
  32:test/../test/ConsumerProducer_C_API_test.h ****             thread_dispatch();
  70              		.loc 1 32 15
  71 0064 BB67F702 		remw	a5,a4,a5
  32:test/../test/ConsumerProducer_C_API_test.h ****             thread_dispatch();
  72              		.loc 1 32 9
  73 0068 E39207FC 		bnez	a5,.L2
  74 006c 6FF09FFB 		j	.L6
  75              	.LVL8:
  76              	.L3:
  34:test/../test/ConsumerProducer_C_API_test.h ****         }
  35:test/../test/ConsumerProducer_C_API_test.h ****     }
  36:test/../test/ConsumerProducer_C_API_test.h **** 
  37:test/../test/ConsumerProducer_C_API_test.h ****     threadEnd = 1;
  77              		.loc 1 37 5 is_stmt 1
  78              		.loc 1 37 15 is_stmt 0
  79 0070 93071000 		li	a5,1
  80 0074 17070000 		sw	a5,.LANCHOR0,a4
  80      2320F700 
  38:test/../test/ConsumerProducer_C_API_test.h ****     data->buffer->put('!');
  81              		.loc 1 38 5 is_stmt 1
  82              		.loc 1 38 22 is_stmt 0
  83 007c 93051002 		li	a1,33
  84              	.LVL9:
  85 0080 03B58400 		ld	a0,8(s1)
  86              	.LVL10:
  87 0084 97000000 		call	_ZN6Buffer3putEi@plt
  87      E7800000 
  88              	.LVL11:
  39:test/../test/ConsumerProducer_C_API_test.h **** 
  40:test/../test/ConsumerProducer_C_API_test.h ****     sem_signal(data->wait);
  89              		.loc 1 40 5 is_stmt 1
  90              		.loc 1 40 15 is_stmt 0
  91 008c 03B50401 		ld	a0,16(s1)
  92 0090 97000000 		call	_Z10sem_signalP3Sem@plt
  92      E7800000 
  93              	.LVL12:
  41:test/../test/ConsumerProducer_C_API_test.h **** }
  94              		.loc 1 41 1
  95 0098 83308101 		ld	ra,24(sp)
  96              		.cfi_restore 1
  97 009c 03340101 		ld	s0,16(sp)
  98              		.cfi_restore 8
  99              		.cfi_def_cfa 2, 32
 100 00a0 83348100 		ld	s1,8(sp)
 101              		.cfi_restore 9
 102              	.LVL13:
 103 00a4 03390100 		ld	s2,0(sp)
 104              		.cfi_restore 18
 105              	.LVL14:
 106 00a8 13010102 		addi	sp,sp,32
 107              		.cfi_def_cfa_offset 0
 108 00ac 67800000 		jr	ra
 109              		.cfi_endproc
 110              	.LFE0:
 112              		.align	2
GAS LISTING /tmp/ccdrhIDd.s 			page 4


 113              		.globl	_Z8producerPv
 115              	_Z8producerPv:
 116              	.LFB1:
  42:test/../test/ConsumerProducer_C_API_test.h **** 
  43:test/../test/ConsumerProducer_C_API_test.h **** void producer(void *arg) {
 117              		.loc 1 43 26 is_stmt 1
 118              		.cfi_startproc
 119              	.LVL15:
 120 00b0 130101FE 		addi	sp,sp,-32
 121              		.cfi_def_cfa_offset 32
 122 00b4 233C1100 		sd	ra,24(sp)
 123 00b8 23388100 		sd	s0,16(sp)
 124 00bc 23349100 		sd	s1,8(sp)
 125 00c0 23302101 		sd	s2,0(sp)
 126              		.cfi_offset 1, -8
 127              		.cfi_offset 8, -16
 128              		.cfi_offset 9, -24
 129              		.cfi_offset 18, -32
 130 00c4 13040102 		addi	s0,sp,32
 131              		.cfi_def_cfa 8, 0
 132 00c8 93040500 		mv	s1,a0
  44:test/../test/ConsumerProducer_C_API_test.h ****     struct thread_data *data = (struct thread_data *) arg;
 133              		.loc 1 44 5
 134              	.LVL16:
  45:test/../test/ConsumerProducer_C_API_test.h **** 
  46:test/../test/ConsumerProducer_C_API_test.h ****     int i = 0;
 135              		.loc 1 46 5
 136              		.loc 1 46 9 is_stmt 0
 137 00cc 13090000 		li	s2,0
 138 00d0 6F00C000 		j	.L8
 139              	.LVL17:
 140              	.L12:
  47:test/../test/ConsumerProducer_C_API_test.h ****     while (!threadEnd) {
  48:test/../test/ConsumerProducer_C_API_test.h ****         data->buffer->put(data->id + '0');
  49:test/../test/ConsumerProducer_C_API_test.h ****         i++;
  50:test/../test/ConsumerProducer_C_API_test.h **** 
  51:test/../test/ConsumerProducer_C_API_test.h ****         if (i % (10 * data->id) == 0) {
  52:test/../test/ConsumerProducer_C_API_test.h ****             thread_dispatch();
 141              		.loc 1 52 13 is_stmt 1
 142              		.loc 1 52 28 is_stmt 0
 143 00d4 97000000 		call	_Z15thread_dispatchv@plt
 143      E7800000 
 144              	.LVL18:
 145              	.L8:
  47:test/../test/ConsumerProducer_C_API_test.h ****     while (!threadEnd) {
 146              		.loc 1 47 5 is_stmt 1
  47:test/../test/ConsumerProducer_C_API_test.h ****     while (!threadEnd) {
 147              		.loc 1 47 12
 148 00dc 97070000 		lw	a5,.LANCHOR0
 148      83A70700 
 149 00e4 639E0702 		bnez	a5,.L9
  48:test/../test/ConsumerProducer_C_API_test.h ****         i++;
 150              		.loc 1 48 9
  48:test/../test/ConsumerProducer_C_API_test.h ****         i++;
 151              		.loc 1 48 33 is_stmt 0
 152 00e8 83A50400 		lw	a1,0(s1)
  48:test/../test/ConsumerProducer_C_API_test.h ****         i++;
GAS LISTING /tmp/ccdrhIDd.s 			page 5


 153              		.loc 1 48 26
 154 00ec 9B850503 		addiw	a1,a1,48
 155 00f0 03B58400 		ld	a0,8(s1)
 156 00f4 97000000 		call	_ZN6Buffer3putEi@plt
 156      E7800000 
 157              	.LVL19:
  49:test/../test/ConsumerProducer_C_API_test.h **** 
 158              		.loc 1 49 9 is_stmt 1
  49:test/../test/ConsumerProducer_C_API_test.h **** 
 159              		.loc 1 49 10 is_stmt 0
 160 00fc 1B071900 		addiw	a4,s2,1
 161 0100 1B090700 		sext.w	s2,a4
 162              	.LVL20:
  51:test/../test/ConsumerProducer_C_API_test.h ****             thread_dispatch();
 163              		.loc 1 51 9 is_stmt 1
  51:test/../test/ConsumerProducer_C_API_test.h ****             thread_dispatch();
 164              		.loc 1 51 29 is_stmt 0
 165 0104 83A60400 		lw	a3,0(s1)
  51:test/../test/ConsumerProducer_C_API_test.h ****             thread_dispatch();
 166              		.loc 1 51 21
 167 0108 9B972600 		slliw	a5,a3,2
 168 010c BB87D700 		addw	a5,a5,a3
 169 0110 9B971700 		slliw	a5,a5,1
  51:test/../test/ConsumerProducer_C_API_test.h ****             thread_dispatch();
 170              		.loc 1 51 15
 171 0114 BB67F702 		remw	a5,a4,a5
  51:test/../test/ConsumerProducer_C_API_test.h ****             thread_dispatch();
 172              		.loc 1 51 9
 173 0118 E39207FC 		bnez	a5,.L8
 174 011c 6FF09FFB 		j	.L12
 175              	.LVL21:
 176              	.L9:
  53:test/../test/ConsumerProducer_C_API_test.h ****         }
  54:test/../test/ConsumerProducer_C_API_test.h ****     }
  55:test/../test/ConsumerProducer_C_API_test.h **** 
  56:test/../test/ConsumerProducer_C_API_test.h ****     sem_signal(data->wait);
 177              		.loc 1 56 5 is_stmt 1
 178              		.loc 1 56 15 is_stmt 0
 179 0120 03B50401 		ld	a0,16(s1)
 180 0124 97000000 		call	_Z10sem_signalP3Sem@plt
 180      E7800000 
 181              	.LVL22:
  57:test/../test/ConsumerProducer_C_API_test.h **** }
 182              		.loc 1 57 1
 183 012c 83308101 		ld	ra,24(sp)
 184              		.cfi_restore 1
 185 0130 03340101 		ld	s0,16(sp)
 186              		.cfi_restore 8
 187              		.cfi_def_cfa 2, 32
 188 0134 83348100 		ld	s1,8(sp)
 189              		.cfi_restore 9
 190              	.LVL23:
 191 0138 03390100 		ld	s2,0(sp)
 192              		.cfi_restore 18
 193              	.LVL24:
 194 013c 13010102 		addi	sp,sp,32
 195              		.cfi_def_cfa_offset 0
GAS LISTING /tmp/ccdrhIDd.s 			page 6


 196 0140 67800000 		jr	ra
 197              		.cfi_endproc
 198              	.LFE1:
 200              		.align	2
 201              		.globl	_Z8consumerPv
 203              	_Z8consumerPv:
 204              	.LFB2:
  58:test/../test/ConsumerProducer_C_API_test.h **** 
  59:test/../test/ConsumerProducer_C_API_test.h **** void consumer(void *arg) {
 205              		.loc 1 59 26 is_stmt 1
 206              		.cfi_startproc
 207              	.LVL25:
 208 0144 130101FD 		addi	sp,sp,-48
 209              		.cfi_def_cfa_offset 48
 210 0148 23341102 		sd	ra,40(sp)
 211 014c 23308102 		sd	s0,32(sp)
 212 0150 233C9100 		sd	s1,24(sp)
 213 0154 23382101 		sd	s2,16(sp)
 214 0158 23343101 		sd	s3,8(sp)
 215              		.cfi_offset 1, -8
 216              		.cfi_offset 8, -16
 217              		.cfi_offset 9, -24
 218              		.cfi_offset 18, -32
 219              		.cfi_offset 19, -40
 220 015c 13040103 		addi	s0,sp,48
 221              		.cfi_def_cfa 8, 0
 222 0160 13090500 		mv	s2,a0
  60:test/../test/ConsumerProducer_C_API_test.h ****     struct thread_data *data = (struct thread_data *) arg;
 223              		.loc 1 60 5
 224              	.LVL26:
  61:test/../test/ConsumerProducer_C_API_test.h **** 
  62:test/../test/ConsumerProducer_C_API_test.h ****     int i = 0;
 225              		.loc 1 62 5
 226              		.loc 1 62 9 is_stmt 0
 227 0164 93090000 		li	s3,0
 228 0168 6F00C001 		j	.L14
 229              	.LVL27:
 230              	.L20:
 231              	.LBB2:
  63:test/../test/ConsumerProducer_C_API_test.h ****     while (!threadEnd) {
  64:test/../test/ConsumerProducer_C_API_test.h ****         int key = data->buffer->get();
  65:test/../test/ConsumerProducer_C_API_test.h ****         i++;
  66:test/../test/ConsumerProducer_C_API_test.h **** 
  67:test/../test/ConsumerProducer_C_API_test.h ****         putc(key);
  68:test/../test/ConsumerProducer_C_API_test.h **** 
  69:test/../test/ConsumerProducer_C_API_test.h ****         if (i % (5 * data->id) == 0) {
  70:test/../test/ConsumerProducer_C_API_test.h ****             thread_dispatch();
 232              		.loc 1 70 13 is_stmt 1
 233              		.loc 1 70 28 is_stmt 0
 234 016c 97000000 		call	_Z15thread_dispatchv@plt
 234      E7800000 
 235              	.LVL28:
 236 0174 6F000005 		j	.L16
 237              	.LVL29:
 238              	.L21:
  71:test/../test/ConsumerProducer_C_API_test.h ****         }
  72:test/../test/ConsumerProducer_C_API_test.h **** 
GAS LISTING /tmp/ccdrhIDd.s 			page 7


  73:test/../test/ConsumerProducer_C_API_test.h ****         if (i % 80 == 0) {
  74:test/../test/ConsumerProducer_C_API_test.h ****             __putc('\n');
 239              		.loc 1 74 13 is_stmt 1
 240              		.loc 1 74 19 is_stmt 0
 241 0178 1305A000 		li	a0,10
 242 017c 97000000 		call	__putc@plt
 242      E7800000 
 243              	.LVL30:
 244              	.L14:
 245              	.LBE2:
  63:test/../test/ConsumerProducer_C_API_test.h ****     while (!threadEnd) {
 246              		.loc 1 63 5 is_stmt 1
  63:test/../test/ConsumerProducer_C_API_test.h ****     while (!threadEnd) {
 247              		.loc 1 63 12
 248 0184 97070000 		lw	a5,.LANCHOR0
 248      83A70700 
 249 018c 63900706 		bnez	a5,.L15
 250              	.LBB3:
  64:test/../test/ConsumerProducer_C_API_test.h ****         i++;
 251              		.loc 1 64 9
  64:test/../test/ConsumerProducer_C_API_test.h ****         i++;
 252              		.loc 1 64 36 is_stmt 0
 253 0190 03358900 		ld	a0,8(s2)
 254 0194 97000000 		call	_ZN6Buffer3getEv@plt
 254      E7800000 
 255              	.LVL31:
  65:test/../test/ConsumerProducer_C_API_test.h **** 
 256              		.loc 1 65 9 is_stmt 1
  65:test/../test/ConsumerProducer_C_API_test.h **** 
 257              		.loc 1 65 10 is_stmt 0
 258 019c 9B841900 		addiw	s1,s3,1
 259 01a0 9B890400 		sext.w	s3,s1
 260              	.LVL32:
  67:test/../test/ConsumerProducer_C_API_test.h **** 
 261              		.loc 1 67 9 is_stmt 1
  67:test/../test/ConsumerProducer_C_API_test.h **** 
 262              		.loc 1 67 13 is_stmt 0
 263 01a4 1375F50F 		andi	a0,a0,0xff
 264              	.LVL33:
 265 01a8 97000000 		call	_Z4putcc@plt
 265      E7800000 
 266              	.LVL34:
  69:test/../test/ConsumerProducer_C_API_test.h ****             thread_dispatch();
 267              		.loc 1 69 9 is_stmt 1
  69:test/../test/ConsumerProducer_C_API_test.h ****             thread_dispatch();
 268              		.loc 1 69 28 is_stmt 0
 269 01b0 03270900 		lw	a4,0(s2)
  69:test/../test/ConsumerProducer_C_API_test.h ****             thread_dispatch();
 270              		.loc 1 69 20
 271 01b4 9B172700 		slliw	a5,a4,2
 272 01b8 BB87E700 		addw	a5,a5,a4
  69:test/../test/ConsumerProducer_C_API_test.h ****             thread_dispatch();
 273              		.loc 1 69 15
 274 01bc BBE7F402 		remw	a5,s1,a5
  69:test/../test/ConsumerProducer_C_API_test.h ****             thread_dispatch();
 275              		.loc 1 69 9
 276 01c0 E38607FA 		beqz	a5,.L20
GAS LISTING /tmp/ccdrhIDd.s 			page 8


 277              	.L16:
  73:test/../test/ConsumerProducer_C_API_test.h ****             __putc('\n');
 278              		.loc 1 73 9 is_stmt 1
  73:test/../test/ConsumerProducer_C_API_test.h ****             __putc('\n');
 279              		.loc 1 73 15 is_stmt 0
 280 01c4 93070005 		li	a5,80
 281 01c8 BBE4F402 		remw	s1,s1,a5
 282              	.LVL35:
  73:test/../test/ConsumerProducer_C_API_test.h ****             __putc('\n');
 283              		.loc 1 73 9
 284 01cc E39C04FA 		bnez	s1,.L14
 285 01d0 6FF09FFA 		j	.L21
 286              	.L22:
 287              	.LBE3:
 288              	.LBB4:
  75:test/../test/ConsumerProducer_C_API_test.h ****         }
  76:test/../test/ConsumerProducer_C_API_test.h ****     }
  77:test/../test/ConsumerProducer_C_API_test.h **** 
  78:test/../test/ConsumerProducer_C_API_test.h ****     while (data->buffer->getCnt() > 0) {
  79:test/../test/ConsumerProducer_C_API_test.h ****         int key = data->buffer->get();
 289              		.loc 1 79 9 is_stmt 1
 290              		.loc 1 79 36 is_stmt 0
 291 01d4 03358900 		ld	a0,8(s2)
 292 01d8 97000000 		call	_ZN6Buffer3getEv@plt
 292      E7800000 
 293              	.LVL36:
  80:test/../test/ConsumerProducer_C_API_test.h ****         putc(key);
 294              		.loc 1 80 9 is_stmt 1
 295              		.loc 1 80 13 is_stmt 0
 296 01e0 1375F50F 		andi	a0,a0,0xff
 297              	.LVL37:
 298 01e4 97000000 		call	_Z4putcc@plt
 298      E7800000 
 299              	.LVL38:
 300              	.L15:
 301              	.LBE4:
  78:test/../test/ConsumerProducer_C_API_test.h ****         int key = data->buffer->get();
 302              		.loc 1 78 5 is_stmt 1
  78:test/../test/ConsumerProducer_C_API_test.h ****         int key = data->buffer->get();
 303              		.loc 1 78 35
  78:test/../test/ConsumerProducer_C_API_test.h ****         int key = data->buffer->get();
 304              		.loc 1 78 32 is_stmt 0
 305 01ec 03358900 		ld	a0,8(s2)
 306 01f0 97000000 		call	_ZN6Buffer6getCntEv@plt
 306      E7800000 
 307              	.LVL39:
  78:test/../test/ConsumerProducer_C_API_test.h ****         int key = data->buffer->get();
 308              		.loc 1 78 35
 309 01f8 E34EA0FC 		bgtz	a0,.L22
  81:test/../test/ConsumerProducer_C_API_test.h ****     }
  82:test/../test/ConsumerProducer_C_API_test.h **** 
  83:test/../test/ConsumerProducer_C_API_test.h ****     sem_signal(data->wait);
 310              		.loc 1 83 5 is_stmt 1
 311              		.loc 1 83 15 is_stmt 0
 312 01fc 03350901 		ld	a0,16(s2)
 313 0200 97000000 		call	_Z10sem_signalP3Sem@plt
 313      E7800000 
GAS LISTING /tmp/ccdrhIDd.s 			page 9


 314              	.LVL40:
  84:test/../test/ConsumerProducer_C_API_test.h **** }
 315              		.loc 1 84 1
 316 0208 83308102 		ld	ra,40(sp)
 317              		.cfi_restore 1
 318 020c 03340102 		ld	s0,32(sp)
 319              		.cfi_restore 8
 320              		.cfi_def_cfa 2, 48
 321 0210 83348101 		ld	s1,24(sp)
 322              		.cfi_restore 9
 323 0214 03390101 		ld	s2,16(sp)
 324              		.cfi_restore 18
 325              	.LVL41:
 326 0218 83398100 		ld	s3,8(sp)
 327              		.cfi_restore 19
 328              	.LVL42:
 329 021c 13010103 		addi	sp,sp,48
 330              		.cfi_def_cfa_offset 0
 331 0220 67800000 		jr	ra
 332              		.cfi_endproc
 333              	.LFE2:
 335              		.section	.rodata.str1.8,"aMS",@progbits,1
 336              		.align	3
 337              	.LC0:
 338 0000 42726F6A 		.string	"Broj proizvodjaca "
 338      2070726F 
 338      697A766F 
 338      646A6163 
 338      612000
 339 0013 00000000 		.align	3
 339      00
 340              	.LC1:
 341 0018 20692076 		.string	" i velicina bafera "
 341      656C6963 
 341      696E6120 
 341      62616665 
 341      72612000 
 342 002c 00000000 		.align	3
 343              	.LC2:
 344 0030 2E0A00   		.string	".\n"
 345              		.text
 346              		.align	2
 347              		.globl	_Z22producerConsumer_C_APIv
 349              	_Z22producerConsumer_C_APIv:
 350              	.LFB3:
  85:test/../test/ConsumerProducer_C_API_test.h **** 
  86:test/../test/ConsumerProducer_C_API_test.h **** void producerConsumer_C_API() {
 351              		.loc 1 86 31 is_stmt 1
 352              		.cfi_startproc
 353              		.cfi_personality 0x9b,DW.ref.__gxx_personality_v0
 354              		.cfi_lsda 0x1b,.LLSDA3
 355 0224 130101F2 		addi	sp,sp,-224
 356              		.cfi_def_cfa_offset 224
 357 0228 233C110C 		sd	ra,216(sp)
 358 022c 2338810C 		sd	s0,208(sp)
 359 0230 2334910C 		sd	s1,200(sp)
 360 0234 2330210D 		sd	s2,192(sp)
GAS LISTING /tmp/ccdrhIDd.s 			page 10


 361              		.cfi_offset 1, -8
 362              		.cfi_offset 8, -16
 363              		.cfi_offset 9, -24
 364              		.cfi_offset 18, -32
 365 0238 1304010E 		addi	s0,sp,224
 366              		.cfi_def_cfa 8, 0
  87:test/../test/ConsumerProducer_C_API_test.h ****     //char input[30];
  88:test/../test/ConsumerProducer_C_API_test.h ****     int n = 6, threadNum = 5;
 367              		.loc 1 88 5
 368              	.LVL43:
  89:test/../test/ConsumerProducer_C_API_test.h **** 
  90:test/../test/ConsumerProducer_C_API_test.h ****     /*printString("Unesite broj proizvodjaca?\n");
  91:test/../test/ConsumerProducer_C_API_test.h ****     getString(input, 30);
  92:test/../test/ConsumerProducer_C_API_test.h ****     threadNum = stringToInt(input);
  93:test/../test/ConsumerProducer_C_API_test.h **** 
  94:test/../test/ConsumerProducer_C_API_test.h ****     printString("Unesite velicinu bafera?\n");
  95:test/../test/ConsumerProducer_C_API_test.h ****     getString(input, 30);
  96:test/../test/ConsumerProducer_C_API_test.h ****     n = stringToInt(input);
  97:test/../test/ConsumerProducer_C_API_test.h ****     */
  98:test/../test/ConsumerProducer_C_API_test.h ****     printString("Broj proizvodjaca "); printInt(threadNum);
 369              		.loc 1 98 5
 370              		.loc 1 98 16 is_stmt 0
 371 023c 17050000 		lla	a0,.LC0
 371      13050500 
 372              	.LEHB0:
 373 0244 97000000 		call	_Z11printStringPKc@plt
 373      E7800000 
 374              	.LVL44:
 375              		.loc 1 98 40 is_stmt 1
 376              		.loc 1 98 48 is_stmt 0
 377 024c 13060000 		li	a2,0
 378 0250 9305A000 		li	a1,10
 379 0254 13055000 		li	a0,5
 380 0258 97000000 		call	_Z8printIntiii@plt
 380      E7800000 
 381              	.LVL45:
  99:test/../test/ConsumerProducer_C_API_test.h ****     printString(" i velicina bafera "); printInt(n);
 382              		.loc 1 99 5 is_stmt 1
 383              		.loc 1 99 16 is_stmt 0
 384 0260 17050000 		lla	a0,.LC1
 384      13050500 
 385 0268 97000000 		call	_Z11printStringPKc@plt
 385      E7800000 
 386              	.LVL46:
 387              		.loc 1 99 41 is_stmt 1
 388              		.loc 1 99 49 is_stmt 0
 389 0270 13060000 		li	a2,0
 390 0274 9305A000 		li	a1,10
 391 0278 13056000 		li	a0,6
 392 027c 97000000 		call	_Z8printIntiii@plt
 392      E7800000 
 393              	.LVL47:
 100:test/../test/ConsumerProducer_C_API_test.h ****     printString(".\n");
 394              		.loc 1 100 5 is_stmt 1
 395              		.loc 1 100 16 is_stmt 0
 396 0284 17050000 		lla	a0,.LC2
 396      13050500 
GAS LISTING /tmp/ccdrhIDd.s 			page 11


 397 028c 97000000 		call	_Z11printStringPKc@plt
 397      E7800000 
 398              	.LVL48:
 101:test/../test/ConsumerProducer_C_API_test.h **** 
 102:test/../test/ConsumerProducer_C_API_test.h ****     if(threadNum > n) {
 399              		.loc 1 102 5 is_stmt 1
 103:test/../test/ConsumerProducer_C_API_test.h ****         printString("Broj proizvodjaca ne sme biti veci od velicine bafera!\n");
 104:test/../test/ConsumerProducer_C_API_test.h ****         return;
 105:test/../test/ConsumerProducer_C_API_test.h ****     } else if (threadNum < 1) {
 400              		.loc 1 105 12
 106:test/../test/ConsumerProducer_C_API_test.h ****         printString("Broj proizvodjaca mora biti veci od nula!\n");
 107:test/../test/ConsumerProducer_C_API_test.h ****         return;
 108:test/../test/ConsumerProducer_C_API_test.h ****     }
 109:test/../test/ConsumerProducer_C_API_test.h **** 
 110:test/../test/ConsumerProducer_C_API_test.h ****     Buffer *buffer = new Buffer(n);
 401              		.loc 1 110 5
 402              		.loc 1 110 34 is_stmt 0
 403 0294 13058003 		li	a0,56
 404 0298 97000000 		call	_Znwm@plt
 404      E7800000 
 405              	.LVL49:
 406              	.LEHE0:
 407 02a0 13090500 		mv	s2,a0
 408 02a4 93056000 		li	a1,6
 409              	.LEHB1:
 410 02a8 97000000 		call	_ZN6BufferC1Ei@plt
 410      E7800000 
 411              	.LVL50:
 412              	.LEHE1:
 111:test/../test/ConsumerProducer_C_API_test.h **** 
 112:test/../test/ConsumerProducer_C_API_test.h ****     sem_open(&waitForAll, 0);
 413              		.loc 1 112 5 is_stmt 1 discriminator 3
 414              		.loc 1 112 13 is_stmt 0 discriminator 3
 415 02b0 93050000 		li	a1,0
 416 02b4 17050000 		lla	a0,.LANCHOR0+8
 416      13050500 
 417              	.LEHB2:
 418 02bc 97000000 		call	_Z8sem_openPP3Semj@plt
 418      E7800000 
 419              	.LVL51:
 113:test/../test/ConsumerProducer_C_API_test.h **** 
 114:test/../test/ConsumerProducer_C_API_test.h ****     thread_t threads[threadNum];
 420              		.loc 1 114 5 is_stmt 1 discriminator 3
 115:test/../test/ConsumerProducer_C_API_test.h ****     thread_t consumerThread;
 421              		.loc 1 115 5 discriminator 3
 116:test/../test/ConsumerProducer_C_API_test.h **** 
 117:test/../test/ConsumerProducer_C_API_test.h ****     struct thread_data data[threadNum + 1];
 422              		.loc 1 117 5 discriminator 3
 118:test/../test/ConsumerProducer_C_API_test.h **** 
 119:test/../test/ConsumerProducer_C_API_test.h ****     data[threadNum].id = threadNum;
 423              		.loc 1 119 5 discriminator 3
 424              		.loc 1 119 24 is_stmt 0 discriminator 3
 425 02c4 93075000 		li	a5,5
 426 02c8 2320F4FC 		sw	a5,-64(s0)
 120:test/../test/ConsumerProducer_C_API_test.h ****     data[threadNum].buffer = buffer;
 427              		.loc 1 120 5 is_stmt 1 discriminator 3
 428              		.loc 1 120 28 is_stmt 0 discriminator 3
GAS LISTING /tmp/ccdrhIDd.s 			page 12


 429 02cc 233424FD 		sd	s2,-56(s0)
 121:test/../test/ConsumerProducer_C_API_test.h ****     data[threadNum].wait = waitForAll;
 430              		.loc 1 121 5 is_stmt 1 discriminator 3
 431              		.loc 1 121 26 is_stmt 0 discriminator 3
 432 02d0 97070000 		ld	a5,.LANCHOR0+8
 432      83B70700 
 433 02d8 2338F4FC 		sd	a5,-48(s0)
 122:test/../test/ConsumerProducer_C_API_test.h ****     thread_create(&consumerThread, consumer, data + threadNum);
 434              		.loc 1 122 5 is_stmt 1 discriminator 3
 435              		.loc 1 122 18 is_stmt 0 discriminator 3
 436 02dc 130604FC 		addi	a2,s0,-64
 437 02e0 97050000 		lla	a1,_Z8consumerPv
 437      93850500 
 438 02e8 130584FD 		addi	a0,s0,-40
 439 02ec 97000000 		call	_Z13thread_createPP3PCBPFvPvES2_@plt
 439      E7800000 
 440              	.LVL52:
 441              	.LBB5:
 123:test/../test/ConsumerProducer_C_API_test.h **** 
 124:test/../test/ConsumerProducer_C_API_test.h ****     for (int i = 0; i < threadNum; i++) {
 442              		.loc 1 124 14 discriminator 3
 443 02f4 93040000 		li	s1,0
 444              	.L26:
 445              	.LVL53:
 446              		.loc 1 124 23 is_stmt 1 discriminator 1
 447 02f8 93074000 		li	a5,4
 448 02fc 63CC9706 		bgt	s1,a5,.L24
 125:test/../test/ConsumerProducer_C_API_test.h ****         data[i].id = i;
 449              		.loc 1 125 9
 450              		.loc 1 125 20 is_stmt 0
 451 0300 93971400 		slli	a5,s1,1
 452 0304 B3879700 		add	a5,a5,s1
 453 0308 93973700 		slli	a5,a5,3
 454 030c 130704FE 		addi	a4,s0,-32
 455 0310 B307F700 		add	a5,a4,a5
 456 0314 23A497F6 		sw	s1,-152(a5)
 126:test/../test/ConsumerProducer_C_API_test.h ****         data[i].buffer = buffer;
 457              		.loc 1 126 9 is_stmt 1
 458              		.loc 1 126 24 is_stmt 0
 459 0318 23B827F7 		sd	s2,-144(a5)
 127:test/../test/ConsumerProducer_C_API_test.h ****         data[i].wait = waitForAll;
 460              		.loc 1 127 9 is_stmt 1
 461              		.loc 1 127 22 is_stmt 0
 462 031c 17070000 		ld	a4,.LANCHOR0+8
 462      03370700 
 463 0324 23BCE7F6 		sd	a4,-136(a5)
 128:test/../test/ConsumerProducer_C_API_test.h **** 
 129:test/../test/ConsumerProducer_C_API_test.h ****         thread_create(threads + i,
 464              		.loc 1 129 9 is_stmt 1
 465              		.loc 1 129 33 is_stmt 0
 466 0328 13860400 		mv	a2,s1
 467              		.loc 1 129 31
 468 032c 13953400 		slli	a0,s1,3
 469              		.loc 1 129 22
 470 0330 130704F2 		addi	a4,s0,-224
 471              	.LVL54:
 472 0334 3305A700 		add	a0,a4,a0
GAS LISTING /tmp/ccdrhIDd.s 			page 13


 473 0338 63589002 		blez	s1,.L31
 474 033c 97050000 		lla	a1,_Z8producerPv
 474      93850500 
 475              	.L25:
 130:test/../test/ConsumerProducer_C_API_test.h ****                       i > 0 ? producer : producerKeyboard,
 131:test/../test/ConsumerProducer_C_API_test.h ****                       data + i);
 476              		.loc 1 131 28 discriminator 4
 477 0344 93171600 		slli	a5,a2,1
 478 0348 B387C700 		add	a5,a5,a2
 479 034c 93973700 		slli	a5,a5,3
 129:test/../test/ConsumerProducer_C_API_test.h ****                       i > 0 ? producer : producerKeyboard,
 480              		.loc 1 129 22 discriminator 4
 481 0350 130684F4 		addi	a2,s0,-184
 482              	.LVL55:
 483 0354 3306F600 		add	a2,a2,a5
 484              	.LVL56:
 485 0358 97000000 		call	_Z13thread_createPP3PCBPFvPvES2_@plt
 485      E7800000 
 486              	.LVL57:
 124:test/../test/ConsumerProducer_C_API_test.h ****         data[i].id = i;
 487              		.loc 1 124 5 is_stmt 1 discriminator 4
 488 0360 9B841400 		addiw	s1,s1,1
 489              	.LVL58:
 490 0364 6FF05FF9 		j	.L26
 491              	.LVL59:
 492              	.L31:
 129:test/../test/ConsumerProducer_C_API_test.h ****                       i > 0 ? producer : producerKeyboard,
 493              		.loc 1 129 22 is_stmt 0
 494 0368 97050000 		lla	a1,_Z16producerKeyboardPv
 494      93850500 
 495 0370 6FF05FFD 		j	.L25
 496              	.LVL60:
 497              	.L24:
 498              	.LBE5:
 132:test/../test/ConsumerProducer_C_API_test.h ****     }
 133:test/../test/ConsumerProducer_C_API_test.h **** 
 134:test/../test/ConsumerProducer_C_API_test.h ****     thread_dispatch();
 499              		.loc 1 134 5 is_stmt 1
 500              		.loc 1 134 20 is_stmt 0
 501 0374 97000000 		call	_Z15thread_dispatchv@plt
 501      E7800000 
 502              	.LVL61:
 503              	.LBB6:
 135:test/../test/ConsumerProducer_C_API_test.h **** 
 136:test/../test/ConsumerProducer_C_API_test.h ****     for (int i = 0; i <= threadNum; i++) {
 504              		.loc 1 136 14
 505 037c 93040000 		li	s1,0
 506              	.LVL62:
 507              	.L28:
 508              		.loc 1 136 23 is_stmt 1 discriminator 1
 509 0380 93075000 		li	a5,5
 510 0384 63CE9700 		bgt	s1,a5,.L27
 137:test/../test/ConsumerProducer_C_API_test.h ****         sem_wait(waitForAll);
 511              		.loc 1 137 9
 512              		.loc 1 137 17 is_stmt 0
 513 0388 17050000 		ld	a0,.LANCHOR0+8
 513      03350500 
GAS LISTING /tmp/ccdrhIDd.s 			page 14


 514 0390 97000000 		call	_Z8sem_waitP3Sem@plt
 514      E7800000 
 515              	.LVL63:
 136:test/../test/ConsumerProducer_C_API_test.h ****         sem_wait(waitForAll);
 516              		.loc 1 136 5 is_stmt 1
 517 0398 9B841400 		addiw	s1,s1,1
 518              	.LVL64:
 519 039c 6FF05FFE 		j	.L28
 520              	.LVL65:
 521              	.L27:
 522              	.LBE6:
 138:test/../test/ConsumerProducer_C_API_test.h ****     }
 139:test/../test/ConsumerProducer_C_API_test.h **** 
 140:test/../test/ConsumerProducer_C_API_test.h ****     sem_close(waitForAll);
 523              		.loc 1 140 5
 524              		.loc 1 140 14 is_stmt 0
 525 03a0 17050000 		ld	a0,.LANCHOR0+8
 525      03350500 
 526 03a8 97000000 		call	_Z9sem_closeP3Sem@plt
 526      E7800000 
 527              	.LVL66:
 141:test/../test/ConsumerProducer_C_API_test.h **** 
 142:test/../test/ConsumerProducer_C_API_test.h ****     delete buffer;
 528              		.loc 1 142 5 is_stmt 1
 529              		.loc 1 142 18 is_stmt 0
 530 03b0 630E0900 		beqz	s2,.L23
 531              		.loc 1 142 12 discriminator 1
 532 03b4 13050900 		mv	a0,s2
 533 03b8 97000000 		call	_ZN6BufferD1Ev@plt
 533      E7800000 
 534              	.LVL67:
 535 03c0 13050900 		mv	a0,s2
 536 03c4 97000000 		call	_ZdlPv@plt
 536      E7800000 
 537              	.LVL68:
 538              	.L23:
 143:test/../test/ConsumerProducer_C_API_test.h **** 
 144:test/../test/ConsumerProducer_C_API_test.h **** }
 539              		.loc 1 144 1
 540 03cc 8330810D 		ld	ra,216(sp)
 541              		.cfi_remember_state
 542              		.cfi_restore 1
 543 03d0 0334010D 		ld	s0,208(sp)
 544              		.cfi_restore 8
 545              		.cfi_def_cfa 2, 224
 546              	.LVL69:
 547 03d4 8334810C 		ld	s1,200(sp)
 548              		.cfi_restore 9
 549              	.LVL70:
 550 03d8 0339010C 		ld	s2,192(sp)
 551              		.cfi_restore 18
 552              	.LVL71:
 553 03dc 1301010E 		addi	sp,sp,224
 554              		.cfi_def_cfa_offset 0
 555              	.LVL72:
 556 03e0 67800000 		jr	ra
 557              	.LVL73:
GAS LISTING /tmp/ccdrhIDd.s 			page 15


 558              	.L32:
 559              		.cfi_restore_state
 560 03e4 93040500 		mv	s1,a0
 110:test/../test/ConsumerProducer_C_API_test.h **** 
 561              		.loc 1 110 34
 562 03e8 13050900 		mv	a0,s2
 563 03ec 97000000 		call	_ZdlPv@plt
 563      E7800000 
 564              	.LVL74:
 565 03f4 13850400 		mv	a0,s1
 566 03f8 97000000 		call	_Unwind_Resume@plt
 566      E7800000 
 567              	.LVL75:
 568              	.LEHE2:
 569              		.cfi_endproc
 570              	.LFE3:
 571              		.globl	__gxx_personality_v0
 572              		.section	.gcc_except_table,"a",@progbits
 573              	.LLSDA3:
 574 0000 FF       		.byte	0xff
 575 0001 FF       		.byte	0xff
 576 0002 03       		.byte	0x3
 577 0003 27       		.byte	0x27
 578 0004 00000000 		.4byte	.LEHB0-.LFB3
 579 0008 00000000 		.4byte	.LEHE0-.LEHB0
 580 000c 00000000 		.4byte	0
 581 0010 00       		.byte	0
 582 0011 00000000 		.4byte	.LEHB1-.LFB3
 583 0015 00000000 		.4byte	.LEHE1-.LEHB1
 584 0019 00000000 		.4byte	.L32-.LFB3
 585 001d 00       		.byte	0
 586 001e 00000000 		.4byte	.LEHB2-.LFB3
 587 0022 00000000 		.4byte	.LEHE2-.LEHB2
 588 0026 00000000 		.4byte	0
 589 002a 00       		.byte	0
 590              		.text
 592              		.align	2
 593              		.globl	_Z8userMainv
 595              	_Z8userMainv:
 596              	.LFB4:
 597              		.file 2 "test/userMain.cpp"
   1:test/userMain.cpp **** //#include "../test/Threads_C_API_test.hpp" // zadatak 2, niti C API i sinhrona promena konteksta
   2:test/userMain.cpp **** //#include "../test/Threads_CPP_API_test.hpp" // zadatak 2., niti CPP API i sinhrona promena kontek
   3:test/userMain.cpp **** 
   4:test/userMain.cpp **** #include "../test/ConsumerProducer_C_API_test.h" // zadatak 3., kompletan C API sa semaforima, sinh
   5:test/userMain.cpp **** //#include "../test/ConsumerProducer_CPP_Sync_API_test.hpp" // zadatak 3., kompletan CPP API sa sem
   6:test/userMain.cpp **** 
   7:test/userMain.cpp **** //#include "../test/ThreadSleep_C_API_test.hpp" // thread_sleep test C API
   8:test/userMain.cpp **** //#include "../test/ConsumerProducer_CPP_API_test.hpp" // zadatak 4. CPP API i asinhrona promena ko
   9:test/userMain.cpp **** 
  10:test/userMain.cpp **** void userMain() {
 598              		.loc 2 10 17 is_stmt 1
 599              		.cfi_startproc
 600 0400 130101FF 		addi	sp,sp,-16
 601              		.cfi_def_cfa_offset 16
 602 0404 23341100 		sd	ra,8(sp)
 603 0408 23308100 		sd	s0,0(sp)
GAS LISTING /tmp/ccdrhIDd.s 			page 16


 604              		.cfi_offset 1, -8
 605              		.cfi_offset 8, -16
 606 040c 13040101 		addi	s0,sp,16
 607              		.cfi_def_cfa 8, 0
  11:test/userMain.cpp ****     //Threads_C_API_test(); // zadatak 2., niti C API i sinhrona promena konteksta
  12:test/userMain.cpp ****     //Threads_CPP_API_test(); // zadatak 2., niti CPP API i sinhrona promena konteksta
  13:test/userMain.cpp **** 
  14:test/userMain.cpp ****     producerConsumer_C_API(); // zadatak 3., kompletan C API sa semaforima, sinhrona promena kontek
 608              		.loc 2 14 5
 609              		.loc 2 14 27 is_stmt 0
 610 0410 97000000 		call	_Z22producerConsumer_C_APIv
 610      E7800000 
 611              	.LVL76:
  15:test/userMain.cpp ****     //producerConsumer_CPP_Sync_API(); // zadatak 3., kompletan CPP API sa semaforima, sinhrona pro
  16:test/userMain.cpp **** 
  17:test/userMain.cpp ****     //testSleeping(); // thread_sleep test C API
  18:test/userMain.cpp ****     //ConsumerProducerCPP::testConsumerProducer(); // zadatak 4. CPP API i asinhrona promena kontek
  19:test/userMain.cpp **** 
  20:test/userMain.cpp **** }...
 612              		.loc 2 20 1
 613 0418 83308100 		ld	ra,8(sp)
 614              		.cfi_restore 1
 615 041c 03340100 		ld	s0,0(sp)
 616              		.cfi_restore 8
 617              		.cfi_def_cfa 2, 16
 618 0420 13010101 		addi	sp,sp,16
 619              		.cfi_def_cfa_offset 0
 620 0424 67800000 		jr	ra
 621              		.cfi_endproc
 622              	.LFE4:
 624              		.globl	threadEnd
 625              		.globl	waitForAll
 626              		.bss
 627              		.align	3
 628              		.set	.LANCHOR0,. + 0
 631              	threadEnd:
 632 0000 00000000 		.zero	4
 633 0004 00000000 		.zero	4
 636              	waitForAll:
 637 0008 00000000 		.zero	8
 637      00000000 
 638              		.text
 639              	.Letext0:
 640              		.file 3 "test/../test/../h/../lib/hw.h"
 641              		.file 4 "test/../test/../h/syscall_c.h"
 642              		.file 5 "test/../test/buffer.hpp"
 643              		.file 6 "test/../test/printing.hpp"
 644              		.file 7 "test/../test/../lib/console.h"
 2797              		.align	3
 2800              	DW.ref.__gxx_personality_v0:
 2801 0000 00000000 		.dword	__gxx_personality_v0
 2801      00000000 
 2802              		.ident	"GCC: (Ubuntu 9.4.0-1ubuntu1~20.04) 9.4.0"
 2803              		.section	.note.GNU-stack,"",@progbits
GAS LISTING /tmp/ccdrhIDd.s 			page 17


DEFINED SYMBOLS
                            *ABS*:0000000000000000 userMain.cpp
     /tmp/ccdrhIDd.s:9      .text:0000000000000000 _Z16producerKeyboardPv
     /tmp/ccdrhIDd.s:13     .text:0000000000000000 .L0 
     /tmp/ccdrhIDd.s:15     .text:0000000000000000 .L0 
     /tmp/ccdrhIDd.s:16     .text:0000000000000004 .L0 
     /tmp/ccdrhIDd.s:21     .text:0000000000000014 .L0 
     /tmp/ccdrhIDd.s:22     .text:0000000000000014 .L0 
     /tmp/ccdrhIDd.s:23     .text:0000000000000014 .L0 
     /tmp/ccdrhIDd.s:24     .text:0000000000000014 .L0 
     /tmp/ccdrhIDd.s:26     .text:0000000000000018 .L0 
     /tmp/ccdrhIDd.s:30     .text:000000000000001c .L0 
     /tmp/ccdrhIDd.s:31     .text:000000000000001c .L0 
     /tmp/ccdrhIDd.s:32     .text:000000000000001c .L0 
     /tmp/ccdrhIDd.s:33     .text:000000000000001c .L0 
     /tmp/ccdrhIDd.s:38     .text:0000000000000024 .L0 
     /tmp/ccdrhIDd.s:39     .text:0000000000000024 .L0 
     /tmp/ccdrhIDd.s:43     .text:000000000000002c .L0 
     /tmp/ccdrhIDd.s:44     .text:000000000000002c .L0 
     /tmp/ccdrhIDd.s:45     .text:000000000000002c .L0 
     /tmp/ccdrhIDd.s:48     .text:0000000000000034 .L0 
     /tmp/ccdrhIDd.s:51     .text:0000000000000038 .L0 
     /tmp/ccdrhIDd.s:54     .text:0000000000000040 .L0 
     /tmp/ccdrhIDd.s:55     .text:0000000000000040 .L0 
     /tmp/ccdrhIDd.s:59     .text:000000000000004c .L0 
     /tmp/ccdrhIDd.s:60     .text:000000000000004c .L0 
     /tmp/ccdrhIDd.s:64     .text:0000000000000054 .L0 
     /tmp/ccdrhIDd.s:65     .text:0000000000000054 .L0 
     /tmp/ccdrhIDd.s:67     .text:0000000000000058 .L0 
     /tmp/ccdrhIDd.s:71     .text:0000000000000064 .L0 
     /tmp/ccdrhIDd.s:73     .text:0000000000000068 .L0 
     /tmp/ccdrhIDd.s:78     .text:0000000000000070 .L0 
     /tmp/ccdrhIDd.s:79     .text:0000000000000070 .L0 
     /tmp/ccdrhIDd.s:82     .text:000000000000007c .L0 
     /tmp/ccdrhIDd.s:83     .text:000000000000007c .L0 
     /tmp/ccdrhIDd.s:90     .text:000000000000008c .L0 
     /tmp/ccdrhIDd.s:91     .text:000000000000008c .L0 
     /tmp/ccdrhIDd.s:95     .text:0000000000000098 .L0 
     /tmp/ccdrhIDd.s:96     .text:000000000000009c .L0 
     /tmp/ccdrhIDd.s:98     .text:00000000000000a0 .L0 
     /tmp/ccdrhIDd.s:99     .text:00000000000000a0 .L0 
     /tmp/ccdrhIDd.s:101    .text:00000000000000a4 .L0 
     /tmp/ccdrhIDd.s:104    .text:00000000000000a8 .L0 
     /tmp/ccdrhIDd.s:107    .text:00000000000000ac .L0 
     /tmp/ccdrhIDd.s:109    .text:00000000000000b0 .L0 
     /tmp/ccdrhIDd.s:115    .text:00000000000000b0 _Z8producerPv
     /tmp/ccdrhIDd.s:118    .text:00000000000000b0 .L0 
     /tmp/ccdrhIDd.s:120    .text:00000000000000b0 .L0 
     /tmp/ccdrhIDd.s:121    .text:00000000000000b4 .L0 
     /tmp/ccdrhIDd.s:126    .text:00000000000000c4 .L0 
     /tmp/ccdrhIDd.s:127    .text:00000000000000c4 .L0 
     /tmp/ccdrhIDd.s:128    .text:00000000000000c4 .L0 
     /tmp/ccdrhIDd.s:129    .text:00000000000000c4 .L0 
     /tmp/ccdrhIDd.s:131    .text:00000000000000c8 .L0 
     /tmp/ccdrhIDd.s:135    .text:00000000000000cc .L0 
     /tmp/ccdrhIDd.s:136    .text:00000000000000cc .L0 
     /tmp/ccdrhIDd.s:137    .text:00000000000000cc .L0 
GAS LISTING /tmp/ccdrhIDd.s 			page 18


     /tmp/ccdrhIDd.s:142    .text:00000000000000d4 .L0 
     /tmp/ccdrhIDd.s:143    .text:00000000000000d4 .L0 
     /tmp/ccdrhIDd.s:147    .text:00000000000000dc .L0 
     /tmp/ccdrhIDd.s:148    .text:00000000000000dc .L0 
     /tmp/ccdrhIDd.s:151    .text:00000000000000e8 .L0 
     /tmp/ccdrhIDd.s:152    .text:00000000000000e8 .L0 
     /tmp/ccdrhIDd.s:154    .text:00000000000000ec .L0 
     /tmp/ccdrhIDd.s:159    .text:00000000000000fc .L0 
     /tmp/ccdrhIDd.s:160    .text:00000000000000fc .L0 
     /tmp/ccdrhIDd.s:164    .text:0000000000000104 .L0 
     /tmp/ccdrhIDd.s:165    .text:0000000000000104 .L0 
     /tmp/ccdrhIDd.s:167    .text:0000000000000108 .L0 
     /tmp/ccdrhIDd.s:171    .text:0000000000000114 .L0 
     /tmp/ccdrhIDd.s:173    .text:0000000000000118 .L0 
     /tmp/ccdrhIDd.s:178    .text:0000000000000120 .L0 
     /tmp/ccdrhIDd.s:179    .text:0000000000000120 .L0 
     /tmp/ccdrhIDd.s:183    .text:000000000000012c .L0 
     /tmp/ccdrhIDd.s:184    .text:0000000000000130 .L0 
     /tmp/ccdrhIDd.s:186    .text:0000000000000134 .L0 
     /tmp/ccdrhIDd.s:187    .text:0000000000000134 .L0 
     /tmp/ccdrhIDd.s:189    .text:0000000000000138 .L0 
     /tmp/ccdrhIDd.s:192    .text:000000000000013c .L0 
     /tmp/ccdrhIDd.s:195    .text:0000000000000140 .L0 
     /tmp/ccdrhIDd.s:197    .text:0000000000000144 .L0 
     /tmp/ccdrhIDd.s:203    .text:0000000000000144 _Z8consumerPv
     /tmp/ccdrhIDd.s:206    .text:0000000000000144 .L0 
     /tmp/ccdrhIDd.s:208    .text:0000000000000144 .L0 
     /tmp/ccdrhIDd.s:209    .text:0000000000000148 .L0 
     /tmp/ccdrhIDd.s:215    .text:000000000000015c .L0 
     /tmp/ccdrhIDd.s:216    .text:000000000000015c .L0 
     /tmp/ccdrhIDd.s:217    .text:000000000000015c .L0 
     /tmp/ccdrhIDd.s:218    .text:000000000000015c .L0 
     /tmp/ccdrhIDd.s:219    .text:000000000000015c .L0 
     /tmp/ccdrhIDd.s:221    .text:0000000000000160 .L0 
     /tmp/ccdrhIDd.s:225    .text:0000000000000164 .L0 
     /tmp/ccdrhIDd.s:226    .text:0000000000000164 .L0 
     /tmp/ccdrhIDd.s:227    .text:0000000000000164 .L0 
     /tmp/ccdrhIDd.s:233    .text:000000000000016c .L0 
     /tmp/ccdrhIDd.s:234    .text:000000000000016c .L0 
     /tmp/ccdrhIDd.s:240    .text:0000000000000178 .L0 
     /tmp/ccdrhIDd.s:241    .text:0000000000000178 .L0 
     /tmp/ccdrhIDd.s:247    .text:0000000000000184 .L0 
     /tmp/ccdrhIDd.s:248    .text:0000000000000184 .L0 
     /tmp/ccdrhIDd.s:252    .text:0000000000000190 .L0 
     /tmp/ccdrhIDd.s:253    .text:0000000000000190 .L0 
     /tmp/ccdrhIDd.s:257    .text:000000000000019c .L0 
     /tmp/ccdrhIDd.s:258    .text:000000000000019c .L0 
     /tmp/ccdrhIDd.s:262    .text:00000000000001a4 .L0 
     /tmp/ccdrhIDd.s:263    .text:00000000000001a4 .L0 
     /tmp/ccdrhIDd.s:268    .text:00000000000001b0 .L0 
     /tmp/ccdrhIDd.s:269    .text:00000000000001b0 .L0 
     /tmp/ccdrhIDd.s:271    .text:00000000000001b4 .L0 
     /tmp/ccdrhIDd.s:274    .text:00000000000001bc .L0 
     /tmp/ccdrhIDd.s:276    .text:00000000000001c0 .L0 
     /tmp/ccdrhIDd.s:279    .text:00000000000001c4 .L0 
     /tmp/ccdrhIDd.s:280    .text:00000000000001c4 .L0 
     /tmp/ccdrhIDd.s:284    .text:00000000000001cc .L0 
GAS LISTING /tmp/ccdrhIDd.s 			page 19


     /tmp/ccdrhIDd.s:290    .text:00000000000001d4 .L0 
     /tmp/ccdrhIDd.s:291    .text:00000000000001d4 .L0 
     /tmp/ccdrhIDd.s:295    .text:00000000000001e0 .L0 
     /tmp/ccdrhIDd.s:296    .text:00000000000001e0 .L0 
     /tmp/ccdrhIDd.s:303    .text:00000000000001ec .L0 
     /tmp/ccdrhIDd.s:304    .text:00000000000001ec .L0 
     /tmp/ccdrhIDd.s:305    .text:00000000000001ec .L0 
     /tmp/ccdrhIDd.s:309    .text:00000000000001f8 .L0 
     /tmp/ccdrhIDd.s:311    .text:00000000000001fc .L0 
     /tmp/ccdrhIDd.s:312    .text:00000000000001fc .L0 
     /tmp/ccdrhIDd.s:316    .text:0000000000000208 .L0 
     /tmp/ccdrhIDd.s:317    .text:000000000000020c .L0 
     /tmp/ccdrhIDd.s:319    .text:0000000000000210 .L0 
     /tmp/ccdrhIDd.s:320    .text:0000000000000210 .L0 
     /tmp/ccdrhIDd.s:322    .text:0000000000000214 .L0 
     /tmp/ccdrhIDd.s:324    .text:0000000000000218 .L0 
     /tmp/ccdrhIDd.s:327    .text:000000000000021c .L0 
     /tmp/ccdrhIDd.s:330    .text:0000000000000220 .L0 
     /tmp/ccdrhIDd.s:332    .text:0000000000000224 .L0 
     /tmp/ccdrhIDd.s:349    .text:0000000000000224 _Z22producerConsumer_C_APIv
     /tmp/ccdrhIDd.s:352    .text:0000000000000224 .L0 
     /tmp/ccdrhIDd.s:2800   .data.rel.local.DW.ref.__gxx_personality_v0:0000000000000000 DW.ref.__gxx_personality_v0
     /tmp/ccdrhIDd.s:355    .text:0000000000000224 .L0 
     /tmp/ccdrhIDd.s:356    .text:0000000000000228 .L0 
     /tmp/ccdrhIDd.s:361    .text:0000000000000238 .L0 
     /tmp/ccdrhIDd.s:362    .text:0000000000000238 .L0 
     /tmp/ccdrhIDd.s:363    .text:0000000000000238 .L0 
     /tmp/ccdrhIDd.s:364    .text:0000000000000238 .L0 
     /tmp/ccdrhIDd.s:366    .text:000000000000023c .L0 
     /tmp/ccdrhIDd.s:369    .text:000000000000023c .L0 
     /tmp/ccdrhIDd.s:370    .text:000000000000023c .L0 
     /tmp/ccdrhIDd.s:371    .text:000000000000023c .L0 
     /tmp/ccdrhIDd.s:376    .text:000000000000024c .L0 
     /tmp/ccdrhIDd.s:377    .text:000000000000024c .L0 
     /tmp/ccdrhIDd.s:383    .text:0000000000000260 .L0 
     /tmp/ccdrhIDd.s:384    .text:0000000000000260 .L0 
     /tmp/ccdrhIDd.s:388    .text:0000000000000270 .L0 
     /tmp/ccdrhIDd.s:389    .text:0000000000000270 .L0 
     /tmp/ccdrhIDd.s:395    .text:0000000000000284 .L0 
     /tmp/ccdrhIDd.s:396    .text:0000000000000284 .L0 
     /tmp/ccdrhIDd.s:400    .text:0000000000000294 .L0 
     /tmp/ccdrhIDd.s:401    .text:0000000000000294 .L0 
     /tmp/ccdrhIDd.s:402    .text:0000000000000294 .L0 
     /tmp/ccdrhIDd.s:403    .text:0000000000000294 .L0 
     /tmp/ccdrhIDd.s:414    .text:00000000000002b0 .L0 
     /tmp/ccdrhIDd.s:415    .text:00000000000002b0 .L0 
     /tmp/ccdrhIDd.s:421    .text:00000000000002c4 .L0 
     /tmp/ccdrhIDd.s:422    .text:00000000000002c4 .L0 
     /tmp/ccdrhIDd.s:423    .text:00000000000002c4 .L0 
     /tmp/ccdrhIDd.s:424    .text:00000000000002c4 .L0 
     /tmp/ccdrhIDd.s:425    .text:00000000000002c4 .L0 
     /tmp/ccdrhIDd.s:428    .text:00000000000002cc .L0 
     /tmp/ccdrhIDd.s:429    .text:00000000000002cc .L0 
     /tmp/ccdrhIDd.s:431    .text:00000000000002d0 .L0 
     /tmp/ccdrhIDd.s:432    .text:00000000000002d0 .L0 
     /tmp/ccdrhIDd.s:435    .text:00000000000002dc .L0 
     /tmp/ccdrhIDd.s:436    .text:00000000000002dc .L0 
GAS LISTING /tmp/ccdrhIDd.s 			page 20


     /tmp/ccdrhIDd.s:443    .text:00000000000002f4 .L0 
     /tmp/ccdrhIDd.s:447    .text:00000000000002f8 .L0 
     /tmp/ccdrhIDd.s:450    .text:0000000000000300 .L0 
     /tmp/ccdrhIDd.s:451    .text:0000000000000300 .L0 
     /tmp/ccdrhIDd.s:458    .text:0000000000000318 .L0 
     /tmp/ccdrhIDd.s:459    .text:0000000000000318 .L0 
     /tmp/ccdrhIDd.s:461    .text:000000000000031c .L0 
     /tmp/ccdrhIDd.s:462    .text:000000000000031c .L0 
     /tmp/ccdrhIDd.s:465    .text:0000000000000328 .L0 
     /tmp/ccdrhIDd.s:466    .text:0000000000000328 .L0 
     /tmp/ccdrhIDd.s:468    .text:000000000000032c .L0 
     /tmp/ccdrhIDd.s:470    .text:0000000000000330 .L0 
     /tmp/ccdrhIDd.s:477    .text:0000000000000344 .L0 
     /tmp/ccdrhIDd.s:481    .text:0000000000000350 .L0 
     /tmp/ccdrhIDd.s:488    .text:0000000000000360 .L0 
     /tmp/ccdrhIDd.s:494    .text:0000000000000368 .L0 
     /tmp/ccdrhIDd.s:500    .text:0000000000000374 .L0 
     /tmp/ccdrhIDd.s:501    .text:0000000000000374 .L0 
     /tmp/ccdrhIDd.s:505    .text:000000000000037c .L0 
     /tmp/ccdrhIDd.s:509    .text:0000000000000380 .L0 
     /tmp/ccdrhIDd.s:512    .text:0000000000000388 .L0 
     /tmp/ccdrhIDd.s:513    .text:0000000000000388 .L0 
     /tmp/ccdrhIDd.s:517    .text:0000000000000398 .L0 
     /tmp/ccdrhIDd.s:524    .text:00000000000003a0 .L0 
     /tmp/ccdrhIDd.s:525    .text:00000000000003a0 .L0 
     /tmp/ccdrhIDd.s:529    .text:00000000000003b0 .L0 
     /tmp/ccdrhIDd.s:530    .text:00000000000003b0 .L0 
     /tmp/ccdrhIDd.s:532    .text:00000000000003b4 .L0 
     /tmp/ccdrhIDd.s:540    .text:00000000000003cc .L0 
     /tmp/ccdrhIDd.s:541    .text:00000000000003d0 .L0 
     /tmp/ccdrhIDd.s:542    .text:00000000000003d0 .L0 
     /tmp/ccdrhIDd.s:544    .text:00000000000003d4 .L0 
     /tmp/ccdrhIDd.s:545    .text:00000000000003d4 .L0 
     /tmp/ccdrhIDd.s:548    .text:00000000000003d8 .L0 
     /tmp/ccdrhIDd.s:551    .text:00000000000003dc .L0 
     /tmp/ccdrhIDd.s:554    .text:00000000000003e0 .L0 
     /tmp/ccdrhIDd.s:559    .text:00000000000003e4 .L0 
     /tmp/ccdrhIDd.s:562    .text:00000000000003e8 .L0 
     /tmp/ccdrhIDd.s:569    .text:0000000000000400 .L0 
     /tmp/ccdrhIDd.s:595    .text:0000000000000400 _Z8userMainv
     /tmp/ccdrhIDd.s:599    .text:0000000000000400 .L0 
     /tmp/ccdrhIDd.s:600    .text:0000000000000400 .L0 
     /tmp/ccdrhIDd.s:601    .text:0000000000000404 .L0 
     /tmp/ccdrhIDd.s:604    .text:000000000000040c .L0 
     /tmp/ccdrhIDd.s:605    .text:000000000000040c .L0 
     /tmp/ccdrhIDd.s:607    .text:0000000000000410 .L0 
     /tmp/ccdrhIDd.s:609    .text:0000000000000410 .L0 
     /tmp/ccdrhIDd.s:610    .text:0000000000000410 .L0 
     /tmp/ccdrhIDd.s:613    .text:0000000000000418 .L0 
     /tmp/ccdrhIDd.s:614    .text:000000000000041c .L0 
     /tmp/ccdrhIDd.s:616    .text:0000000000000420 .L0 
     /tmp/ccdrhIDd.s:617    .text:0000000000000420 .L0 
     /tmp/ccdrhIDd.s:619    .text:0000000000000424 .L0 
     /tmp/ccdrhIDd.s:621    .text:0000000000000428 .L0 
     /tmp/ccdrhIDd.s:631    .bss:0000000000000000 threadEnd
     /tmp/ccdrhIDd.s:636    .bss:0000000000000008 waitForAll
     /tmp/ccdrhIDd.s:628    .bss:0000000000000000 .LANCHOR0
GAS LISTING /tmp/ccdrhIDd.s 			page 21


     /tmp/ccdrhIDd.s:645    .text:0000000000000428 .L0 
     /tmp/ccdrhIDd.s:80     .text:0000000000000074 .L0 
     /tmp/ccdrhIDd.s:148    .text:00000000000000dc .L0 
     /tmp/ccdrhIDd.s:248    .text:0000000000000184 .L0 
     /tmp/ccdrhIDd.s:337    .rodata.str1.8:0000000000000000 .LC0
     /tmp/ccdrhIDd.s:371    .text:000000000000023c .L0 
     /tmp/ccdrhIDd.s:340    .rodata.str1.8:0000000000000018 .LC1
     /tmp/ccdrhIDd.s:384    .text:0000000000000260 .L0 
     /tmp/ccdrhIDd.s:343    .rodata.str1.8:0000000000000030 .LC2
     /tmp/ccdrhIDd.s:396    .text:0000000000000284 .L0 
     /tmp/ccdrhIDd.s:416    .text:00000000000002b4 .L0 
     /tmp/ccdrhIDd.s:432    .text:00000000000002d0 .L0 
     /tmp/ccdrhIDd.s:437    .text:00000000000002e0 .L0 
     /tmp/ccdrhIDd.s:462    .text:000000000000031c .L0 
     /tmp/ccdrhIDd.s:474    .text:000000000000033c .L0 
     /tmp/ccdrhIDd.s:494    .text:0000000000000368 .L0 
     /tmp/ccdrhIDd.s:513    .text:0000000000000388 .L0 
     /tmp/ccdrhIDd.s:525    .text:00000000000003a0 .L0 
     /tmp/ccdrhIDd.s:41     .text:000000000000002c .L2
     /tmp/ccdrhIDd.s:76     .text:0000000000000070 .L3
     /tmp/ccdrhIDd.s:36     .text:0000000000000024 .L6
     /tmp/ccdrhIDd.s:145    .text:00000000000000dc .L8
     /tmp/ccdrhIDd.s:176    .text:0000000000000120 .L9
     /tmp/ccdrhIDd.s:140    .text:00000000000000d4 .L12
     /tmp/ccdrhIDd.s:244    .text:0000000000000184 .L14
     /tmp/ccdrhIDd.s:277    .text:00000000000001c4 .L16
     /tmp/ccdrhIDd.s:300    .text:00000000000001ec .L15
     /tmp/ccdrhIDd.s:230    .text:000000000000016c .L20
     /tmp/ccdrhIDd.s:238    .text:0000000000000178 .L21
     /tmp/ccdrhIDd.s:286    .text:00000000000001d4 .L22
     /tmp/ccdrhIDd.s:497    .text:0000000000000374 .L24
     /tmp/ccdrhIDd.s:492    .text:0000000000000368 .L31
     /tmp/ccdrhIDd.s:444    .text:00000000000002f8 .L26
     /tmp/ccdrhIDd.s:475    .text:0000000000000344 .L25
     /tmp/ccdrhIDd.s:521    .text:00000000000003a0 .L27
     /tmp/ccdrhIDd.s:507    .text:0000000000000380 .L28
     /tmp/ccdrhIDd.s:538    .text:00000000000003cc .L23
     /tmp/ccdrhIDd.s:372    .text:0000000000000244 .LEHB0
     /tmp/ccdrhIDd.s:350    .text:0000000000000224 .LFB3
     /tmp/ccdrhIDd.s:406    .text:00000000000002a0 .LEHE0
     /tmp/ccdrhIDd.s:409    .text:00000000000002a8 .LEHB1
     /tmp/ccdrhIDd.s:412    .text:00000000000002b0 .LEHE1
     /tmp/ccdrhIDd.s:558    .text:00000000000003e4 .L32
     /tmp/ccdrhIDd.s:417    .text:00000000000002bc .LEHB2
     /tmp/ccdrhIDd.s:568    .text:0000000000000400 .LEHE2
     /tmp/ccdrhIDd.s:1676   .debug_abbrev:0000000000000000 .Ldebug_abbrev0
     /tmp/ccdrhIDd.s:2760   .debug_str:00000000000003e7 .LASF88
     /tmp/ccdrhIDd.s:2626   .debug_str:000000000000007c .LASF89
     /tmp/ccdrhIDd.s:2724   .debug_str:00000000000002f2 .LASF90
     /tmp/ccdrhIDd.s:5      .text:0000000000000000 .Ltext0
     /tmp/ccdrhIDd.s:639    .text:0000000000000428 .Letext0
     /tmp/ccdrhIDd.s:2604   .debug_line:0000000000000000 .Ldebug_line0
     /tmp/ccdrhIDd.s:2778   .debug_str:0000000000000527 .LASF0
     /tmp/ccdrhIDd.s:2722   .debug_str:00000000000002df .LASF1
     /tmp/ccdrhIDd.s:2698   .debug_str:0000000000000246 .LASF2
     /tmp/ccdrhIDd.s:2712   .debug_str:000000000000029a .LASF4
     /tmp/ccdrhIDd.s:2746   .debug_str:0000000000000395 .LASF3
GAS LISTING /tmp/ccdrhIDd.s 			page 22


     /tmp/ccdrhIDd.s:2618   .debug_str:000000000000004a .LASF5
     /tmp/ccdrhIDd.s:2728   .debug_str:000000000000031b .LASF6
     /tmp/ccdrhIDd.s:2710   .debug_str:0000000000000287 .LASF7
     /tmp/ccdrhIDd.s:2772   .debug_str:00000000000004f2 .LASF8
     /tmp/ccdrhIDd.s:2670   .debug_str:0000000000000187 .LASF9
     /tmp/ccdrhIDd.s:2734   .debug_str:0000000000000347 .LASF10
     /tmp/ccdrhIDd.s:2762   .debug_str:00000000000004ab .LASF11
     /tmp/ccdrhIDd.s:2620   .debug_str:0000000000000051 .LASF12
     /tmp/ccdrhIDd.s:2610   .debug_str:0000000000000016 .LASF13
     /tmp/ccdrhIDd.s:2700   .debug_str:0000000000000254 .LASF14
     /tmp/ccdrhIDd.s:2742   .debug_str:000000000000036e .LASF15
     /tmp/ccdrhIDd.s:2638   .debug_str:00000000000000c0 .LASF16
     /tmp/ccdrhIDd.s:2612   .debug_str:0000000000000026 .LASF17
     /tmp/ccdrhIDd.s:2656   .debug_str:0000000000000129 .LASF18
     /tmp/ccdrhIDd.s:2686   .debug_str:00000000000001f8 .LASF19
     /tmp/ccdrhIDd.s:2636   .debug_str:00000000000000b5 .LASF20
     /tmp/ccdrhIDd.s:2632   .debug_str:000000000000009d .LASF21
     /tmp/ccdrhIDd.s:2736   .debug_str:0000000000000356 .LASF22
     /tmp/ccdrhIDd.s:2730   .debug_str:000000000000032e .LASF23
     /tmp/ccdrhIDd.s:2748   .debug_str:00000000000003a7 .LASF24
     /tmp/ccdrhIDd.s:2780   .debug_str:0000000000000534 .LASF25
     /tmp/ccdrhIDd.s:2706   .debug_str:000000000000026d .LASF26
     /tmp/ccdrhIDd.s:2608   .debug_str:0000000000000009 .LASF27
     /tmp/ccdrhIDd.s:2790   .debug_str:0000000000000594 .LASF28
     /tmp/ccdrhIDd.s:2758   .debug_str:00000000000003dc .LASF29
     /tmp/ccdrhIDd.s:2606   .debug_str:0000000000000000 .LASF30
     /tmp/ccdrhIDd.s:2648   .debug_str:0000000000000102 .LASF31
     /tmp/ccdrhIDd.s:2690   .debug_str:0000000000000219 .LASF39
     /tmp/ccdrhIDd.s:2740   .debug_str:0000000000000367 .LASF32
     /tmp/ccdrhIDd.s:2642   .debug_str:00000000000000e4 .LASF33
     /tmp/ccdrhIDd.s:2696   .debug_str:0000000000000241 .LASF34
     /tmp/ccdrhIDd.s:2646   .debug_str:00000000000000f3 .LASF35
     /tmp/ccdrhIDd.s:2672   .debug_str:0000000000000195 .LASF36
     /tmp/ccdrhIDd.s:2694   .debug_str:0000000000000237 .LASF37
     /tmp/ccdrhIDd.s:2716   .debug_str:00000000000002b8 .LASF38
     /tmp/ccdrhIDd.s:2658   .debug_str:0000000000000134 .LASF41
     /tmp/ccdrhIDd.s:2702   .debug_str:0000000000000260 .LASF40
     /tmp/ccdrhIDd.s:2726   .debug_str:000000000000030c .LASF42
     /tmp/ccdrhIDd.s:2788   .debug_str:0000000000000583 .LASF91
     /tmp/ccdrhIDd.s:2744   .debug_str:0000000000000384 .LASF92
     /tmp/ccdrhIDd.s:2616   .debug_str:0000000000000043 .LASF43
     /tmp/ccdrhIDd.s:2688   .debug_str:0000000000000205 .LASF44
     /tmp/ccdrhIDd.s:2662   .debug_str:0000000000000158 .LASF45
     /tmp/ccdrhIDd.s:2668   .debug_str:000000000000017b .LASF93
     /tmp/ccdrhIDd.s:2654   .debug_str:0000000000000124 .LASF46
     /tmp/ccdrhIDd.s:2678   .debug_str:00000000000001b9 .LASF47
     /tmp/ccdrhIDd.s:2732   .debug_str:000000000000033e .LASF48
     /tmp/ccdrhIDd.s:2682   .debug_str:00000000000001cf .LASF50
     /tmp/ccdrhIDd.s:596    .text:0000000000000400 .LFB4
     /tmp/ccdrhIDd.s:622    .text:0000000000000428 .LFE4
     /tmp/ccdrhIDd.s:611    .text:0000000000000418 .LVL76
     /tmp/ccdrhIDd.s:2714   .debug_str:00000000000002a1 .LASF49
     /tmp/ccdrhIDd.s:2684   .debug_str:00000000000001dc .LASF51
     /tmp/ccdrhIDd.s:570    .text:0000000000000400 .LFE3
     /tmp/ccdrhIDd.s:2644   .debug_str:00000000000000e9 .LASF52
     /tmp/ccdrhIDd.s:2284   .debug_loc:0000000000000000 .LLST14
     /tmp/ccdrhIDd.s:2666   .debug_str:0000000000000173 .LASF53
GAS LISTING /tmp/ccdrhIDd.s 			page 23


     /tmp/ccdrhIDd.s:2291   .debug_loc:0000000000000023 .LLST15
     /tmp/ccdrhIDd.s:2782   .debug_str:0000000000000540 .LASF54
     /tmp/ccdrhIDd.s:2738   .debug_str:0000000000000362 .LASF55
     /tmp/ccdrhIDd.s:2324   .debug_loc:00000000000000ac .LLST16
     /tmp/ccdrhIDd.s:441    .text:00000000000002f4 .LBB5
     /tmp/ccdrhIDd.s:498    .text:0000000000000374 .LBE5
     /tmp/ccdrhIDd.s:2352   .debug_loc:0000000000000123 .LLST17
     /tmp/ccdrhIDd.s:486    .text:0000000000000360 .LVL57
     /tmp/ccdrhIDd.s:503    .text:000000000000037c .LBB6
     /tmp/ccdrhIDd.s:522    .text:00000000000003a0 .LBE6
     /tmp/ccdrhIDd.s:2363   .debug_loc:0000000000000159 .LLST18
     /tmp/ccdrhIDd.s:515    .text:0000000000000398 .LVL63
     /tmp/ccdrhIDd.s:374    .text:000000000000024c .LVL44
     /tmp/ccdrhIDd.s:381    .text:0000000000000260 .LVL45
     /tmp/ccdrhIDd.s:386    .text:0000000000000270 .LVL46
     /tmp/ccdrhIDd.s:393    .text:0000000000000284 .LVL47
     /tmp/ccdrhIDd.s:398    .text:0000000000000294 .LVL48
     /tmp/ccdrhIDd.s:405    .text:00000000000002a0 .LVL49
     /tmp/ccdrhIDd.s:411    .text:00000000000002b0 .LVL50
     /tmp/ccdrhIDd.s:419    .text:00000000000002c4 .LVL51
     /tmp/ccdrhIDd.s:440    .text:00000000000002f4 .LVL52
     /tmp/ccdrhIDd.s:502    .text:000000000000037c .LVL61
     /tmp/ccdrhIDd.s:527    .text:00000000000003b0 .LVL66
     /tmp/ccdrhIDd.s:534    .text:00000000000003c0 .LVL67
     /tmp/ccdrhIDd.s:537    .text:00000000000003cc .LVL68
     /tmp/ccdrhIDd.s:564    .text:00000000000003f4 .LVL74
     /tmp/ccdrhIDd.s:567    .text:0000000000000400 .LVL75
     /tmp/ccdrhIDd.s:2622   .debug_str:0000000000000061 .LASF56
     /tmp/ccdrhIDd.s:2764   .debug_str:00000000000004ba .LASF57
     /tmp/ccdrhIDd.s:204    .text:0000000000000144 .LFB2
     /tmp/ccdrhIDd.s:333    .text:0000000000000224 .LFE2
     /tmp/ccdrhIDd.s:2374   .debug_loc:000000000000018f .LLST7
     /tmp/ccdrhIDd.s:2392   .debug_loc:00000000000001db .LLST8
     /tmp/ccdrhIDd.s:2410   .debug_loc:0000000000000227 .LLST9
     /tmp/ccdrhIDd.s:2596   .debug_ranges:0000000000000000 .Ldebug_ranges0
     /tmp/ccdrhIDd.s:2434   .debug_loc:0000000000000297 .LLST10
     /tmp/ccdrhIDd.s:235    .text:0000000000000174 .LVL28
     /tmp/ccdrhIDd.s:243    .text:0000000000000184 .LVL30
     /tmp/ccdrhIDd.s:255    .text:000000000000019c .LVL31
     /tmp/ccdrhIDd.s:266    .text:00000000000001b0 .LVL34
     /tmp/ccdrhIDd.s:288    .text:00000000000001d4 .LBB4
     /tmp/ccdrhIDd.s:301    .text:00000000000001ec .LBE4
     /tmp/ccdrhIDd.s:2441   .debug_loc:00000000000002ba .LLST11
     /tmp/ccdrhIDd.s:293    .text:00000000000001e0 .LVL36
     /tmp/ccdrhIDd.s:299    .text:00000000000001ec .LVL38
     /tmp/ccdrhIDd.s:307    .text:00000000000001f8 .LVL39
     /tmp/ccdrhIDd.s:314    .text:0000000000000208 .LVL40
     /tmp/ccdrhIDd.s:2720   .debug_str:00000000000002d6 .LASF58
     /tmp/ccdrhIDd.s:2768   .debug_str:00000000000004d9 .LASF59
     /tmp/ccdrhIDd.s:116    .text:00000000000000b0 .LFB1
     /tmp/ccdrhIDd.s:198    .text:0000000000000144 .LFE1
     /tmp/ccdrhIDd.s:2448   .debug_loc:00000000000002dd .LLST4
     /tmp/ccdrhIDd.s:2466   .debug_loc:0000000000000329 .LLST5
     /tmp/ccdrhIDd.s:2484   .debug_loc:0000000000000375 .LLST6
     /tmp/ccdrhIDd.s:144    .text:00000000000000dc .LVL18
     /tmp/ccdrhIDd.s:157    .text:00000000000000fc .LVL19
     /tmp/ccdrhIDd.s:181    .text:000000000000012c .LVL22
GAS LISTING /tmp/ccdrhIDd.s 			page 24


     /tmp/ccdrhIDd.s:2766   .debug_str:00000000000004c8 .LASF60
     /tmp/ccdrhIDd.s:2692   .debug_str:0000000000000220 .LASF61
     /tmp/ccdrhIDd.s:10     .text:0000000000000000 .LFB0
     /tmp/ccdrhIDd.s:110    .text:00000000000000b0 .LFE0
     /tmp/ccdrhIDd.s:2508   .debug_loc:00000000000003e5 .LLST0
     /tmp/ccdrhIDd.s:2526   .debug_loc:0000000000000431 .LLST1
     /tmp/ccdrhIDd.s:2544   .debug_loc:000000000000047d .LLST2
     /tmp/ccdrhIDd.s:2559   .debug_loc:00000000000004c6 .LLST3
     /tmp/ccdrhIDd.s:40     .text:000000000000002c .LVL3
     /tmp/ccdrhIDd.s:46     .text:0000000000000034 .LVL4
     /tmp/ccdrhIDd.s:57     .text:000000000000004c .LVL6
     /tmp/ccdrhIDd.s:88     .text:000000000000008c .LVL11
     /tmp/ccdrhIDd.s:93     .text:0000000000000098 .LVL12
     /tmp/ccdrhIDd.s:2786   .debug_str:0000000000000562 .LASF62
     /tmp/ccdrhIDd.s:2640   .debug_str:00000000000000d6 .LASF64
     /tmp/ccdrhIDd.s:2614   .debug_str:0000000000000032 .LASF63
     /tmp/ccdrhIDd.s:2634   .debug_str:00000000000000ac .LASF65
     /tmp/ccdrhIDd.s:2784   .debug_str:000000000000054f .LASF66
     /tmp/ccdrhIDd.s:2680   .debug_str:00000000000001c3 .LASF67
     /tmp/ccdrhIDd.s:2708   .debug_str:0000000000000278 .LASF68
     /tmp/ccdrhIDd.s:2628   .debug_str:000000000000008e .LASF69
     /tmp/ccdrhIDd.s:2630   .debug_str:0000000000000097 .LASF76
     /tmp/ccdrhIDd.s:2776   .debug_str:000000000000051a .LASF78
     /tmp/ccdrhIDd.s:2650   .debug_str:0000000000000108 .LASF70
     /tmp/ccdrhIDd.s:2652   .debug_str:000000000000011b .LASF71
     /tmp/ccdrhIDd.s:2660   .debug_str:0000000000000143 .LASF72
     /tmp/ccdrhIDd.s:2664   .debug_str:0000000000000163 .LASF73
     /tmp/ccdrhIDd.s:2624   .debug_str:000000000000006a .LASF74
     /tmp/ccdrhIDd.s:2752   .debug_str:00000000000003c2 .LASF75
     /tmp/ccdrhIDd.s:2792   .debug_str:000000000000059f .LASF77
     /tmp/ccdrhIDd.s:2750   .debug_str:00000000000003b2 .LASF79
     /tmp/ccdrhIDd.s:2676   .debug_str:00000000000001aa .LASF80
     /tmp/ccdrhIDd.s:2774   .debug_str:0000000000000502 .LASF81
     /tmp/ccdrhIDd.s:2754   .debug_str:00000000000003cc .LASF82
     /tmp/ccdrhIDd.s:2756   .debug_str:00000000000003d3 .LASF83
     /tmp/ccdrhIDd.s:2704   .debug_str:0000000000000268 .LASF84
     /tmp/ccdrhIDd.s:2718   .debug_str:00000000000002c2 .LASF85
     /tmp/ccdrhIDd.s:2770   .debug_str:00000000000004e7 .LASF86
     /tmp/ccdrhIDd.s:2674   .debug_str:00000000000001a3 .LASF87
     /tmp/ccdrhIDd.s:552    .text:00000000000003dc .LVL71
     /tmp/ccdrhIDd.s:471    .text:0000000000000334 .LVL54
     /tmp/ccdrhIDd.s:491    .text:0000000000000368 .LVL59
     /tmp/ccdrhIDd.s:496    .text:0000000000000374 .LVL60
     /tmp/ccdrhIDd.s:555    .text:00000000000003e0 .LVL72
     /tmp/ccdrhIDd.s:557    .text:00000000000003e4 .LVL73
     /tmp/ccdrhIDd.s:482    .text:0000000000000354 .LVL55
     /tmp/ccdrhIDd.s:484    .text:0000000000000358 .LVL56
     /tmp/ccdrhIDd.s:546    .text:00000000000003d4 .LVL69
     /tmp/ccdrhIDd.s:445    .text:00000000000002f8 .LVL53
     /tmp/ccdrhIDd.s:489    .text:0000000000000364 .LVL58
     /tmp/ccdrhIDd.s:506    .text:0000000000000380 .LVL62
     /tmp/ccdrhIDd.s:518    .text:000000000000039c .LVL64
     /tmp/ccdrhIDd.s:520    .text:00000000000003a0 .LVL65
     /tmp/ccdrhIDd.s:549    .text:00000000000003d8 .LVL70
     /tmp/ccdrhIDd.s:207    .text:0000000000000144 .LVL25
     /tmp/ccdrhIDd.s:229    .text:000000000000016c .LVL27
     /tmp/ccdrhIDd.s:325    .text:0000000000000218 .LVL41
GAS LISTING /tmp/ccdrhIDd.s 			page 25


     /tmp/ccdrhIDd.s:224    .text:0000000000000164 .LVL26
     /tmp/ccdrhIDd.s:237    .text:0000000000000178 .LVL29
     /tmp/ccdrhIDd.s:260    .text:00000000000001a4 .LVL32
     /tmp/ccdrhIDd.s:282    .text:00000000000001cc .LVL35
     /tmp/ccdrhIDd.s:328    .text:000000000000021c .LVL42
     /tmp/ccdrhIDd.s:264    .text:00000000000001a8 .LVL33
     /tmp/ccdrhIDd.s:297    .text:00000000000001e4 .LVL37
     /tmp/ccdrhIDd.s:119    .text:00000000000000b0 .LVL15
     /tmp/ccdrhIDd.s:139    .text:00000000000000d4 .LVL17
     /tmp/ccdrhIDd.s:190    .text:0000000000000138 .LVL23
     /tmp/ccdrhIDd.s:134    .text:00000000000000cc .LVL16
     /tmp/ccdrhIDd.s:162    .text:0000000000000104 .LVL20
     /tmp/ccdrhIDd.s:175    .text:0000000000000120 .LVL21
     /tmp/ccdrhIDd.s:193    .text:000000000000013c .LVL24
     /tmp/ccdrhIDd.s:14     .text:0000000000000000 .LVL0
     /tmp/ccdrhIDd.s:35     .text:0000000000000024 .LVL2
     /tmp/ccdrhIDd.s:102    .text:00000000000000a4 .LVL13
     /tmp/ccdrhIDd.s:29     .text:000000000000001c .LVL1
     /tmp/ccdrhIDd.s:49     .text:0000000000000038 .LVL5
     /tmp/ccdrhIDd.s:75     .text:0000000000000070 .LVL8
     /tmp/ccdrhIDd.s:84     .text:0000000000000080 .LVL9
     /tmp/ccdrhIDd.s:86     .text:0000000000000084 .LVL10
     /tmp/ccdrhIDd.s:62     .text:0000000000000054 .LVL7
     /tmp/ccdrhIDd.s:105    .text:00000000000000a8 .LVL14
     /tmp/ccdrhIDd.s:646    .debug_info:0000000000000000 .Ldebug_info0
     /tmp/ccdrhIDd.s:231    .text:000000000000016c .LBB2
     /tmp/ccdrhIDd.s:245    .text:0000000000000184 .LBE2
     /tmp/ccdrhIDd.s:250    .text:0000000000000190 .LBB3
     /tmp/ccdrhIDd.s:287    .text:00000000000001d4 .LBE3
     /tmp/ccdrhIDd.s:573    .gcc_except_table:0000000000000000 .LLSDA3

UNDEFINED SYMBOLS
_Z15thread_dispatchv
__getc
_ZN6Buffer3putEi
_Z10sem_signalP3Sem
__putc
_ZN6Buffer3getEv
_Z4putcc
_ZN6Buffer6getCntEv
_Z11printStringPKc
_Z8printIntiii
_Znwm
_ZN6BufferC1Ei
_Z8sem_openPP3Semj
_Z13thread_createPP3PCBPFvPvES2_
_Z8sem_waitP3Sem
_Z9sem_closeP3Sem
_ZN6BufferD1Ev
_ZdlPv
_Unwind_Resume
__gxx_personality_v0
