GAS LISTING /tmp/cceKh6vb.s 			page 1


   1              		.file	"_new.cpp"
   2              		.option pic
   3              		.option norelax
   4              		.text
   5              	.Ltext0:
   6              		.align	2
   7              		.globl	_Znwm
   9              	_Znwm:
  10              	.LFB3:
  11              		.file 1 "src/_new.cpp"
   1:src/_new.cpp  **** #include "../h/memoryAllocator.h"
   2:src/_new.cpp  **** #include "../h/syscall_c.h"
   3:src/_new.cpp  **** 
   4:src/_new.cpp  **** void *operator new(size_t size) {
  12              		.loc 1 4 33
  13              		.cfi_startproc
  14              	.LVL0:
  15 0000 130101FF 		addi	sp,sp,-16
  16              		.cfi_def_cfa_offset 16
  17 0004 23341100 		sd	ra,8(sp)
  18 0008 23308100 		sd	s0,0(sp)
  19              		.cfi_offset 1, -8
  20              		.cfi_offset 8, -16
  21 000c 13040101 		addi	s0,sp,16
  22              		.cfi_def_cfa 8, 0
   5:src/_new.cpp  ****     return mem_alloc(size);
  23              		.loc 1 5 5
  24              		.loc 1 5 21 is_stmt 0
  25 0010 97000000 		call	_Z9mem_allocm@plt
  25      E7800000 
  26              	.LVL1:
   6:src/_new.cpp  **** }
  27              		.loc 1 6 1
  28 0018 83308100 		ld	ra,8(sp)
  29              		.cfi_restore 1
  30 001c 03340100 		ld	s0,0(sp)
  31              		.cfi_restore 8
  32              		.cfi_def_cfa 2, 16
  33 0020 13010101 		addi	sp,sp,16
  34              		.cfi_def_cfa_offset 0
  35 0024 67800000 		jr	ra
  36              		.cfi_endproc
  37              	.LFE3:
  39              		.align	2
  40              		.globl	_Znam
  42              	_Znam:
  43              	.LFB4:
   7:src/_new.cpp  **** 
   8:src/_new.cpp  **** void *operator new[](size_t size) {
  44              		.loc 1 8 35 is_stmt 1
  45              		.cfi_startproc
  46              	.LVL2:
  47 0028 130101FF 		addi	sp,sp,-16
  48              		.cfi_def_cfa_offset 16
  49 002c 23341100 		sd	ra,8(sp)
  50 0030 23308100 		sd	s0,0(sp)
  51              		.cfi_offset 1, -8
GAS LISTING /tmp/cceKh6vb.s 			page 2


  52              		.cfi_offset 8, -16
  53 0034 13040101 		addi	s0,sp,16
  54              		.cfi_def_cfa 8, 0
   9:src/_new.cpp  ****     return mem_alloc(size);
  55              		.loc 1 9 5
  56              		.loc 1 9 21 is_stmt 0
  57 0038 97000000 		call	_Z9mem_allocm@plt
  57      E7800000 
  58              	.LVL3:
  10:src/_new.cpp  **** }
  59              		.loc 1 10 1
  60 0040 83308100 		ld	ra,8(sp)
  61              		.cfi_restore 1
  62 0044 03340100 		ld	s0,0(sp)
  63              		.cfi_restore 8
  64              		.cfi_def_cfa 2, 16
  65 0048 13010101 		addi	sp,sp,16
  66              		.cfi_def_cfa_offset 0
  67 004c 67800000 		jr	ra
  68              		.cfi_endproc
  69              	.LFE4:
  71              		.align	2
  72              		.globl	_ZdlPv
  74              	_ZdlPv:
  75              	.LFB5:
  11:src/_new.cpp  **** 
  12:src/_new.cpp  **** void operator delete(void *p) noexcept { mem_free(p); }
  76              		.loc 1 12 40 is_stmt 1
  77              		.cfi_startproc
  78              		.cfi_personality 0x9b,DW.ref.__gxx_personality_v0
  79              		.cfi_lsda 0x1b,.LLSDA5
  80              	.LVL4:
  81 0050 130101FF 		addi	sp,sp,-16
  82              		.cfi_def_cfa_offset 16
  83 0054 23341100 		sd	ra,8(sp)
  84 0058 23308100 		sd	s0,0(sp)
  85              		.cfi_offset 1, -8
  86              		.cfi_offset 8, -16
  87 005c 13040101 		addi	s0,sp,16
  88              		.cfi_def_cfa 8, 0
  89              		.loc 1 12 42
  90              		.loc 1 12 50 is_stmt 0
  91 0060 97000000 		call	_Z8mem_freePv@plt
  91      E7800000 
  92              	.LVL5:
  93              		.loc 1 12 55
  94 0068 83308100 		ld	ra,8(sp)
  95              		.cfi_restore 1
  96 006c 03340100 		ld	s0,0(sp)
  97              		.cfi_restore 8
  98              		.cfi_def_cfa 2, 16
  99 0070 13010101 		addi	sp,sp,16
 100              		.cfi_def_cfa_offset 0
 101 0074 67800000 		jr	ra
 102              		.cfi_endproc
 103              	.LFE5:
 104              		.globl	__gxx_personality_v0
GAS LISTING /tmp/cceKh6vb.s 			page 3


 105              		.section	.gcc_except_table,"a",@progbits
 106              	.LLSDA5:
 107 0000 FF       		.byte	0xff
 108 0001 FF       		.byte	0xff
 109 0002 03       		.byte	0x3
 110 0003 00       		.byte	0
 111              		.text
 113              		.align	2
 114              		.globl	_ZdaPv
 116              	_ZdaPv:
 117              	.LFB6:
  13:src/_new.cpp  **** 
  14:src/_new.cpp  **** void operator delete[](void *p) noexcept { mem_free(p); }
 118              		.loc 1 14 42 is_stmt 1
 119              		.cfi_startproc
 120              		.cfi_personality 0x9b,DW.ref.__gxx_personality_v0
 121              		.cfi_lsda 0x1b,.LLSDA6
 122              	.LVL6:
 123 0078 130101FF 		addi	sp,sp,-16
 124              		.cfi_def_cfa_offset 16
 125 007c 23341100 		sd	ra,8(sp)
 126 0080 23308100 		sd	s0,0(sp)
 127              		.cfi_offset 1, -8
 128              		.cfi_offset 8, -16
 129 0084 13040101 		addi	s0,sp,16
 130              		.cfi_def_cfa 8, 0
 131              		.loc 1 14 44
 132              		.loc 1 14 52 is_stmt 0
 133 0088 97000000 		call	_Z8mem_freePv@plt
 133      E7800000 
 134              	.LVL7:
 135              		.loc 1 14 57
 136 0090 83308100 		ld	ra,8(sp)
 137              		.cfi_restore 1
 138 0094 03340100 		ld	s0,0(sp)
 139              		.cfi_restore 8
 140              		.cfi_def_cfa 2, 16
 141 0098 13010101 		addi	sp,sp,16
 142              		.cfi_def_cfa_offset 0
 143 009c 67800000 		jr	ra
 144              		.cfi_endproc
 145              	.LFE6:
 146              		.section	.gcc_except_table
 147              	.LLSDA6:
 148 0004 FF       		.byte	0xff
 149 0005 FF       		.byte	0xff
 150 0006 03       		.byte	0x3
 151 0007 00       		.byte	0
 152              		.text
 154              	.Letext0:
 155              		.file 2 "src/../h/../lib/hw.h"
 156              		.file 3 "src/../h/syscall_c.h"
 1005              		.align	3
 1008              	DW.ref.__gxx_personality_v0:
 1009 0000 00000000 		.dword	__gxx_personality_v0
 1009      00000000 
 1010              		.ident	"GCC: (Ubuntu 9.4.0-1ubuntu1~20.04) 9.4.0"
GAS LISTING /tmp/cceKh6vb.s 			page 4


 1011              		.section	.note.GNU-stack,"",@progbits
GAS LISTING /tmp/cceKh6vb.s 			page 5


DEFINED SYMBOLS
                            *ABS*:0000000000000000 _new.cpp
     /tmp/cceKh6vb.s:9      .text:0000000000000000 _Znwm
     /tmp/cceKh6vb.s:13     .text:0000000000000000 .L0 
     /tmp/cceKh6vb.s:15     .text:0000000000000000 .L0 
     /tmp/cceKh6vb.s:16     .text:0000000000000004 .L0 
     /tmp/cceKh6vb.s:19     .text:000000000000000c .L0 
     /tmp/cceKh6vb.s:20     .text:000000000000000c .L0 
     /tmp/cceKh6vb.s:22     .text:0000000000000010 .L0 
     /tmp/cceKh6vb.s:24     .text:0000000000000010 .L0 
     /tmp/cceKh6vb.s:25     .text:0000000000000010 .L0 
     /tmp/cceKh6vb.s:28     .text:0000000000000018 .L0 
     /tmp/cceKh6vb.s:29     .text:000000000000001c .L0 
     /tmp/cceKh6vb.s:31     .text:0000000000000020 .L0 
     /tmp/cceKh6vb.s:32     .text:0000000000000020 .L0 
     /tmp/cceKh6vb.s:34     .text:0000000000000024 .L0 
     /tmp/cceKh6vb.s:36     .text:0000000000000028 .L0 
     /tmp/cceKh6vb.s:42     .text:0000000000000028 _Znam
     /tmp/cceKh6vb.s:45     .text:0000000000000028 .L0 
     /tmp/cceKh6vb.s:47     .text:0000000000000028 .L0 
     /tmp/cceKh6vb.s:48     .text:000000000000002c .L0 
     /tmp/cceKh6vb.s:51     .text:0000000000000034 .L0 
     /tmp/cceKh6vb.s:52     .text:0000000000000034 .L0 
     /tmp/cceKh6vb.s:54     .text:0000000000000038 .L0 
     /tmp/cceKh6vb.s:56     .text:0000000000000038 .L0 
     /tmp/cceKh6vb.s:57     .text:0000000000000038 .L0 
     /tmp/cceKh6vb.s:60     .text:0000000000000040 .L0 
     /tmp/cceKh6vb.s:61     .text:0000000000000044 .L0 
     /tmp/cceKh6vb.s:63     .text:0000000000000048 .L0 
     /tmp/cceKh6vb.s:64     .text:0000000000000048 .L0 
     /tmp/cceKh6vb.s:66     .text:000000000000004c .L0 
     /tmp/cceKh6vb.s:68     .text:0000000000000050 .L0 
     /tmp/cceKh6vb.s:74     .text:0000000000000050 _ZdlPv
     /tmp/cceKh6vb.s:77     .text:0000000000000050 .L0 
     /tmp/cceKh6vb.s:1008   .data.rel.local.DW.ref.__gxx_personality_v0:0000000000000000 DW.ref.__gxx_personality_v0
     /tmp/cceKh6vb.s:81     .text:0000000000000050 .L0 
     /tmp/cceKh6vb.s:82     .text:0000000000000054 .L0 
     /tmp/cceKh6vb.s:85     .text:000000000000005c .L0 
     /tmp/cceKh6vb.s:86     .text:000000000000005c .L0 
     /tmp/cceKh6vb.s:88     .text:0000000000000060 .L0 
     /tmp/cceKh6vb.s:90     .text:0000000000000060 .L0 
     /tmp/cceKh6vb.s:91     .text:0000000000000060 .L0 
     /tmp/cceKh6vb.s:94     .text:0000000000000068 .L0 
     /tmp/cceKh6vb.s:95     .text:000000000000006c .L0 
     /tmp/cceKh6vb.s:97     .text:0000000000000070 .L0 
     /tmp/cceKh6vb.s:98     .text:0000000000000070 .L0 
     /tmp/cceKh6vb.s:100    .text:0000000000000074 .L0 
     /tmp/cceKh6vb.s:102    .text:0000000000000078 .L0 
     /tmp/cceKh6vb.s:116    .text:0000000000000078 _ZdaPv
     /tmp/cceKh6vb.s:119    .text:0000000000000078 .L0 
     /tmp/cceKh6vb.s:123    .text:0000000000000078 .L0 
     /tmp/cceKh6vb.s:124    .text:000000000000007c .L0 
     /tmp/cceKh6vb.s:127    .text:0000000000000084 .L0 
     /tmp/cceKh6vb.s:128    .text:0000000000000084 .L0 
     /tmp/cceKh6vb.s:130    .text:0000000000000088 .L0 
     /tmp/cceKh6vb.s:132    .text:0000000000000088 .L0 
     /tmp/cceKh6vb.s:133    .text:0000000000000088 .L0 
GAS LISTING /tmp/cceKh6vb.s 			page 6


     /tmp/cceKh6vb.s:136    .text:0000000000000090 .L0 
     /tmp/cceKh6vb.s:137    .text:0000000000000094 .L0 
     /tmp/cceKh6vb.s:139    .text:0000000000000098 .L0 
     /tmp/cceKh6vb.s:140    .text:0000000000000098 .L0 
     /tmp/cceKh6vb.s:142    .text:000000000000009c .L0 
     /tmp/cceKh6vb.s:144    .text:00000000000000a0 .L0 
     /tmp/cceKh6vb.s:157    .text:00000000000000a0 .L0 
     /tmp/cceKh6vb.s:546    .debug_abbrev:0000000000000000 .Ldebug_abbrev0
     /tmp/cceKh6vb.s:952    .debug_str:000000000000014e .LASF47
     /tmp/cceKh6vb.s:928    .debug_str:00000000000000a3 .LASF48
     /tmp/cceKh6vb.s:968    .debug_str:0000000000000269 .LASF49
     /tmp/cceKh6vb.s:5      .text:0000000000000000 .Ltext0
     /tmp/cceKh6vb.s:154    .text:00000000000000a0 .Letext0
     /tmp/cceKh6vb.s:900    .debug_line:0000000000000000 .Ldebug_line0
     /tmp/cceKh6vb.s:962    .debug_str:0000000000000241 .LASF0
     /tmp/cceKh6vb.s:948    .debug_str:000000000000012f .LASF1
     /tmp/cceKh6vb.s:936    .debug_str:00000000000000e3 .LASF2
     /tmp/cceKh6vb.s:920    .debug_str:0000000000000076 .LASF4
     /tmp/cceKh6vb.s:944    .debug_str:0000000000000110 .LASF3
     /tmp/cceKh6vb.s:906    .debug_str:0000000000000021 .LASF5
     /tmp/cceKh6vb.s:904    .debug_str:000000000000000e .LASF6
     /tmp/cceKh6vb.s:930    .debug_str:00000000000000b0 .LASF7
     /tmp/cceKh6vb.s:912    .debug_str:0000000000000041 .LASF8
     /tmp/cceKh6vb.s:918    .debug_str:0000000000000068 .LASF9
     /tmp/cceKh6vb.s:1000   .debug_str:000000000000033f .LASF10
     /tmp/cceKh6vb.s:932    .debug_str:00000000000000c3 .LASF11
     /tmp/cceKh6vb.s:984    .debug_str:00000000000002ec .LASF12
     /tmp/cceKh6vb.s:972    .debug_str:0000000000000299 .LASF13
     /tmp/cceKh6vb.s:950    .debug_str:0000000000000142 .LASF14
     /tmp/cceKh6vb.s:924    .debug_str:0000000000000082 .LASF15
     /tmp/cceKh6vb.s:970    .debug_str:0000000000000283 .LASF16
     /tmp/cceKh6vb.s:922    .debug_str:000000000000007d .LASF17
     /tmp/cceKh6vb.s:908    .debug_str:0000000000000028 .LASF18
     /tmp/cceKh6vb.s:966    .debug_str:000000000000025e .LASF19
     /tmp/cceKh6vb.s:942    .debug_str:0000000000000103 .LASF20
     /tmp/cceKh6vb.s:926    .debug_str:0000000000000098 .LASF21
     /tmp/cceKh6vb.s:996    .debug_str:000000000000032a .LASF22
     /tmp/cceKh6vb.s:980    .debug_str:00000000000002d5 .LASF23
     /tmp/cceKh6vb.s:976    .debug_str:00000000000002b2 .LASF24
     /tmp/cceKh6vb.s:956    .debug_str:000000000000021d .LASF25
     /tmp/cceKh6vb.s:940    .debug_str:00000000000000f7 .LASF26
     /tmp/cceKh6vb.s:958    .debug_str:0000000000000228 .LASF27
     /tmp/cceKh6vb.s:910    .debug_str:0000000000000034 .LASF28
     /tmp/cceKh6vb.s:946    .debug_str:0000000000000122 .LASF29
     /tmp/cceKh6vb.s:954    .debug_str:0000000000000212 .LASF30
     /tmp/cceKh6vb.s:992    .debug_str:000000000000031a .LASF31
     /tmp/cceKh6vb.s:982    .debug_str:00000000000002e1 .LASF32
     /tmp/cceKh6vb.s:934    .debug_str:00000000000000d2 .LASF33
     /tmp/cceKh6vb.s:978    .debug_str:00000000000002c2 .LASF34
     /tmp/cceKh6vb.s:914    .debug_str:0000000000000051 .LASF36
     /tmp/cceKh6vb.s:117    .text:0000000000000078 .LFB6
     /tmp/cceKh6vb.s:145    .text:00000000000000a0 .LFE6
     /tmp/cceKh6vb.s:831    .debug_loc:0000000000000000 .LLST3
     /tmp/cceKh6vb.s:134    .text:0000000000000090 .LVL7
     /tmp/cceKh6vb.s:964    .debug_str:000000000000024e .LASF35
     /tmp/cceKh6vb.s:986    .debug_str:00000000000002fc .LASF37
     /tmp/cceKh6vb.s:75     .text:0000000000000050 .LFB5
GAS LISTING /tmp/cceKh6vb.s 			page 7


     /tmp/cceKh6vb.s:103    .text:0000000000000078 .LFE5
     /tmp/cceKh6vb.s:845    .debug_loc:0000000000000039 .LLST2
     /tmp/cceKh6vb.s:92     .text:0000000000000068 .LVL5
     /tmp/cceKh6vb.s:916    .debug_str:0000000000000058 .LASF39
     /tmp/cceKh6vb.s:938    .debug_str:00000000000000f1 .LASF41
     /tmp/cceKh6vb.s:43     .text:0000000000000028 .LFB4
     /tmp/cceKh6vb.s:69     .text:0000000000000050 .LFE4
     /tmp/cceKh6vb.s:994    .debug_str:0000000000000325 .LASF38
     /tmp/cceKh6vb.s:859    .debug_loc:0000000000000072 .LLST1
     /tmp/cceKh6vb.s:58     .text:0000000000000040 .LVL3
     /tmp/cceKh6vb.s:988    .debug_str:0000000000000303 .LASF40
     /tmp/cceKh6vb.s:998    .debug_str:0000000000000339 .LASF42
     /tmp/cceKh6vb.s:10     .text:0000000000000000 .LFB3
     /tmp/cceKh6vb.s:37     .text:0000000000000028 .LFE3
     /tmp/cceKh6vb.s:873    .debug_loc:00000000000000ab .LLST0
     /tmp/cceKh6vb.s:26     .text:0000000000000018 .LVL1
     /tmp/cceKh6vb.s:902    .debug_str:0000000000000000 .LASF43
     /tmp/cceKh6vb.s:974    .debug_str:00000000000002a9 .LASF45
     /tmp/cceKh6vb.s:960    .debug_str:0000000000000233 .LASF44
     /tmp/cceKh6vb.s:990    .debug_str:0000000000000310 .LASF46
     /tmp/cceKh6vb.s:122    .text:0000000000000078 .LVL6
     /tmp/cceKh6vb.s:80     .text:0000000000000050 .LVL4
     /tmp/cceKh6vb.s:46     .text:0000000000000028 .LVL2
     /tmp/cceKh6vb.s:14     .text:0000000000000000 .LVL0
     /tmp/cceKh6vb.s:158    .debug_info:0000000000000000 .Ldebug_info0
     /tmp/cceKh6vb.s:106    .gcc_except_table:0000000000000000 .LLSDA5
     /tmp/cceKh6vb.s:147    .gcc_except_table:0000000000000004 .LLSDA6

UNDEFINED SYMBOLS
_Z9mem_allocm
_Z8mem_freePv
__gxx_personality_v0
