GAS LISTING /tmp/ccnjWafj.s 			page 1


   1              		.file	"_new.cpp"
   2              		.option pic
   3              		.option norelax
   4              		.text
   5              	.Ltext0:
   6              		.align	2
   7              		.globl	_Znwm
   9              	_Znwm:
  10              	.LFB3:
  11              		.file 1 "src/_new.cpp"
   1:src/_new.cpp  **** #include "../h/memoryAllocator.h"
   2:src/_new.cpp  **** 
   3:src/_new.cpp  **** 
   4:src/_new.cpp  **** void *operator new(size_t size) {
  12              		.loc 1 4 33
  13              		.cfi_startproc
  14              	.LVL0:
  15 0000 130101FF 		addi	sp,sp,-16
  16              		.cfi_def_cfa_offset 16
  17 0004 23341100 		sd	ra,8(sp)
  18 0008 23308100 		sd	s0,0(sp)
  19              		.cfi_offset 1, -8
  20              		.cfi_offset 8, -16
  21 000c 13040101 		addi	s0,sp,16
  22              		.cfi_def_cfa 8, 0
   5:src/_new.cpp  ****     size = size % MEM_BLOCK_SIZE == 0 ? size / MEM_BLOCK_SIZE : (size / MEM_BLOCK_SIZE + 1 ); //pre
  23              		.loc 1 5 5
  24              		.loc 1 5 17 is_stmt 0
  25 0010 9377F503 		andi	a5,a0,63
  26              		.loc 1 5 39
  27 0014 63900702 		bnez	a5,.L2
  28              		.loc 1 5 39 discriminator 1
  29 0018 13556500 		srli	a0,a0,6
  30              	.LVL1:
  31              	.L3:
   6:src/_new.cpp  ****     return MemoryAllocator::mem_alloc(size);
  32              		.loc 1 6 5 is_stmt 1 discriminator 4
  33              		.loc 1 6 38 is_stmt 0 discriminator 4
  34 001c 97000000 		call	_ZN15MemoryAllocator9mem_allocEm@plt
  34      E7800000 
  35              	.LVL2:
   7:src/_new.cpp  **** }
  36              		.loc 1 7 1 discriminator 4
  37 0024 83308100 		ld	ra,8(sp)
  38              		.cfi_remember_state
  39              		.cfi_restore 1
  40 0028 03340100 		ld	s0,0(sp)
  41              		.cfi_restore 8
  42              		.cfi_def_cfa 2, 16
  43 002c 13010101 		addi	sp,sp,16
  44              		.cfi_def_cfa_offset 0
  45 0030 67800000 		jr	ra
  46              	.LVL3:
  47              	.L2:
  48              		.cfi_restore_state
   5:src/_new.cpp  ****     size = size % MEM_BLOCK_SIZE == 0 ? size / MEM_BLOCK_SIZE : (size / MEM_BLOCK_SIZE + 1 ); //pre
  49              		.loc 1 5 71 discriminator 2
GAS LISTING /tmp/ccnjWafj.s 			page 2


  50 0034 13556500 		srli	a0,a0,6
  51              	.LVL4:
   5:src/_new.cpp  ****     size = size % MEM_BLOCK_SIZE == 0 ? size / MEM_BLOCK_SIZE : (size / MEM_BLOCK_SIZE + 1 ); //pre
  52              		.loc 1 5 39 discriminator 2
  53 0038 13051500 		addi	a0,a0,1
  54 003c 6FF01FFE 		j	.L3
  55              		.cfi_endproc
  56              	.LFE3:
  58              		.align	2
  59              		.globl	_Znam
  61              	_Znam:
  62              	.LFB4:
   8:src/_new.cpp  **** 
   9:src/_new.cpp  **** void *operator new[](size_t size) {
  63              		.loc 1 9 35 is_stmt 1
  64              		.cfi_startproc
  65              	.LVL5:
  66 0040 130101FF 		addi	sp,sp,-16
  67              		.cfi_def_cfa_offset 16
  68 0044 23341100 		sd	ra,8(sp)
  69 0048 23308100 		sd	s0,0(sp)
  70              		.cfi_offset 1, -8
  71              		.cfi_offset 8, -16
  72 004c 13040101 		addi	s0,sp,16
  73              		.cfi_def_cfa 8, 0
  10:src/_new.cpp  ****     size = size % MEM_BLOCK_SIZE == 0 ? size / MEM_BLOCK_SIZE : (size / MEM_BLOCK_SIZE + 1 ); //pre
  74              		.loc 1 10 5
  75              		.loc 1 10 17 is_stmt 0
  76 0050 9377F503 		andi	a5,a0,63
  77              		.loc 1 10 39
  78 0054 63900702 		bnez	a5,.L6
  79              		.loc 1 10 39 discriminator 1
  80 0058 13556500 		srli	a0,a0,6
  81              	.LVL6:
  82              	.L7:
  11:src/_new.cpp  ****     return MemoryAllocator::mem_alloc(size);
  83              		.loc 1 11 5 is_stmt 1 discriminator 4
  84              		.loc 1 11 38 is_stmt 0 discriminator 4
  85 005c 97000000 		call	_ZN15MemoryAllocator9mem_allocEm@plt
  85      E7800000 
  86              	.LVL7:
  12:src/_new.cpp  **** }
  87              		.loc 1 12 1 discriminator 4
  88 0064 83308100 		ld	ra,8(sp)
  89              		.cfi_remember_state
  90              		.cfi_restore 1
  91 0068 03340100 		ld	s0,0(sp)
  92              		.cfi_restore 8
  93              		.cfi_def_cfa 2, 16
  94 006c 13010101 		addi	sp,sp,16
  95              		.cfi_def_cfa_offset 0
  96 0070 67800000 		jr	ra
  97              	.LVL8:
  98              	.L6:
  99              		.cfi_restore_state
  10:src/_new.cpp  ****     size = size % MEM_BLOCK_SIZE == 0 ? size / MEM_BLOCK_SIZE : (size / MEM_BLOCK_SIZE + 1 ); //pre
 100              		.loc 1 10 71 discriminator 2
GAS LISTING /tmp/ccnjWafj.s 			page 3


 101 0074 13556500 		srli	a0,a0,6
 102              	.LVL9:
  10:src/_new.cpp  ****     size = size % MEM_BLOCK_SIZE == 0 ? size / MEM_BLOCK_SIZE : (size / MEM_BLOCK_SIZE + 1 ); //pre
 103              		.loc 1 10 39 discriminator 2
 104 0078 13051500 		addi	a0,a0,1
 105 007c 6FF01FFE 		j	.L7
 106              		.cfi_endproc
 107              	.LFE4:
 109              		.align	2
 110              		.globl	_ZdlPv
 112              	_ZdlPv:
 113              	.LFB5:
  13:src/_new.cpp  **** 
  14:src/_new.cpp  **** void operator delete(void *p) noexcept { MemoryAllocator::mem_free(p); }
 114              		.loc 1 14 40 is_stmt 1
 115              		.cfi_startproc
 116              		.cfi_personality 0x9b,DW.ref.__gxx_personality_v0
 117              		.cfi_lsda 0x1b,.LLSDA5
 118              	.LVL10:
 119 0080 130101FF 		addi	sp,sp,-16
 120              		.cfi_def_cfa_offset 16
 121 0084 23341100 		sd	ra,8(sp)
 122 0088 23308100 		sd	s0,0(sp)
 123              		.cfi_offset 1, -8
 124              		.cfi_offset 8, -16
 125 008c 13040101 		addi	s0,sp,16
 126              		.cfi_def_cfa 8, 0
 127              		.loc 1 14 42
 128              		.loc 1 14 67 is_stmt 0
 129 0090 97000000 		call	_ZN15MemoryAllocator8mem_freeEPv@plt
 129      E7800000 
 130              	.LVL11:
 131              		.loc 1 14 72
 132 0098 83308100 		ld	ra,8(sp)
 133              		.cfi_restore 1
 134 009c 03340100 		ld	s0,0(sp)
 135              		.cfi_restore 8
 136              		.cfi_def_cfa 2, 16
 137 00a0 13010101 		addi	sp,sp,16
 138              		.cfi_def_cfa_offset 0
 139 00a4 67800000 		jr	ra
 140              		.cfi_endproc
 141              	.LFE5:
 142              		.globl	__gxx_personality_v0
 143              		.section	.gcc_except_table,"a",@progbits
 144              	.LLSDA5:
 145 0000 FF       		.byte	0xff
 146 0001 FF       		.byte	0xff
 147 0002 03       		.byte	0x3
 148 0003 00       		.byte	0
 149              		.text
 151              		.align	2
 152              		.globl	_ZdaPv
 154              	_ZdaPv:
 155              	.LFB6:
  15:src/_new.cpp  **** 
  16:src/_new.cpp  **** void operator delete[](void *p) noexcept { MemoryAllocator::mem_free(p); }
GAS LISTING /tmp/ccnjWafj.s 			page 4


 156              		.loc 1 16 42 is_stmt 1
 157              		.cfi_startproc
 158              		.cfi_personality 0x9b,DW.ref.__gxx_personality_v0
 159              		.cfi_lsda 0x1b,.LLSDA6
 160              	.LVL12:
 161 00a8 130101FF 		addi	sp,sp,-16
 162              		.cfi_def_cfa_offset 16
 163 00ac 23341100 		sd	ra,8(sp)
 164 00b0 23308100 		sd	s0,0(sp)
 165              		.cfi_offset 1, -8
 166              		.cfi_offset 8, -16
 167 00b4 13040101 		addi	s0,sp,16
 168              		.cfi_def_cfa 8, 0
 169              		.loc 1 16 44
 170              		.loc 1 16 69 is_stmt 0
 171 00b8 97000000 		call	_ZN15MemoryAllocator8mem_freeEPv@plt
 171      E7800000 
 172              	.LVL13:
 173              		.loc 1 16 74
 174 00c0 83308100 		ld	ra,8(sp)
 175              		.cfi_restore 1
 176 00c4 03340100 		ld	s0,0(sp)
 177              		.cfi_restore 8
 178              		.cfi_def_cfa 2, 16
 179 00c8 13010101 		addi	sp,sp,16
 180              		.cfi_def_cfa_offset 0
 181 00cc 67800000 		jr	ra
 182              		.cfi_endproc
 183              	.LFE6:
 184              		.section	.gcc_except_table
 185              	.LLSDA6:
 186 0004 FF       		.byte	0xff
 187 0005 FF       		.byte	0xff
 188 0006 03       		.byte	0x3
 189 0007 00       		.byte	0
 190              		.text
 192              	.Letext0:
 193              		.file 2 "src/../h/../lib/hw.h"
 194              		.file 3 "src/../h/memoryAllocator.h"
 1236              		.align	3
 1239              	DW.ref.__gxx_personality_v0:
 1240 0000 00000000 		.dword	__gxx_personality_v0
 1240      00000000 
 1241              		.ident	"GCC: (Ubuntu 9.4.0-1ubuntu1~20.04) 9.4.0"
 1242              		.section	.note.GNU-stack,"",@progbits
GAS LISTING /tmp/ccnjWafj.s 			page 5

