GAS LISTING /tmp/ccsewCsR.s 			page 1


   1              		.file	"main.cpp"
   2              		.option pic
   3              		.option norelax
   4              		.text
   5              	.Ltext0:
   6              		.align	2
   7              		.globl	main
   9              	main:
  10              	.LFB32:
  11              		.file 1 "src/main.cpp"
   1:src/main.cpp  **** #include "../h/pcb.h"
   2:src/main.cpp  **** #include "../h/syscall_c.h"
   3:src/main.cpp  **** #include "../lib/mem.h"
   4:src/main.cpp  **** #include "../lib/hw.h"
   5:src/main.cpp  **** #include "../h/queue.h"
   6:src/main.cpp  **** #include "../h/sem.h"
   7:src/main.cpp  **** #include "../test/printing.hpp"
   8:src/main.cpp  **** 
   9:src/main.cpp  **** extern void userMain();
  10:src/main.cpp  **** 
  11:src/main.cpp  **** void main() {
  12              		.loc 1 11 13
  13              		.cfi_startproc
  14 0000 130101FE 		addi	sp,sp,-32
  15              		.cfi_def_cfa_offset 32
  16 0004 233C1100 		sd	ra,24(sp)
  17 0008 23388100 		sd	s0,16(sp)
  18              		.cfi_offset 1, -8
  19              		.cfi_offset 8, -16
  20 000c 13040102 		addi	s0,sp,32
  21              		.cfi_def_cfa 8, 0
  12:src/main.cpp  ****     PCB* th;
  22              		.loc 1 12 5
  13:src/main.cpp  ****     thread_create(&th, nullptr, nullptr);
  23              		.loc 1 13 5
  24              		.loc 1 13 18 is_stmt 0
  25 0010 13060000 		li	a2,0
  26 0014 93050000 		li	a1,0
  27 0018 130584FE 		addi	a0,s0,-24
  28 001c 97000000 		call	_Z13thread_createPP3PCBPFvPvES2_@plt
  28      E7800000 
  29              	.LVL0:
  14:src/main.cpp  ****     PCB::running = th;
  30              		.loc 1 14 5 is_stmt 1
  31              		.loc 1 14 18 is_stmt 0
  32 0024 97070000 		la	a5,_ZN3PCB7runningE
  32      83B70700 
  33 002c 033784FE 		ld	a4,-24(s0)
  34 0030 23B0E700 		sd	a4,0(a5)
  15:src/main.cpp  ****     userMain();
  35              		.loc 1 15 5 is_stmt 1
  36              		.loc 1 15 13 is_stmt 0
  37 0034 97000000 		call	_Z8userMainv@plt
  37      E7800000 
  38              	.LVL1:
  16:src/main.cpp  **** }
  39              		.loc 1 16 1
GAS LISTING /tmp/ccsewCsR.s 			page 2


  40 003c 83308101 		ld	ra,24(sp)
  41              		.cfi_restore 1
  42 0040 03340101 		ld	s0,16(sp)
  43              		.cfi_restore 8
  44              		.cfi_def_cfa 2, 32
  45 0044 13010102 		addi	sp,sp,32
  46              		.cfi_def_cfa_offset 0
  47 0048 67800000 		jr	ra
  48              		.cfi_endproc
  49              	.LFE32:
  51              	.Letext0:
  52              		.file 2 "src/../h/../lib/hw.h"
  53              		.file 3 "src/../h/pcb.h"
  54              		.file 4 "src/../h/syscall_c.h"
GAS LISTING /tmp/ccsewCsR.s 			page 3

