GAS LISTING /tmp/cc1yLnZa.s 			page 1


   1              		.file	"pcb.cpp"
   2              		.option pic
   3              		.option norelax
   4              		.text
   5              	.Ltext0:
   6              		.align	2
   7              		.globl	_ZN3PCB11bodyWrapperEPv
   9              	_ZN3PCB11bodyWrapperEPv:
  10              	.LFB47:
  11              		.file 1 "src/pcb.cpp"
   1:src/pcb.cpp   **** #include "../h/pcb.h"
   2:src/pcb.cpp   **** #include "../h/riscv.h"
   3:src/pcb.cpp   **** 
   4:src/pcb.cpp   **** PCB *PCB::running = nullptr;
   5:src/pcb.cpp   **** uint64 PCB::timeSliceCnt = 0;
   6:src/pcb.cpp   **** 
   7:src/pcb.cpp   **** PCB *PCB::createProcess(Body body, uint64* stack, void* arg, bool put) {
   8:src/pcb.cpp   ****     return new PCB(body, stack, arg, put);
   9:src/pcb.cpp   **** }
  10:src/pcb.cpp   **** 
  11:src/pcb.cpp   **** void PCB::yield() {
  12:src/pcb.cpp   ****     Riscv::pushRegisters();
  13:src/pcb.cpp   **** 
  14:src/pcb.cpp   ****     PCB::dispatch();
  15:src/pcb.cpp   **** 
  16:src/pcb.cpp   ****     Riscv::popRegisters();
  17:src/pcb.cpp   **** }
  18:src/pcb.cpp   **** 
  19:src/pcb.cpp   **** void PCB::dispatch() {
  20:src/pcb.cpp   ****     PCB *old = running;
  21:src/pcb.cpp   ****     if (!old->isFinished() && !old->isBlocked()) { Scheduler::put(old); }
  22:src/pcb.cpp   ****     running = Scheduler::get();
  23:src/pcb.cpp   **** 
  24:src/pcb.cpp   ****     PCB::contextSwitch(&old->context, &running->context);
  25:src/pcb.cpp   **** }
  26:src/pcb.cpp   **** 
  27:src/pcb.cpp   **** void PCB::bodyWrapper(void* dummy) {
  12              		.loc 1 27 36
  13              		.cfi_startproc
  14              	.LVL0:
  15 0000 130101FF 		addi	sp,sp,-16
  16              		.cfi_def_cfa_offset 16
  17 0004 23341100 		sd	ra,8(sp)
  18 0008 23308100 		sd	s0,0(sp)
  19              		.cfi_offset 1, -8
  20              		.cfi_offset 8, -16
  21 000c 13040101 		addi	s0,sp,16
  22              		.cfi_def_cfa 8, 0
  28:src/pcb.cpp   ****     running->body(running->arg);
  23              		.loc 1 28 5
  24              		.loc 1 28 14 is_stmt 0
  25 0010 97070000 		ld	a5,.LANCHOR0
  25      83B70700 
  26 0018 03B78700 		ld	a4,8(a5)
  27              		.loc 1 28 18
  28 001c 03B50701 		ld	a0,16(a5)
  29              	.LVL1:
GAS LISTING /tmp/cc1yLnZa.s 			page 2


  30 0020 E7000700 		jalr	a4
  31              	.LVL2:
  29:src/pcb.cpp   ****     thread_exit();
  32              		.loc 1 29 5 is_stmt 1
  33              		.loc 1 29 16 is_stmt 0
  34 0024 97000000 		call	_Z11thread_exitv@plt
  34      E7800000 
  35              	.LVL3:
  30:src/pcb.cpp   **** }
  36              		.loc 1 30 1
  37 002c 83308100 		ld	ra,8(sp)
  38              		.cfi_restore 1
  39 0030 03340100 		ld	s0,0(sp)
  40              		.cfi_restore 8
  41              		.cfi_def_cfa 2, 16
  42 0034 13010101 		addi	sp,sp,16
  43              		.cfi_def_cfa_offset 0
  44 0038 67800000 		jr	ra
  45              		.cfi_endproc
  46              	.LFE47:
  48              		.align	2
  49              		.globl	_ZN3PCB13createProcessEPFvPvEPmS0_b
  51              	_ZN3PCB13createProcessEPFvPvEPmS0_b:
  52              	.LFB44:
   7:src/pcb.cpp   ****     return new PCB(body, stack, arg, put);
  53              		.loc 1 7 72 is_stmt 1
  54              		.cfi_startproc
  55              		.cfi_personality 0x9b,DW.ref.__gxx_personality_v0
  56              		.cfi_lsda 0x1b,.LLSDA44
  57              	.LVL4:
  58 003c 130101FC 		addi	sp,sp,-64
  59              		.cfi_def_cfa_offset 64
  60 0040 233C1102 		sd	ra,56(sp)
  61 0044 23388102 		sd	s0,48(sp)
  62 0048 23349102 		sd	s1,40(sp)
  63 004c 23302103 		sd	s2,32(sp)
  64 0050 233C3101 		sd	s3,24(sp)
  65 0054 23384101 		sd	s4,16(sp)
  66 0058 23345101 		sd	s5,8(sp)
  67              		.cfi_offset 1, -8
  68              		.cfi_offset 8, -16
  69              		.cfi_offset 9, -24
  70              		.cfi_offset 18, -32
  71              		.cfi_offset 19, -40
  72              		.cfi_offset 20, -48
  73              		.cfi_offset 21, -56
  74 005c 13040104 		addi	s0,sp,64
  75              		.cfi_def_cfa 8, 0
  76 0060 93090500 		mv	s3,a0
  77 0064 13890500 		mv	s2,a1
  78 0068 130A0600 		mv	s4,a2
  79 006c 938A0600 		mv	s5,a3
   8:src/pcb.cpp   **** }
  80              		.loc 1 8 5
   8:src/pcb.cpp   **** }
  81              		.loc 1 8 41 is_stmt 0
  82 0070 13058003 		li	a0,56
GAS LISTING /tmp/cc1yLnZa.s 			page 3


  83              	.LVL5:
  84              	.LEHB0:
  85 0074 97000000 		call	_Znwm@plt
  85      E7800000 
  86              	.LVL6:
  87              	.LEHE0:
  88 007c 93040500 		mv	s1,a0
  89              	.LVL7:
  90              	.LBB9:
  91              	.LBB10:
  92              		.file 2 "src/../h/pcb.h"
   1:src/../h/pcb.h **** #ifndef PROJEKAT_PCB_H
   2:src/../h/pcb.h **** #define PROJEKAT_PCB_H
   3:src/../h/pcb.h **** 
   4:src/../h/pcb.h **** #include "../lib/hw.h"
   5:src/../h/pcb.h **** #include "scheduler.h"
   6:src/../h/pcb.h **** #include "syscall_c.h"
   7:src/../h/pcb.h **** 
   8:src/../h/pcb.h **** class PCB
   9:src/../h/pcb.h **** {
  10:src/../h/pcb.h **** public:
  11:src/../h/pcb.h ****     ~PCB() { delete[] stack; }
  12:src/../h/pcb.h **** 
  13:src/../h/pcb.h ****     bool isFinished() const { return finished; }
  14:src/../h/pcb.h **** 
  15:src/../h/pcb.h ****     void setFinished(bool value) { finished = value; }
  16:src/../h/pcb.h **** 
  17:src/../h/pcb.h ****     bool isBlocked() const { return blocked; }
  18:src/../h/pcb.h **** 
  19:src/../h/pcb.h ****     void setBlocked(bool value) { blocked = value; }
  20:src/../h/pcb.h **** 
  21:src/../h/pcb.h ****     using Body = void (*)(void*);
  22:src/../h/pcb.h **** 
  23:src/../h/pcb.h ****     static PCB *createProcess(Body body, uint64* stack, void* arg, bool put);
  24:src/../h/pcb.h **** 
  25:src/../h/pcb.h ****     static void yield();
  26:src/../h/pcb.h **** 
  27:src/../h/pcb.h ****     static void bodyWrapper(void*);
  28:src/../h/pcb.h **** 
  29:src/../h/pcb.h ****     static PCB *running;
  30:src/../h/pcb.h **** 
  31:src/../h/pcb.h ****     static uint64 timeSliceCnt;
  32:src/../h/pcb.h **** 
  33:src/../h/pcb.h ****     uint64 timeSlice;
  34:src/../h/pcb.h **** 
  35:src/../h/pcb.h ****     static void dispatch();
  36:src/../h/pcb.h **** 
  37:src/../h/pcb.h **** private:
  38:src/../h/pcb.h ****     explicit PCB(Body body, uint64* stck, void* ar, bool put) :
  39:src/../h/pcb.h ****             timeSlice(DEFAULT_TIME_SLICE),
  40:src/../h/pcb.h ****             body(body),
  41:src/../h/pcb.h ****             arg(ar),
  42:src/../h/pcb.h ****             stack(body != nullptr && stck != nullptr ? stck - DEFAULT_STACK_SIZE * sizeof(uint64) +
  43:src/../h/pcb.h ****             context({body != nullptr ? (uint64) &bodyWrapper : 0,
  44:src/../h/pcb.h ****                      stack != nullptr ? (uint64) stck : 0
  45:src/../h/pcb.h ****                     }),
  46:src/../h/pcb.h ****             finished(false),
GAS LISTING /tmp/cc1yLnZa.s 			page 4


  47:src/../h/pcb.h ****             blocked(false)
  93              		.loc 2 47 26
  94 0080 93072000 		li	a5,2
  95 0084 2330F500 		sd	a5,0(a0)
  96 0088 23343501 		sd	s3,8(a0)
  97 008c 23384501 		sd	s4,16(a0)
  42:src/../h/pcb.h ****             context({body != nullptr ? (uint64) &bodyWrapper : 0,
  98              		.loc 2 42 54
  99 0090 63840906 		beqz	s3,.L9
  42:src/../h/pcb.h ****             context({body != nullptr ? (uint64) &bodyWrapper : 0,
 100              		.loc 2 42 35
 101 0094 63060906 		beqz	s2,.L10
  42:src/../h/pcb.h ****             context({body != nullptr ? (uint64) &bodyWrapper : 0,
 102              		.loc 2 42 54
 103 0098 B707FCFF 		li	a5,-262144
 104 009c 93878700 		addi	a5,a5,8
 105 00a0 B307F900 		add	a5,s2,a5
 106              	.L4:
 107              		.loc 2 47 26
 108 00a4 23BCF400 		sd	a5,24(s1)
  43:src/../h/pcb.h ****                      stack != nullptr ? (uint64) stck : 0
 109              		.loc 2 43 38
 110 00a8 63800906 		beqz	s3,.L11
 111 00ac 17070000 		lla	a4,_ZN3PCB11bodyWrapperEPv
 111      13070700 
 112              	.L5:
 113              		.loc 2 47 26
 114 00b4 23B0E402 		sd	a4,32(s1)
  44:src/../h/pcb.h ****                     }),
 115              		.loc 2 44 39
 116 00b8 638C0704 		beqz	a5,.L15
 117              	.LVL8:
 118              	.L6:
 119              		.loc 2 47 26
 120 00bc 23B42403 		sd	s2,40(s1)
 121 00c0 23880402 		sb	zero,48(s1)
 122 00c4 A3880402 		sb	zero,49(s1)
  48:src/../h/pcb.h ****             { if (body != nullptr && put) { Scheduler::put(this); }
 123              		.loc 2 48 15 is_stmt 1
 124 00c8 63840900 		beqz	s3,.L3
 125              		.loc 2 48 35 is_stmt 0
 126 00cc 63960A04 		bnez	s5,.L16
 127              	.L3:
 128              	.LBE10:
 129              	.LBE9:
   9:src/pcb.cpp   **** 
 130              		.loc 1 9 1
 131 00d0 13850400 		mv	a0,s1
 132 00d4 83308103 		ld	ra,56(sp)
 133              		.cfi_remember_state
 134              		.cfi_restore 1
 135 00d8 03340103 		ld	s0,48(sp)
 136              		.cfi_restore 8
 137              		.cfi_def_cfa 2, 64
 138 00dc 83348102 		ld	s1,40(sp)
 139              		.cfi_restore 9
 140              	.LVL9:
GAS LISTING /tmp/cc1yLnZa.s 			page 5


 141 00e0 03390102 		ld	s2,32(sp)
 142              		.cfi_restore 18
 143 00e4 83398101 		ld	s3,24(sp)
 144              		.cfi_restore 19
 145              	.LVL10:
 146 00e8 033A0101 		ld	s4,16(sp)
 147              		.cfi_restore 20
 148              	.LVL11:
 149 00ec 833A8100 		ld	s5,8(sp)
 150              		.cfi_restore 21
 151              	.LVL12:
 152 00f0 13010104 		addi	sp,sp,64
 153              		.cfi_def_cfa_offset 0
 154 00f4 67800000 		jr	ra
 155              	.LVL13:
 156              	.L9:
 157              		.cfi_restore_state
 158              	.LBB12:
 159              	.LBB11:
  42:src/../h/pcb.h ****             context({body != nullptr ? (uint64) &bodyWrapper : 0,
 160              		.loc 2 42 54
 161 00f8 93070000 		li	a5,0
 162 00fc 6FF09FFA 		j	.L4
 163              	.L10:
 164 0100 93070900 		mv	a5,s2
 165 0104 6FF01FFA 		j	.L4
 166              	.L11:
  43:src/../h/pcb.h ****                      stack != nullptr ? (uint64) stck : 0
 167              		.loc 2 43 38
 168 0108 13070000 		li	a4,0
 169 010c 6FF09FFA 		j	.L5
 170              	.L15:
  44:src/../h/pcb.h ****                     }),
 171              		.loc 2 44 39
 172 0110 13090000 		li	s2,0
 173              	.LVL14:
 174 0114 6FF09FFA 		j	.L6
 175              	.L16:
 176              		.loc 2 48 45 is_stmt 1
 177              		.loc 2 48 59 is_stmt 0
 178 0118 13850400 		mv	a0,s1
 179              	.LEHB1:
 180 011c 97000000 		call	_ZN9Scheduler3putEP3PCB@plt
 180      E7800000 
 181              	.LVL15:
 182              	.LEHE1:
 183 0124 6FF0DFFA 		j	.L3
 184              	.L13:
 185 0128 13090500 		mv	s2,a0
 186              	.LBE11:
 187              	.LBE12:
   8:src/pcb.cpp   **** }
 188              		.loc 1 8 41
 189 012c 13850400 		mv	a0,s1
 190 0130 97000000 		call	_ZdlPv@plt
 190      E7800000 
 191              	.LVL16:
GAS LISTING /tmp/cc1yLnZa.s 			page 6


 192 0138 13050900 		mv	a0,s2
 193              	.LEHB2:
 194 013c 97000000 		call	_Unwind_Resume@plt
 194      E7800000 
 195              	.LVL17:
 196              	.LEHE2:
 197              		.cfi_endproc
 198              	.LFE44:
 199              		.globl	__gxx_personality_v0
 200              		.section	.gcc_except_table,"a",@progbits
 201              	.LLSDA44:
 202 0000 FF       		.byte	0xff
 203 0001 FF       		.byte	0xff
 204 0002 03       		.byte	0x3
 205 0003 27       		.byte	0x27
 206 0004 00000000 		.4byte	.LEHB0-.LFB44
 207 0008 00000000 		.4byte	.LEHE0-.LEHB0
 208 000c 00000000 		.4byte	0
 209 0010 00       		.byte	0
 210 0011 00000000 		.4byte	.LEHB1-.LFB44
 211 0015 00000000 		.4byte	.LEHE1-.LEHB1
 212 0019 00000000 		.4byte	.L13-.LFB44
 213 001d 00       		.byte	0
 214 001e 00000000 		.4byte	.LEHB2-.LFB44
 215 0022 00000000 		.4byte	.LEHE2-.LEHB2
 216 0026 00000000 		.4byte	0
 217 002a 00       		.byte	0
 218              		.text
 220              		.align	2
 221              		.globl	_ZN3PCB8dispatchEv
 223              	_ZN3PCB8dispatchEv:
 224              	.LFB46:
  19:src/pcb.cpp   ****     PCB *old = running;
 225              		.loc 1 19 22 is_stmt 1
 226              		.cfi_startproc
 227 0144 130101FE 		addi	sp,sp,-32
 228              		.cfi_def_cfa_offset 32
 229 0148 233C1100 		sd	ra,24(sp)
 230 014c 23388100 		sd	s0,16(sp)
 231 0150 23349100 		sd	s1,8(sp)
 232              		.cfi_offset 1, -8
 233              		.cfi_offset 8, -16
 234              		.cfi_offset 9, -24
 235 0154 13040102 		addi	s0,sp,32
 236              		.cfi_def_cfa 8, 0
  20:src/pcb.cpp   ****     if (!old->isFinished() && !old->isBlocked()) { Scheduler::put(old); }
 237              		.loc 1 20 5
  20:src/pcb.cpp   ****     if (!old->isFinished() && !old->isBlocked()) { Scheduler::put(old); }
 238              		.loc 1 20 10 is_stmt 0
 239 0158 97040000 		ld	s1,.LANCHOR0
 239      83B40400 
 240              	.LVL18:
  21:src/pcb.cpp   ****     running = Scheduler::get();
 241              		.loc 1 21 5 is_stmt 1
 242              	.LBB13:
 243              	.LBB14:
  13:src/../h/pcb.h **** 
GAS LISTING /tmp/cc1yLnZa.s 			page 7


 244              		.loc 2 13 31
  13:src/../h/pcb.h **** 
 245              		.loc 2 13 38 is_stmt 0
 246 0160 83C70403 		lbu	a5,48(s1)
 247              	.LVL19:
 248              	.LBE14:
 249              	.LBE13:
  21:src/pcb.cpp   ****     running = Scheduler::get();
 250              		.loc 1 21 28
 251 0164 63960700 		bnez	a5,.L18
 252              	.LVL20:
 253              	.LBB15:
 254              	.LBB16:
  17:src/../h/pcb.h **** 
 255              		.loc 2 17 30 is_stmt 1
  17:src/../h/pcb.h **** 
 256              		.loc 2 17 37 is_stmt 0
 257 0168 83C71403 		lbu	a5,49(s1)
 258              	.LVL21:
 259              	.LBE16:
 260              	.LBE15:
  21:src/pcb.cpp   ****     running = Scheduler::get();
 261              		.loc 1 21 28
 262 016c 638C0702 		beqz	a5,.L20
 263              	.L18:
  22:src/pcb.cpp   **** 
 264              		.loc 1 22 5 is_stmt 1
  22:src/pcb.cpp   **** 
 265              		.loc 1 22 29 is_stmt 0
 266 0170 97000000 		call	_ZN9Scheduler3getEv@plt
 266      E7800000 
 267              	.LVL22:
  22:src/pcb.cpp   **** 
 268              		.loc 1 22 13
 269 0178 97070000 		sd	a0,.LANCHOR0,a5
 269      23B0A700 
  24:src/pcb.cpp   **** }
 270              		.loc 1 24 5 is_stmt 1
  24:src/pcb.cpp   **** }
 271              		.loc 1 24 23 is_stmt 0
 272 0180 93050502 		addi	a1,a0,32
 273 0184 13850402 		addi	a0,s1,32
 274 0188 97000000 		call	_ZN3PCB13contextSwitchEPNS_7ContextES1_@plt
 274      E7800000 
 275              	.LVL23:
  25:src/pcb.cpp   **** 
 276              		.loc 1 25 1
 277 0190 83308101 		ld	ra,24(sp)
 278              		.cfi_remember_state
 279              		.cfi_restore 1
 280 0194 03340101 		ld	s0,16(sp)
 281              		.cfi_restore 8
 282              		.cfi_def_cfa 2, 32
 283 0198 83348100 		ld	s1,8(sp)
 284              		.cfi_restore 9
 285              	.LVL24:
 286 019c 13010102 		addi	sp,sp,32
GAS LISTING /tmp/cc1yLnZa.s 			page 8


 287              		.cfi_def_cfa_offset 0
 288 01a0 67800000 		jr	ra
 289              	.LVL25:
 290              	.L20:
 291              		.cfi_restore_state
  21:src/pcb.cpp   ****     running = Scheduler::get();
 292              		.loc 1 21 52 is_stmt 1
  21:src/pcb.cpp   ****     running = Scheduler::get();
 293              		.loc 1 21 66 is_stmt 0
 294 01a4 13850400 		mv	a0,s1
 295 01a8 97000000 		call	_ZN9Scheduler3putEP3PCB@plt
 295      E7800000 
 296              	.LVL26:
 297 01b0 6FF01FFC 		j	.L18
 298              		.cfi_endproc
 299              	.LFE46:
 301              		.align	2
 302              		.globl	_ZN3PCB5yieldEv
 304              	_ZN3PCB5yieldEv:
 305              	.LFB45:
  11:src/pcb.cpp   ****     Riscv::pushRegisters();
 306              		.loc 1 11 19 is_stmt 1
 307              		.cfi_startproc
 308 01b4 130101FF 		addi	sp,sp,-16
 309              		.cfi_def_cfa_offset 16
 310 01b8 23341100 		sd	ra,8(sp)
 311 01bc 23308100 		sd	s0,0(sp)
 312              		.cfi_offset 1, -8
 313              		.cfi_offset 8, -16
 314 01c0 13040101 		addi	s0,sp,16
 315              		.cfi_def_cfa 8, 0
  12:src/pcb.cpp   **** 
 316              		.loc 1 12 5
  12:src/pcb.cpp   **** 
 317              		.loc 1 12 25 is_stmt 0
 318 01c4 97000000 		call	_ZN5Riscv13pushRegistersEv@plt
 318      E7800000 
 319              	.LVL27:
  14:src/pcb.cpp   **** 
 320              		.loc 1 14 5 is_stmt 1
  14:src/pcb.cpp   **** 
 321              		.loc 1 14 18 is_stmt 0
 322 01cc 97000000 		call	_ZN3PCB8dispatchEv
 322      E7800000 
 323              	.LVL28:
  16:src/pcb.cpp   **** }
 324              		.loc 1 16 5 is_stmt 1
  16:src/pcb.cpp   **** }
 325              		.loc 1 16 24 is_stmt 0
 326 01d4 97000000 		call	_ZN5Riscv12popRegistersEv@plt
 326      E7800000 
 327              	.LVL29:
  17:src/pcb.cpp   **** 
 328              		.loc 1 17 1
 329 01dc 83308100 		ld	ra,8(sp)
 330              		.cfi_restore 1
 331 01e0 03340100 		ld	s0,0(sp)
GAS LISTING /tmp/cc1yLnZa.s 			page 9


 332              		.cfi_restore 8
 333              		.cfi_def_cfa 2, 16
 334 01e4 13010101 		addi	sp,sp,16
 335              		.cfi_def_cfa_offset 0
 336 01e8 67800000 		jr	ra
 337              		.cfi_endproc
 338              	.LFE45:
 340              		.globl	_ZN3PCB12timeSliceCntE
 341              		.globl	_ZN3PCB7runningE
 342              		.bss
 343              		.align	3
 344              		.set	.LANCHOR0,. + 0
 347              	_ZN3PCB7runningE:
 348 0000 00000000 		.zero	8
 348      00000000 
 351              	_ZN3PCB12timeSliceCntE:
 352 0008 00000000 		.zero	8
 352      00000000 
 353              		.text
 354              	.Letext0:
 355              		.file 3 "src/../h/../lib/hw.h"
 356              		.file 4 "src/../h/scheduler.h"
 357              		.file 5 "src/../h/syscall_c.h"
 358              		.file 6 "src/../h/riscv.h"
 2820              		.align	3
 2823              	DW.ref.__gxx_personality_v0:
 2824 0000 00000000 		.dword	__gxx_personality_v0
 2824      00000000 
 2825              		.ident	"GCC: (Ubuntu 9.4.0-1ubuntu1~20.04) 9.4.0"
 2826              		.section	.note.GNU-stack,"",@progbits
GAS LISTING /tmp/cc1yLnZa.s 			page 10


DEFINED SYMBOLS
                            *ABS*:0000000000000000 pcb.cpp
     /tmp/cc1yLnZa.s:9      .text:0000000000000000 _ZN3PCB11bodyWrapperEPv
     /tmp/cc1yLnZa.s:13     .text:0000000000000000 .L0 
     /tmp/cc1yLnZa.s:15     .text:0000000000000000 .L0 
     /tmp/cc1yLnZa.s:16     .text:0000000000000004 .L0 
     /tmp/cc1yLnZa.s:19     .text:000000000000000c .L0 
     /tmp/cc1yLnZa.s:20     .text:000000000000000c .L0 
     /tmp/cc1yLnZa.s:22     .text:0000000000000010 .L0 
     /tmp/cc1yLnZa.s:24     .text:0000000000000010 .L0 
     /tmp/cc1yLnZa.s:25     .text:0000000000000010 .L0 
     /tmp/cc1yLnZa.s:28     .text:000000000000001c .L0 
     /tmp/cc1yLnZa.s:33     .text:0000000000000024 .L0 
     /tmp/cc1yLnZa.s:34     .text:0000000000000024 .L0 
     /tmp/cc1yLnZa.s:37     .text:000000000000002c .L0 
     /tmp/cc1yLnZa.s:38     .text:0000000000000030 .L0 
     /tmp/cc1yLnZa.s:40     .text:0000000000000034 .L0 
     /tmp/cc1yLnZa.s:41     .text:0000000000000034 .L0 
     /tmp/cc1yLnZa.s:43     .text:0000000000000038 .L0 
     /tmp/cc1yLnZa.s:45     .text:000000000000003c .L0 
     /tmp/cc1yLnZa.s:51     .text:000000000000003c _ZN3PCB13createProcessEPFvPvEPmS0_b
     /tmp/cc1yLnZa.s:54     .text:000000000000003c .L0 
     /tmp/cc1yLnZa.s:2823   .data.rel.local.DW.ref.__gxx_personality_v0:0000000000000000 DW.ref.__gxx_personality_v0
     /tmp/cc1yLnZa.s:58     .text:000000000000003c .L0 
     /tmp/cc1yLnZa.s:59     .text:0000000000000040 .L0 
     /tmp/cc1yLnZa.s:67     .text:000000000000005c .L0 
     /tmp/cc1yLnZa.s:68     .text:000000000000005c .L0 
     /tmp/cc1yLnZa.s:69     .text:000000000000005c .L0 
     /tmp/cc1yLnZa.s:70     .text:000000000000005c .L0 
     /tmp/cc1yLnZa.s:71     .text:000000000000005c .L0 
     /tmp/cc1yLnZa.s:72     .text:000000000000005c .L0 
     /tmp/cc1yLnZa.s:73     .text:000000000000005c .L0 
     /tmp/cc1yLnZa.s:75     .text:0000000000000060 .L0 
     /tmp/cc1yLnZa.s:81     .text:0000000000000070 .L0 
     /tmp/cc1yLnZa.s:82     .text:0000000000000070 .L0 
     /tmp/cc1yLnZa.s:94     .text:0000000000000080 .L0 
     /tmp/cc1yLnZa.s:99     .text:0000000000000090 .L0 
     /tmp/cc1yLnZa.s:101    .text:0000000000000094 .L0 
     /tmp/cc1yLnZa.s:103    .text:0000000000000098 .L0 
     /tmp/cc1yLnZa.s:108    .text:00000000000000a4 .L0 
     /tmp/cc1yLnZa.s:110    .text:00000000000000a8 .L0 
     /tmp/cc1yLnZa.s:114    .text:00000000000000b4 .L0 
     /tmp/cc1yLnZa.s:116    .text:00000000000000b8 .L0 
     /tmp/cc1yLnZa.s:120    .text:00000000000000bc .L0 
     /tmp/cc1yLnZa.s:124    .text:00000000000000c8 .L0 
     /tmp/cc1yLnZa.s:126    .text:00000000000000cc .L0 
     /tmp/cc1yLnZa.s:131    .text:00000000000000d0 .L0 
     /tmp/cc1yLnZa.s:133    .text:00000000000000d8 .L0 
     /tmp/cc1yLnZa.s:134    .text:00000000000000d8 .L0 
     /tmp/cc1yLnZa.s:136    .text:00000000000000dc .L0 
     /tmp/cc1yLnZa.s:137    .text:00000000000000dc .L0 
     /tmp/cc1yLnZa.s:139    .text:00000000000000e0 .L0 
     /tmp/cc1yLnZa.s:142    .text:00000000000000e4 .L0 
     /tmp/cc1yLnZa.s:144    .text:00000000000000e8 .L0 
     /tmp/cc1yLnZa.s:147    .text:00000000000000ec .L0 
     /tmp/cc1yLnZa.s:150    .text:00000000000000f0 .L0 
     /tmp/cc1yLnZa.s:153    .text:00000000000000f4 .L0 
GAS LISTING /tmp/cc1yLnZa.s 			page 11


     /tmp/cc1yLnZa.s:157    .text:00000000000000f8 .L0 
     /tmp/cc1yLnZa.s:161    .text:00000000000000f8 .L0 
     /tmp/cc1yLnZa.s:168    .text:0000000000000108 .L0 
     /tmp/cc1yLnZa.s:172    .text:0000000000000110 .L0 
     /tmp/cc1yLnZa.s:177    .text:0000000000000118 .L0 
     /tmp/cc1yLnZa.s:178    .text:0000000000000118 .L0 
     /tmp/cc1yLnZa.s:189    .text:000000000000012c .L0 
     /tmp/cc1yLnZa.s:197    .text:0000000000000144 .L0 
     /tmp/cc1yLnZa.s:223    .text:0000000000000144 _ZN3PCB8dispatchEv
     /tmp/cc1yLnZa.s:226    .text:0000000000000144 .L0 
     /tmp/cc1yLnZa.s:227    .text:0000000000000144 .L0 
     /tmp/cc1yLnZa.s:228    .text:0000000000000148 .L0 
     /tmp/cc1yLnZa.s:232    .text:0000000000000154 .L0 
     /tmp/cc1yLnZa.s:233    .text:0000000000000154 .L0 
     /tmp/cc1yLnZa.s:234    .text:0000000000000154 .L0 
     /tmp/cc1yLnZa.s:236    .text:0000000000000158 .L0 
     /tmp/cc1yLnZa.s:238    .text:0000000000000158 .L0 
     /tmp/cc1yLnZa.s:239    .text:0000000000000158 .L0 
     /tmp/cc1yLnZa.s:244    .text:0000000000000160 .L0 
     /tmp/cc1yLnZa.s:245    .text:0000000000000160 .L0 
     /tmp/cc1yLnZa.s:246    .text:0000000000000160 .L0 
     /tmp/cc1yLnZa.s:251    .text:0000000000000164 .L0 
     /tmp/cc1yLnZa.s:256    .text:0000000000000168 .L0 
     /tmp/cc1yLnZa.s:257    .text:0000000000000168 .L0 
     /tmp/cc1yLnZa.s:262    .text:000000000000016c .L0 
     /tmp/cc1yLnZa.s:265    .text:0000000000000170 .L0 
     /tmp/cc1yLnZa.s:266    .text:0000000000000170 .L0 
     /tmp/cc1yLnZa.s:269    .text:0000000000000178 .L0 
     /tmp/cc1yLnZa.s:271    .text:0000000000000180 .L0 
     /tmp/cc1yLnZa.s:272    .text:0000000000000180 .L0 
     /tmp/cc1yLnZa.s:277    .text:0000000000000190 .L0 
     /tmp/cc1yLnZa.s:278    .text:0000000000000194 .L0 
     /tmp/cc1yLnZa.s:279    .text:0000000000000194 .L0 
     /tmp/cc1yLnZa.s:281    .text:0000000000000198 .L0 
     /tmp/cc1yLnZa.s:282    .text:0000000000000198 .L0 
     /tmp/cc1yLnZa.s:284    .text:000000000000019c .L0 
     /tmp/cc1yLnZa.s:287    .text:00000000000001a0 .L0 
     /tmp/cc1yLnZa.s:291    .text:00000000000001a4 .L0 
     /tmp/cc1yLnZa.s:293    .text:00000000000001a4 .L0 
     /tmp/cc1yLnZa.s:294    .text:00000000000001a4 .L0 
     /tmp/cc1yLnZa.s:298    .text:00000000000001b4 .L0 
     /tmp/cc1yLnZa.s:304    .text:00000000000001b4 _ZN3PCB5yieldEv
     /tmp/cc1yLnZa.s:307    .text:00000000000001b4 .L0 
     /tmp/cc1yLnZa.s:308    .text:00000000000001b4 .L0 
     /tmp/cc1yLnZa.s:309    .text:00000000000001b8 .L0 
     /tmp/cc1yLnZa.s:312    .text:00000000000001c0 .L0 
     /tmp/cc1yLnZa.s:313    .text:00000000000001c0 .L0 
     /tmp/cc1yLnZa.s:315    .text:00000000000001c4 .L0 
     /tmp/cc1yLnZa.s:317    .text:00000000000001c4 .L0 
     /tmp/cc1yLnZa.s:318    .text:00000000000001c4 .L0 
     /tmp/cc1yLnZa.s:321    .text:00000000000001cc .L0 
     /tmp/cc1yLnZa.s:322    .text:00000000000001cc .L0 
     /tmp/cc1yLnZa.s:325    .text:00000000000001d4 .L0 
     /tmp/cc1yLnZa.s:326    .text:00000000000001d4 .L0 
     /tmp/cc1yLnZa.s:329    .text:00000000000001dc .L0 
     /tmp/cc1yLnZa.s:330    .text:00000000000001e0 .L0 
     /tmp/cc1yLnZa.s:332    .text:00000000000001e4 .L0 
GAS LISTING /tmp/cc1yLnZa.s 			page 12


     /tmp/cc1yLnZa.s:333    .text:00000000000001e4 .L0 
     /tmp/cc1yLnZa.s:335    .text:00000000000001e8 .L0 
     /tmp/cc1yLnZa.s:337    .text:00000000000001ec .L0 
     /tmp/cc1yLnZa.s:351    .bss:0000000000000008 _ZN3PCB12timeSliceCntE
     /tmp/cc1yLnZa.s:347    .bss:0000000000000000 _ZN3PCB7runningE
     /tmp/cc1yLnZa.s:344    .bss:0000000000000000 .LANCHOR0
     /tmp/cc1yLnZa.s:359    .text:00000000000001ec .L0 
     /tmp/cc1yLnZa.s:25     .text:0000000000000010 .L0 
     /tmp/cc1yLnZa.s:111    .text:00000000000000ac .L0 
     /tmp/cc1yLnZa.s:239    .text:0000000000000158 .L0 
     /tmp/cc1yLnZa.s:269    .text:0000000000000178 .L0 
     /tmp/cc1yLnZa.s:156    .text:00000000000000f8 .L9
     /tmp/cc1yLnZa.s:163    .text:0000000000000100 .L10
     /tmp/cc1yLnZa.s:166    .text:0000000000000108 .L11
     /tmp/cc1yLnZa.s:170    .text:0000000000000110 .L15
     /tmp/cc1yLnZa.s:127    .text:00000000000000d0 .L3
     /tmp/cc1yLnZa.s:175    .text:0000000000000118 .L16
     /tmp/cc1yLnZa.s:106    .text:00000000000000a4 .L4
     /tmp/cc1yLnZa.s:112    .text:00000000000000b4 .L5
     /tmp/cc1yLnZa.s:118    .text:00000000000000bc .L6
     /tmp/cc1yLnZa.s:263    .text:0000000000000170 .L18
     /tmp/cc1yLnZa.s:290    .text:00000000000001a4 .L20
     /tmp/cc1yLnZa.s:84     .text:0000000000000074 .LEHB0
     /tmp/cc1yLnZa.s:52     .text:000000000000003c .LFB44
     /tmp/cc1yLnZa.s:87     .text:000000000000007c .LEHE0
     /tmp/cc1yLnZa.s:179    .text:000000000000011c .LEHB1
     /tmp/cc1yLnZa.s:182    .text:0000000000000124 .LEHE1
     /tmp/cc1yLnZa.s:184    .text:0000000000000128 .L13
     /tmp/cc1yLnZa.s:193    .text:000000000000013c .LEHB2
     /tmp/cc1yLnZa.s:196    .text:0000000000000144 .LEHE2
     /tmp/cc1yLnZa.s:1403   .debug_abbrev:0000000000000000 .Ldebug_abbrev0
     /tmp/cc1yLnZa.s:2771   .debug_str:00000000000005a0 .LASF108
     /tmp/cc1yLnZa.s:2639   .debug_str:00000000000001f5 .LASF109
     /tmp/cc1yLnZa.s:2711   .debug_str:00000000000003e1 .LASF110
     /tmp/cc1yLnZa.s:5      .text:0000000000000000 .Ltext0
     /tmp/cc1yLnZa.s:354    .text:00000000000001ec .Letext0
     /tmp/cc1yLnZa.s:2567   .debug_line:0000000000000000 .Ldebug_line0
     /tmp/cc1yLnZa.s:2697   .debug_str:000000000000038a .LASF0
     /tmp/cc1yLnZa.s:2709   .debug_str:00000000000003ce .LASF1
     /tmp/cc1yLnZa.s:2683   .debug_str:000000000000032a .LASF2
     /tmp/cc1yLnZa.s:2655   .debug_str:0000000000000277 .LASF4
     /tmp/cc1yLnZa.s:2751   .debug_str:000000000000050d .LASF3
     /tmp/cc1yLnZa.s:2597   .debug_str:00000000000000c3 .LASF5
     /tmp/cc1yLnZa.s:2715   .debug_str:0000000000000403 .LASF6
     /tmp/cc1yLnZa.s:2695   .debug_str:0000000000000377 .LASF7
     /tmp/cc1yLnZa.s:2785   .debug_str:00000000000006b4 .LASF8
     /tmp/cc1yLnZa.s:2643   .debug_str:0000000000000207 .LASF9
     /tmp/cc1yLnZa.s:2727   .debug_str:000000000000046a .LASF10
     /tmp/cc1yLnZa.s:2773   .debug_str:0000000000000664 .LASF11
     /tmp/cc1yLnZa.s:2599   .debug_str:00000000000000ca .LASF12
     /tmp/cc1yLnZa.s:2577   .debug_str:0000000000000037 .LASF13
     /tmp/cc1yLnZa.s:2609   .debug_str:0000000000000125 .LASF14
     /tmp/cc1yLnZa.s:2743   .debug_str:00000000000004d1 .LASF15
     /tmp/cc1yLnZa.s:2617   .debug_str:0000000000000147 .LASF16
     /tmp/cc1yLnZa.s:2723   .debug_str:0000000000000450 .LASF17
     /tmp/cc1yLnZa.s:2791   .debug_str:00000000000006ec .LASF32
     /tmp/cc1yLnZa.s:2653   .debug_str:0000000000000263 .LASF111
GAS LISTING /tmp/cc1yLnZa.s 			page 13


     /tmp/cc1yLnZa.s:2671   .debug_str:00000000000002d0 .LASF112
     /tmp/cc1yLnZa.s:2667   .debug_str:00000000000002b7 .LASF113
     /tmp/cc1yLnZa.s:2583   .debug_str:000000000000005d .LASF114
     /tmp/cc1yLnZa.s:2739   .debug_str:00000000000004c1 .LASF18
     /tmp/cc1yLnZa.s:2601   .debug_str:00000000000000da .LASF20
     /tmp/cc1yLnZa.s:2717   .debug_str:0000000000000416 .LASF22
     /tmp/cc1yLnZa.s:2719   .debug_str:0000000000000421 .LASF24
     /tmp/cc1yLnZa.s:2685   .debug_str:0000000000000338 .LASF19
     /tmp/cc1yLnZa.s:2585   .debug_str:0000000000000065 .LASF21
     /tmp/cc1yLnZa.s:2581   .debug_str:0000000000000053 .LASF23
     /tmp/cc1yLnZa.s:2665   .debug_str:00000000000002a2 .LASF25
     /tmp/cc1yLnZa.s:2657   .debug_str:000000000000027e .LASF26
     /tmp/cc1yLnZa.s:2731   .debug_str:0000000000000485 .LASF27
     /tmp/cc1yLnZa.s:2737   .debug_str:00000000000004b3 .LASF28
     /tmp/cc1yLnZa.s:2587   .debug_str:000000000000007c .LASF29
     /tmp/cc1yLnZa.s:2735   .debug_str:00000000000004ae .LASF115
     /tmp/cc1yLnZa.s:2745   .debug_str:00000000000004e7 .LASF34
     /tmp/cc1yLnZa.s:2789   .debug_str:00000000000006dc .LASF36
     /tmp/cc1yLnZa.s:2781   .debug_str:0000000000000697 .LASF38
     /tmp/cc1yLnZa.s:2721   .debug_str:0000000000000438 .LASF67
     /tmp/cc1yLnZa.s:2627   .debug_str:00000000000001aa .LASF30
     /tmp/cc1yLnZa.s:2797   .debug_str:0000000000000722 .LASF31
     /tmp/cc1yLnZa.s:2705   .debug_str:00000000000003be .LASF33
     /tmp/cc1yLnZa.s:2701   .debug_str:000000000000039e .LASF35
     /tmp/cc1yLnZa.s:2651   .debug_str:0000000000000250 .LASF37
     /tmp/cc1yLnZa.s:2703   .debug_str:00000000000003a7 .LASF116
     /tmp/cc1yLnZa.s:2629   .debug_str:00000000000001b2 .LASF117
     /tmp/cc1yLnZa.s:2661   .debug_str:0000000000000292 .LASF39
     /tmp/cc1yLnZa.s:2611   .debug_str:0000000000000131 .LASF40
     /tmp/cc1yLnZa.s:2747   .debug_str:00000000000004ed .LASF41
     /tmp/cc1yLnZa.s:2659   .debug_str:0000000000000289 .LASF42
     /tmp/cc1yLnZa.s:2569   .debug_str:0000000000000000 .LASF43
     /tmp/cc1yLnZa.s:2793   .debug_str:0000000000000700 .LASF118
     /tmp/cc1yLnZa.s:2605   .debug_str:00000000000000f3 .LASF119
     /tmp/cc1yLnZa.s:2579   .debug_str:0000000000000047 .LASF44
     /tmp/cc1yLnZa.s:2635   .debug_str:00000000000001d7 .LASF45
     /tmp/cc1yLnZa.s:2571   .debug_str:0000000000000008 .LASF46
     /tmp/cc1yLnZa.s:2613   .debug_str:0000000000000137 .LASF47
     /tmp/cc1yLnZa.s:2805   .debug_str:0000000000000766 .LASF48
     /tmp/cc1yLnZa.s:2729   .debug_str:0000000000000479 .LASF49
     /tmp/cc1yLnZa.s:2725   .debug_str:000000000000045a .LASF50
     /tmp/cc1yLnZa.s:2755   .debug_str:0000000000000526 .LASF51
     /tmp/cc1yLnZa.s:2801   .debug_str:0000000000000742 .LASF52
     /tmp/cc1yLnZa.s:2693   .debug_str:000000000000036c .LASF53
     /tmp/cc1yLnZa.s:2763   .debug_str:0000000000000563 .LASF54
     /tmp/cc1yLnZa.s:2813   .debug_str:0000000000000794 .LASF55
     /tmp/cc1yLnZa.s:2769   .debug_str:0000000000000595 .LASF56
     /tmp/cc1yLnZa.s:2633   .debug_str:00000000000001d2 .LASF57
     /tmp/cc1yLnZa.s:2707   .debug_str:00000000000003c8 .LASF58
     /tmp/cc1yLnZa.s:2741   .debug_str:00000000000004c6 .LASF59
     /tmp/cc1yLnZa.s:2803   .debug_str:000000000000074e .LASF60
     /tmp/cc1yLnZa.s:2593   .debug_str:00000000000000ad .LASF61
     /tmp/cc1yLnZa.s:2625   .debug_str:000000000000018f .LASF62
     /tmp/cc1yLnZa.s:2761   .debug_str:0000000000000556 .LASF63
     /tmp/cc1yLnZa.s:2575   .debug_str:000000000000001d .LASF64
     /tmp/cc1yLnZa.s:2681   .debug_str:0000000000000321 .LASF65
     /tmp/cc1yLnZa.s:2759   .debug_str:0000000000000541 .LASF70
GAS LISTING /tmp/cc1yLnZa.s 			page 14


     /tmp/cc1yLnZa.s:2623   .debug_str:0000000000000186 .LASF66
     /tmp/cc1yLnZa.s:2621   .debug_str:0000000000000171 .LASF68
     /tmp/cc1yLnZa.s:2753   .debug_str:000000000000051f .LASF69
     /tmp/cc1yLnZa.s:2733   .debug_str:000000000000049b .LASF71
     /tmp/cc1yLnZa.s:2775   .debug_str:0000000000000673 .LASF72
     /tmp/cc1yLnZa.s:2765   .debug_str:0000000000000570 .LASF73
     /tmp/cc1yLnZa.s:2713   .debug_str:00000000000003fb .LASF74
     /tmp/cc1yLnZa.s:2619   .debug_str:000000000000015d .LASF75
     /tmp/cc1yLnZa.s:2573   .debug_str:0000000000000015 .LASF76
     /tmp/cc1yLnZa.s:2647   .debug_str:000000000000022b .LASF77
     /tmp/cc1yLnZa.s:2595   .debug_str:00000000000000bb .LASF78
     /tmp/cc1yLnZa.s:2795   .debug_str:000000000000070e .LASF79
     /tmp/cc1yLnZa.s:2811   .debug_str:000000000000078c .LASF80
     /tmp/cc1yLnZa.s:2631   .debug_str:00000000000001be .LASF81
     /tmp/cc1yLnZa.s:2699   .debug_str:0000000000000397 .LASF82
     /tmp/cc1yLnZa.s:2799   .debug_str:000000000000072f .LASF83
     /tmp/cc1yLnZa.s:2591   .debug_str:00000000000000a6 .LASF84
     /tmp/cc1yLnZa.s:2637   .debug_str:00000000000001e2 .LASF85
     /tmp/cc1yLnZa.s:2641   .debug_str:0000000000000201 .LASF86
     /tmp/cc1yLnZa.s:2767   .debug_str:0000000000000583 .LASF87
     /tmp/cc1yLnZa.s:2589   .debug_str:00000000000000a0 .LASF88
     /tmp/cc1yLnZa.s:2815   .debug_str:000000000000079f .LASF89
     /tmp/cc1yLnZa.s:2809   .debug_str:0000000000000781 .LASF90
     /tmp/cc1yLnZa.s:2749   .debug_str:00000000000004f5 .LASF91
     /tmp/cc1yLnZa.s:2663   .debug_str:0000000000000297 .LASF92
     /tmp/cc1yLnZa.s:2673   .debug_str:00000000000002e8 .LASF93
     /tmp/cc1yLnZa.s:2607   .debug_str:000000000000011b .LASF94
     /tmp/cc1yLnZa.s:2677   .debug_str:0000000000000306 .LASF95
     /tmp/cc1yLnZa.s:2689   .debug_str:000000000000035b .LASF96
     /tmp/cc1yLnZa.s:2645   .debug_str:0000000000000215 .LASF120
     /tmp/cc1yLnZa.s:2649   .debug_str:000000000000023f .LASF97
     /tmp/cc1yLnZa.s:2687   .debug_str:0000000000000344 .LASF98
     /tmp/cc1yLnZa.s:10     .text:0000000000000000 .LFB47
     /tmp/cc1yLnZa.s:46     .text:000000000000003c .LFE47
     /tmp/cc1yLnZa.s:2777   .debug_str:000000000000067a .LASF99
     /tmp/cc1yLnZa.s:2333   .debug_loc:0000000000000000 .LLST0
     /tmp/cc1yLnZa.s:35     .text:000000000000002c .LVL3
     /tmp/cc1yLnZa.s:224    .text:0000000000000144 .LFB46
     /tmp/cc1yLnZa.s:299    .text:00000000000001b4 .LFE46
     /tmp/cc1yLnZa.s:2347   .debug_loc:0000000000000039 .LLST10
     /tmp/cc1yLnZa.s:242    .text:0000000000000160 .LBB13
     /tmp/cc1yLnZa.s:249    .text:0000000000000164 .LBE13
     /tmp/cc1yLnZa.s:2358   .debug_loc:000000000000006f .LLST11
     /tmp/cc1yLnZa.s:253    .text:0000000000000168 .LBB15
     /tmp/cc1yLnZa.s:260    .text:000000000000016c .LBE15
     /tmp/cc1yLnZa.s:2365   .debug_loc:0000000000000092 .LLST12
     /tmp/cc1yLnZa.s:267    .text:0000000000000178 .LVL22
     /tmp/cc1yLnZa.s:275    .text:0000000000000190 .LVL23
     /tmp/cc1yLnZa.s:296    .text:00000000000001b0 .LVL26
     /tmp/cc1yLnZa.s:305    .text:00000000000001b4 .LFB45
     /tmp/cc1yLnZa.s:338    .text:00000000000001ec .LFE45
     /tmp/cc1yLnZa.s:319    .text:00000000000001cc .LVL27
     /tmp/cc1yLnZa.s:323    .text:00000000000001d4 .LVL28
     /tmp/cc1yLnZa.s:327    .text:00000000000001dc .LVL29
     /tmp/cc1yLnZa.s:198    .text:0000000000000144 .LFE44
     /tmp/cc1yLnZa.s:2372   .debug_loc:00000000000000b5 .LLST1
     /tmp/cc1yLnZa.s:2394   .debug_loc:0000000000000114 .LLST2
GAS LISTING /tmp/cc1yLnZa.s 			page 15


     /tmp/cc1yLnZa.s:2423   .debug_loc:0000000000000189 .LLST3
     /tmp/cc1yLnZa.s:2445   .debug_loc:00000000000001e8 .LLST4
     /tmp/cc1yLnZa.s:90     .text:0000000000000080 .LBB9
     /tmp/cc1yLnZa.s:2559   .debug_ranges:0000000000000000 .Ldebug_ranges0
     /tmp/cc1yLnZa.s:2459   .debug_loc:0000000000000221 .LLST5
     /tmp/cc1yLnZa.s:2470   .debug_loc:0000000000000257 .LLST6
     /tmp/cc1yLnZa.s:2488   .debug_loc:00000000000002a3 .LLST7
     /tmp/cc1yLnZa.s:2513   .debug_loc:0000000000000305 .LLST8
     /tmp/cc1yLnZa.s:2531   .debug_loc:0000000000000351 .LLST9
     /tmp/cc1yLnZa.s:181    .text:0000000000000124 .LVL15
     /tmp/cc1yLnZa.s:86     .text:000000000000007c .LVL6
     /tmp/cc1yLnZa.s:191    .text:0000000000000138 .LVL16
     /tmp/cc1yLnZa.s:195    .text:0000000000000144 .LVL17
     /tmp/cc1yLnZa.s:2615   .debug_str:0000000000000142 .LASF101
     /tmp/cc1yLnZa.s:2679   .debug_str:000000000000031c .LASF100
     /tmp/cc1yLnZa.s:2779   .debug_str:0000000000000680 .LASF121
     /tmp/cc1yLnZa.s:2783   .debug_str:00000000000006a3 .LASF122
     /tmp/cc1yLnZa.s:2807   .debug_str:0000000000000775 .LASF123
     /tmp/cc1yLnZa.s:2675   .debug_str:0000000000000300 .LASF102
     /tmp/cc1yLnZa.s:2603   .debug_str:00000000000000e6 .LASF104
     /tmp/cc1yLnZa.s:2691   .debug_str:0000000000000365 .LASF103
     /tmp/cc1yLnZa.s:2757   .debug_str:0000000000000531 .LASF105
     /tmp/cc1yLnZa.s:2669   .debug_str:00000000000002c1 .LASF106
     /tmp/cc1yLnZa.s:2787   .debug_str:00000000000006c4 .LASF107
     /tmp/cc1yLnZa.s:14     .text:0000000000000000 .LVL0
     /tmp/cc1yLnZa.s:29     .text:0000000000000020 .LVL1
     /tmp/cc1yLnZa.s:240    .text:0000000000000160 .LVL18
     /tmp/cc1yLnZa.s:285    .text:000000000000019c .LVL24
     /tmp/cc1yLnZa.s:289    .text:00000000000001a4 .LVL25
     /tmp/cc1yLnZa.s:247    .text:0000000000000164 .LVL19
     /tmp/cc1yLnZa.s:252    .text:0000000000000168 .LVL20
     /tmp/cc1yLnZa.s:258    .text:000000000000016c .LVL21
     /tmp/cc1yLnZa.s:57     .text:000000000000003c .LVL4
     /tmp/cc1yLnZa.s:83     .text:0000000000000074 .LVL5
     /tmp/cc1yLnZa.s:145    .text:00000000000000e8 .LVL10
     /tmp/cc1yLnZa.s:155    .text:00000000000000f8 .LVL13
     /tmp/cc1yLnZa.s:117    .text:00000000000000bc .LVL8
     /tmp/cc1yLnZa.s:173    .text:0000000000000114 .LVL14
     /tmp/cc1yLnZa.s:148    .text:00000000000000ec .LVL11
     /tmp/cc1yLnZa.s:89     .text:0000000000000080 .LVL7
     /tmp/cc1yLnZa.s:151    .text:00000000000000f0 .LVL12
     /tmp/cc1yLnZa.s:140    .text:00000000000000e0 .LVL9
     /tmp/cc1yLnZa.s:360    .debug_info:0000000000000000 .Ldebug_info0
     /tmp/cc1yLnZa.s:129    .text:00000000000000d0 .LBE9
     /tmp/cc1yLnZa.s:158    .text:00000000000000f8 .LBB12
     /tmp/cc1yLnZa.s:187    .text:000000000000012c .LBE12
     /tmp/cc1yLnZa.s:201    .gcc_except_table:0000000000000000 .LLSDA44

UNDEFINED SYMBOLS
_Z11thread_exitv
_Znwm
_ZN9Scheduler3putEP3PCB
_ZdlPv
_Unwind_Resume
__gxx_personality_v0
_ZN9Scheduler3getEv
_ZN3PCB13contextSwitchEPNS_7ContextES1_
GAS LISTING /tmp/cc1yLnZa.s 			page 16


_ZN5Riscv13pushRegistersEv
_ZN5Riscv12popRegistersEv
