GAS LISTING /tmp/cc5XgVPR.s 			page 1


   1              		.file	"pcb.cpp"
   2              		.option pic
   3              		.option norelax
   4              		.text
   5              	.Ltext0:
   6              		.align	2
   7              		.globl	_ZN3PCB11bodyWrapperEPv
   9              	_ZN3PCB11bodyWrapperEPv:
  10              	.LFB37:
  11              		.file 1 "src/pcb.cpp"
   1:src/pcb.cpp   **** #include "../h/pcb.h"
   2:src/pcb.cpp   **** #include "../h/riscv.h"
   3:src/pcb.cpp   **** 
   4:src/pcb.cpp   **** PCB *PCB::running = nullptr;
   5:src/pcb.cpp   **** 
   6:src/pcb.cpp   **** PCB *PCB::createProcess(Body body, uint64* stack, void* arg, bool put) {
   7:src/pcb.cpp   ****     return new PCB(body, stack, arg, put);
   8:src/pcb.cpp   **** }
   9:src/pcb.cpp   **** 
  10:src/pcb.cpp   **** void PCB::yield() {
  11:src/pcb.cpp   ****     Riscv::pushRegisters();
  12:src/pcb.cpp   **** 
  13:src/pcb.cpp   ****     PCB::dispatch();
  14:src/pcb.cpp   **** 
  15:src/pcb.cpp   ****     Riscv::popRegisters();
  16:src/pcb.cpp   **** }
  17:src/pcb.cpp   **** 
  18:src/pcb.cpp   **** void PCB::dispatch() {
  19:src/pcb.cpp   ****     PCB *old = running;
  20:src/pcb.cpp   ****     if (!old->isFinished() && !old->isBlocked()) { Scheduler::put(old); }
  21:src/pcb.cpp   ****     running = Scheduler::get();
  22:src/pcb.cpp   **** 
  23:src/pcb.cpp   ****     PCB::contextSwitch(&old->context, &running->context);
  24:src/pcb.cpp   **** }
  25:src/pcb.cpp   **** 
  26:src/pcb.cpp   **** void PCB::bodyWrapper(void* dummy) {
  12              		.loc 1 26 36
  13              		.cfi_startproc
  14              	.LVL0:
  15 0000 130101FF 		addi	sp,sp,-16
  16              		.cfi_def_cfa_offset 16
  17 0004 23341100 		sd	ra,8(sp)
  18 0008 23308100 		sd	s0,0(sp)
  19              		.cfi_offset 1, -8
  20              		.cfi_offset 8, -16
  21 000c 13040101 		addi	s0,sp,16
  22              		.cfi_def_cfa 8, 0
  27:src/pcb.cpp   ****     running->body(running->arg);
  23              		.loc 1 27 5
  24              		.loc 1 27 14 is_stmt 0
  25 0010 97070000 		ld	a5,.LANCHOR0
  25      83B70700 
  26 0018 03B70700 		ld	a4,0(a5)
  27              		.loc 1 27 18
  28 001c 03B58700 		ld	a0,8(a5)
  29              	.LVL1:
  30 0020 E7000700 		jalr	a4
GAS LISTING /tmp/cc5XgVPR.s 			page 2


  31              	.LVL2:
  28:src/pcb.cpp   ****     thread_exit();
  32              		.loc 1 28 5 is_stmt 1
  33              		.loc 1 28 16 is_stmt 0
  34 0024 97000000 		call	_Z11thread_exitv@plt
  34      E7800000 
  35              	.LVL3:
  29:src/pcb.cpp   **** }
  36              		.loc 1 29 1
  37 002c 83308100 		ld	ra,8(sp)
  38              		.cfi_restore 1
  39 0030 03340100 		ld	s0,0(sp)
  40              		.cfi_restore 8
  41              		.cfi_def_cfa 2, 16
  42 0034 13010101 		addi	sp,sp,16
  43              		.cfi_def_cfa_offset 0
  44 0038 67800000 		jr	ra
  45              		.cfi_endproc
  46              	.LFE37:
  48              		.align	2
  49              		.globl	_ZN3PCB13createProcessEPFvPvEPmS0_b
  51              	_ZN3PCB13createProcessEPFvPvEPmS0_b:
  52              	.LFB34:
   6:src/pcb.cpp   ****     return new PCB(body, stack, arg, put);
  53              		.loc 1 6 72 is_stmt 1
  54              		.cfi_startproc
  55              		.cfi_personality 0x9b,DW.ref.__gxx_personality_v0
  56              		.cfi_lsda 0x1b,.LLSDA34
  57              	.LVL4:
  58 003c 130101FC 		addi	sp,sp,-64
  59              		.cfi_def_cfa_offset 64
  60 0040 233C1102 		sd	ra,56(sp)
  61 0044 23388102 		sd	s0,48(sp)
  62 0048 23349102 		sd	s1,40(sp)
  63 004c 23302103 		sd	s2,32(sp)
  64 0050 233C3101 		sd	s3,24(sp)
  65 0054 23384101 		sd	s4,16(sp)
  66 0058 23345101 		sd	s5,8(sp)
  67              		.cfi_offset 1, -8
  68              		.cfi_offset 8, -16
  69              		.cfi_offset 9, -24
  70              		.cfi_offset 18, -32
  71              		.cfi_offset 19, -40
  72              		.cfi_offset 20, -48
  73              		.cfi_offset 21, -56
  74 005c 13040104 		addi	s0,sp,64
  75              		.cfi_def_cfa 8, 0
  76 0060 93090500 		mv	s3,a0
  77 0064 13890500 		mv	s2,a1
  78 0068 130A0600 		mv	s4,a2
  79 006c 938A0600 		mv	s5,a3
   7:src/pcb.cpp   **** }
  80              		.loc 1 7 5
   7:src/pcb.cpp   **** }
  81              		.loc 1 7 41 is_stmt 0
  82 0070 13050003 		li	a0,48
  83              	.LVL5:
GAS LISTING /tmp/cc5XgVPR.s 			page 3


  84              	.LEHB0:
  85 0074 97000000 		call	_Znwm@plt
  85      E7800000 
  86              	.LVL6:
  87              	.LEHE0:
  88 007c 93040500 		mv	s1,a0
  89              	.LVL7:
  90              	.LBB9:
  91              	.LBB10:
  92              		.file 2 "src/../h/pcb.h"
   1:src/../h/pcb.h **** #ifndef PROJEKAT_PCB_H
   2:src/../h/pcb.h **** #define PROJEKAT_PCB_H
   3:src/../h/pcb.h **** 
   4:src/../h/pcb.h **** #include "../lib/hw.h"
   5:src/../h/pcb.h **** #include "scheduler.h"
   6:src/../h/pcb.h **** #include "syscall_c.h"
   7:src/../h/pcb.h **** 
   8:src/../h/pcb.h **** class PCB
   9:src/../h/pcb.h **** {
  10:src/../h/pcb.h **** public:
  11:src/../h/pcb.h ****     ~PCB() { delete[] stack; }
  12:src/../h/pcb.h **** 
  13:src/../h/pcb.h ****     bool isFinished() const { return finished; }
  14:src/../h/pcb.h **** 
  15:src/../h/pcb.h ****     void setFinished(bool value) { finished = value; }
  16:src/../h/pcb.h **** 
  17:src/../h/pcb.h ****     bool isBlocked() const { return blocked; }
  18:src/../h/pcb.h **** 
  19:src/../h/pcb.h ****     void setBlocked(bool value) { blocked = value; }
  20:src/../h/pcb.h **** 
  21:src/../h/pcb.h ****     using Body = void (*)(void*);
  22:src/../h/pcb.h **** 
  23:src/../h/pcb.h ****     static PCB *createProcess(Body body, uint64* stack, void* arg, bool put);
  24:src/../h/pcb.h **** 
  25:src/../h/pcb.h ****     static void yield();
  26:src/../h/pcb.h **** 
  27:src/../h/pcb.h ****     static void bodyWrapper(void*);
  28:src/../h/pcb.h **** 
  29:src/../h/pcb.h ****     static PCB *running;
  30:src/../h/pcb.h **** 
  31:src/../h/pcb.h **** private:
  32:src/../h/pcb.h ****     explicit PCB(Body body, uint64* stck, void* ar, bool put) :
  33:src/../h/pcb.h ****             body(body),
  34:src/../h/pcb.h ****             arg(ar),
  35:src/../h/pcb.h ****             stack(body != nullptr && stck != nullptr ? stck - DEFAULT_STACK_SIZE * sizeof(uint64) +
  36:src/../h/pcb.h ****             context({body != nullptr ? (uint64) &bodyWrapper : 0,
  37:src/../h/pcb.h ****                      stack != nullptr ? (uint64) stck : 0
  38:src/../h/pcb.h ****                     }),
  39:src/../h/pcb.h ****             finished(false),
  40:src/../h/pcb.h ****             blocked(false) {
  93              		.loc 2 40 26
  94 0080 23303501 		sd	s3,0(a0)
  95 0084 23344501 		sd	s4,8(a0)
  35:src/../h/pcb.h ****             context({body != nullptr ? (uint64) &bodyWrapper : 0,
  96              		.loc 2 35 54
  97 0088 63840906 		beqz	s3,.L9
  35:src/../h/pcb.h ****             context({body != nullptr ? (uint64) &bodyWrapper : 0,
GAS LISTING /tmp/cc5XgVPR.s 			page 4


  98              		.loc 2 35 35
  99 008c 63060906 		beqz	s2,.L10
  35:src/../h/pcb.h ****             context({body != nullptr ? (uint64) &bodyWrapper : 0,
 100              		.loc 2 35 54
 101 0090 B707FCFF 		li	a5,-262144
 102 0094 93878700 		addi	a5,a5,8
 103 0098 B307F900 		add	a5,s2,a5
 104              	.L4:
 105              		.loc 2 40 26
 106 009c 23B8F400 		sd	a5,16(s1)
  36:src/../h/pcb.h ****                      stack != nullptr ? (uint64) stck : 0
 107              		.loc 2 36 38
 108 00a0 63800906 		beqz	s3,.L11
 109 00a4 17070000 		lla	a4,_ZN3PCB11bodyWrapperEPv
 109      13070700 
 110              	.L5:
 111              		.loc 2 40 26
 112 00ac 23BCE400 		sd	a4,24(s1)
  37:src/../h/pcb.h ****                     }),
 113              		.loc 2 37 39
 114 00b0 638C0704 		beqz	a5,.L15
 115              	.LVL8:
 116              	.L6:
 117              		.loc 2 40 26
 118 00b4 23B02403 		sd	s2,32(s1)
 119 00b8 23840402 		sb	zero,40(s1)
 120 00bc A3840402 		sb	zero,41(s1)
  41:src/../h/pcb.h ****         if (body != nullptr && put) { Scheduler::put(this); }
 121              		.loc 2 41 9 is_stmt 1
 122 00c0 63840900 		beqz	s3,.L3
 123              		.loc 2 41 29 is_stmt 0
 124 00c4 63960A04 		bnez	s5,.L16
 125              	.L3:
 126              	.LBE10:
 127              	.LBE9:
   8:src/pcb.cpp   **** 
 128              		.loc 1 8 1
 129 00c8 13850400 		mv	a0,s1
 130 00cc 83308103 		ld	ra,56(sp)
 131              		.cfi_remember_state
 132              		.cfi_restore 1
 133 00d0 03340103 		ld	s0,48(sp)
 134              		.cfi_restore 8
 135              		.cfi_def_cfa 2, 64
 136 00d4 83348102 		ld	s1,40(sp)
 137              		.cfi_restore 9
 138              	.LVL9:
 139 00d8 03390102 		ld	s2,32(sp)
 140              		.cfi_restore 18
 141 00dc 83398101 		ld	s3,24(sp)
 142              		.cfi_restore 19
 143              	.LVL10:
 144 00e0 033A0101 		ld	s4,16(sp)
 145              		.cfi_restore 20
 146              	.LVL11:
 147 00e4 833A8100 		ld	s5,8(sp)
 148              		.cfi_restore 21
GAS LISTING /tmp/cc5XgVPR.s 			page 5


 149              	.LVL12:
 150 00e8 13010104 		addi	sp,sp,64
 151              		.cfi_def_cfa_offset 0
 152 00ec 67800000 		jr	ra
 153              	.LVL13:
 154              	.L9:
 155              		.cfi_restore_state
 156              	.LBB12:
 157              	.LBB11:
  35:src/../h/pcb.h ****             context({body != nullptr ? (uint64) &bodyWrapper : 0,
 158              		.loc 2 35 54
 159 00f0 93070000 		li	a5,0
 160 00f4 6FF09FFA 		j	.L4
 161              	.L10:
 162 00f8 93070900 		mv	a5,s2
 163 00fc 6FF01FFA 		j	.L4
 164              	.L11:
  36:src/../h/pcb.h ****                      stack != nullptr ? (uint64) stck : 0
 165              		.loc 2 36 38
 166 0100 13070000 		li	a4,0
 167 0104 6FF09FFA 		j	.L5
 168              	.L15:
  37:src/../h/pcb.h ****                     }),
 169              		.loc 2 37 39
 170 0108 13090000 		li	s2,0
 171              	.LVL14:
 172 010c 6FF09FFA 		j	.L6
 173              	.L16:
 174              		.loc 2 41 39 is_stmt 1
 175              		.loc 2 41 53 is_stmt 0
 176 0110 13850400 		mv	a0,s1
 177              	.LEHB1:
 178 0114 97000000 		call	_ZN9Scheduler3putEP3PCB@plt
 178      E7800000 
 179              	.LVL15:
 180              	.LEHE1:
 181 011c 6FF0DFFA 		j	.L3
 182              	.L13:
 183 0120 13090500 		mv	s2,a0
 184              	.LBE11:
 185              	.LBE12:
   7:src/pcb.cpp   **** }
 186              		.loc 1 7 41
 187 0124 13850400 		mv	a0,s1
 188 0128 97000000 		call	_ZdlPv@plt
 188      E7800000 
 189              	.LVL16:
 190 0130 13050900 		mv	a0,s2
 191              	.LEHB2:
 192 0134 97000000 		call	_Unwind_Resume@plt
 192      E7800000 
 193              	.LVL17:
 194              	.LEHE2:
 195              		.cfi_endproc
 196              	.LFE34:
 197              		.globl	__gxx_personality_v0
 198              		.section	.gcc_except_table,"a",@progbits
GAS LISTING /tmp/cc5XgVPR.s 			page 6


 199              	.LLSDA34:
 200 0000 FF       		.byte	0xff
 201 0001 FF       		.byte	0xff
 202 0002 03       		.byte	0x3
 203 0003 27       		.byte	0x27
 204 0004 00000000 		.4byte	.LEHB0-.LFB34
 205 0008 00000000 		.4byte	.LEHE0-.LEHB0
 206 000c 00000000 		.4byte	0
 207 0010 00       		.byte	0
 208 0011 00000000 		.4byte	.LEHB1-.LFB34
 209 0015 00000000 		.4byte	.LEHE1-.LEHB1
 210 0019 00000000 		.4byte	.L13-.LFB34
 211 001d 00       		.byte	0
 212 001e 00000000 		.4byte	.LEHB2-.LFB34
 213 0022 00000000 		.4byte	.LEHE2-.LEHB2
 214 0026 00000000 		.4byte	0
 215 002a 00       		.byte	0
 216              		.text
 218              		.align	2
 219              		.globl	_ZN3PCB8dispatchEv
 221              	_ZN3PCB8dispatchEv:
 222              	.LFB36:
  18:src/pcb.cpp   ****     PCB *old = running;
 223              		.loc 1 18 22 is_stmt 1
 224              		.cfi_startproc
 225 013c 130101FE 		addi	sp,sp,-32
 226              		.cfi_def_cfa_offset 32
 227 0140 233C1100 		sd	ra,24(sp)
 228 0144 23388100 		sd	s0,16(sp)
 229 0148 23349100 		sd	s1,8(sp)
 230              		.cfi_offset 1, -8
 231              		.cfi_offset 8, -16
 232              		.cfi_offset 9, -24
 233 014c 13040102 		addi	s0,sp,32
 234              		.cfi_def_cfa 8, 0
  19:src/pcb.cpp   ****     if (!old->isFinished() && !old->isBlocked()) { Scheduler::put(old); }
 235              		.loc 1 19 5
  19:src/pcb.cpp   ****     if (!old->isFinished() && !old->isBlocked()) { Scheduler::put(old); }
 236              		.loc 1 19 10 is_stmt 0
 237 0150 97040000 		ld	s1,.LANCHOR0
 237      83B40400 
 238              	.LVL18:
  20:src/pcb.cpp   ****     running = Scheduler::get();
 239              		.loc 1 20 5 is_stmt 1
 240              	.LBB13:
 241              	.LBB14:
  13:src/../h/pcb.h **** 
 242              		.loc 2 13 31
  13:src/../h/pcb.h **** 
 243              		.loc 2 13 38 is_stmt 0
 244 0158 83C78402 		lbu	a5,40(s1)
 245              	.LVL19:
 246              	.LBE14:
 247              	.LBE13:
  20:src/pcb.cpp   ****     running = Scheduler::get();
 248              		.loc 1 20 28
 249 015c 63960700 		bnez	a5,.L18
GAS LISTING /tmp/cc5XgVPR.s 			page 7


 250              	.LVL20:
 251              	.LBB15:
 252              	.LBB16:
  17:src/../h/pcb.h **** 
 253              		.loc 2 17 30 is_stmt 1
  17:src/../h/pcb.h **** 
 254              		.loc 2 17 37 is_stmt 0
 255 0160 83C79402 		lbu	a5,41(s1)
 256              	.LVL21:
 257              	.LBE16:
 258              	.LBE15:
  20:src/pcb.cpp   ****     running = Scheduler::get();
 259              		.loc 1 20 28
 260 0164 638C0702 		beqz	a5,.L20
 261              	.L18:
  21:src/pcb.cpp   **** 
 262              		.loc 1 21 5 is_stmt 1
  21:src/pcb.cpp   **** 
 263              		.loc 1 21 29 is_stmt 0
 264 0168 97000000 		call	_ZN9Scheduler3getEv@plt
 264      E7800000 
 265              	.LVL22:
  21:src/pcb.cpp   **** 
 266              		.loc 1 21 13
 267 0170 97070000 		sd	a0,.LANCHOR0,a5
 267      23B0A700 
  23:src/pcb.cpp   **** }
 268              		.loc 1 23 5 is_stmt 1
  23:src/pcb.cpp   **** }
 269              		.loc 1 23 23 is_stmt 0
 270 0178 93058501 		addi	a1,a0,24
 271 017c 13858401 		addi	a0,s1,24
 272 0180 97000000 		call	_ZN3PCB13contextSwitchEPNS_7ContextES1_@plt
 272      E7800000 
 273              	.LVL23:
  24:src/pcb.cpp   **** 
 274              		.loc 1 24 1
 275 0188 83308101 		ld	ra,24(sp)
 276              		.cfi_remember_state
 277              		.cfi_restore 1
 278 018c 03340101 		ld	s0,16(sp)
 279              		.cfi_restore 8
 280              		.cfi_def_cfa 2, 32
 281 0190 83348100 		ld	s1,8(sp)
 282              		.cfi_restore 9
 283              	.LVL24:
 284 0194 13010102 		addi	sp,sp,32
 285              		.cfi_def_cfa_offset 0
 286 0198 67800000 		jr	ra
 287              	.LVL25:
 288              	.L20:
 289              		.cfi_restore_state
  20:src/pcb.cpp   ****     running = Scheduler::get();
 290              		.loc 1 20 52 is_stmt 1
  20:src/pcb.cpp   ****     running = Scheduler::get();
 291              		.loc 1 20 66 is_stmt 0
 292 019c 13850400 		mv	a0,s1
GAS LISTING /tmp/cc5XgVPR.s 			page 8


 293 01a0 97000000 		call	_ZN9Scheduler3putEP3PCB@plt
 293      E7800000 
 294              	.LVL26:
 295 01a8 6FF01FFC 		j	.L18
 296              		.cfi_endproc
 297              	.LFE36:
 299              		.align	2
 300              		.globl	_ZN3PCB5yieldEv
 302              	_ZN3PCB5yieldEv:
 303              	.LFB35:
  10:src/pcb.cpp   ****     Riscv::pushRegisters();
 304              		.loc 1 10 19 is_stmt 1
 305              		.cfi_startproc
 306 01ac 130101FF 		addi	sp,sp,-16
 307              		.cfi_def_cfa_offset 16
 308 01b0 23341100 		sd	ra,8(sp)
 309 01b4 23308100 		sd	s0,0(sp)
 310              		.cfi_offset 1, -8
 311              		.cfi_offset 8, -16
 312 01b8 13040101 		addi	s0,sp,16
 313              		.cfi_def_cfa 8, 0
  11:src/pcb.cpp   **** 
 314              		.loc 1 11 5
  11:src/pcb.cpp   **** 
 315              		.loc 1 11 25 is_stmt 0
 316 01bc 97000000 		call	_ZN5Riscv13pushRegistersEv@plt
 316      E7800000 
 317              	.LVL27:
  13:src/pcb.cpp   **** 
 318              		.loc 1 13 5 is_stmt 1
  13:src/pcb.cpp   **** 
 319              		.loc 1 13 18 is_stmt 0
 320 01c4 97000000 		call	_ZN3PCB8dispatchEv
 320      E7800000 
 321              	.LVL28:
  15:src/pcb.cpp   **** }
 322              		.loc 1 15 5 is_stmt 1
  15:src/pcb.cpp   **** }
 323              		.loc 1 15 24 is_stmt 0
 324 01cc 97000000 		call	_ZN5Riscv12popRegistersEv@plt
 324      E7800000 
 325              	.LVL29:
  16:src/pcb.cpp   **** 
 326              		.loc 1 16 1
 327 01d4 83308100 		ld	ra,8(sp)
 328              		.cfi_restore 1
 329 01d8 03340100 		ld	s0,0(sp)
 330              		.cfi_restore 8
 331              		.cfi_def_cfa 2, 16
 332 01dc 13010101 		addi	sp,sp,16
 333              		.cfi_def_cfa_offset 0
 334 01e0 67800000 		jr	ra
 335              		.cfi_endproc
 336              	.LFE35:
 338              		.globl	_ZN3PCB7runningE
 339              		.bss
 340              		.align	3
GAS LISTING /tmp/cc5XgVPR.s 			page 9


 341              		.set	.LANCHOR0,. + 0
 344              	_ZN3PCB7runningE:
 345 0000 00000000 		.zero	8
 345      00000000 
 346              		.text
 347              	.Letext0:
 348              		.file 3 "src/../h/../lib/hw.h"
 349              		.file 4 "src/../h/syscall_c.h"
 350              		.file 5 "src/../h/scheduler.h"
 351              		.file 6 "src/../h/riscv.h"
 2752              		.align	3
 2755              	DW.ref.__gxx_personality_v0:
 2756 0000 00000000 		.dword	__gxx_personality_v0
 2756      00000000 
 2757              		.ident	"GCC: (Ubuntu 9.4.0-1ubuntu1~20.04) 9.4.0"
 2758              		.section	.note.GNU-stack,"",@progbits
GAS LISTING /tmp/cc5XgVPR.s 			page 10


DEFINED SYMBOLS
                            *ABS*:0000000000000000 pcb.cpp
     /tmp/cc5XgVPR.s:9      .text:0000000000000000 _ZN3PCB11bodyWrapperEPv
     /tmp/cc5XgVPR.s:13     .text:0000000000000000 .L0 
     /tmp/cc5XgVPR.s:15     .text:0000000000000000 .L0 
     /tmp/cc5XgVPR.s:16     .text:0000000000000004 .L0 
     /tmp/cc5XgVPR.s:19     .text:000000000000000c .L0 
     /tmp/cc5XgVPR.s:20     .text:000000000000000c .L0 
     /tmp/cc5XgVPR.s:22     .text:0000000000000010 .L0 
     /tmp/cc5XgVPR.s:24     .text:0000000000000010 .L0 
     /tmp/cc5XgVPR.s:25     .text:0000000000000010 .L0 
     /tmp/cc5XgVPR.s:28     .text:000000000000001c .L0 
     /tmp/cc5XgVPR.s:33     .text:0000000000000024 .L0 
     /tmp/cc5XgVPR.s:34     .text:0000000000000024 .L0 
     /tmp/cc5XgVPR.s:37     .text:000000000000002c .L0 
     /tmp/cc5XgVPR.s:38     .text:0000000000000030 .L0 
     /tmp/cc5XgVPR.s:40     .text:0000000000000034 .L0 
     /tmp/cc5XgVPR.s:41     .text:0000000000000034 .L0 
     /tmp/cc5XgVPR.s:43     .text:0000000000000038 .L0 
     /tmp/cc5XgVPR.s:45     .text:000000000000003c .L0 
     /tmp/cc5XgVPR.s:51     .text:000000000000003c _ZN3PCB13createProcessEPFvPvEPmS0_b
     /tmp/cc5XgVPR.s:54     .text:000000000000003c .L0 
     /tmp/cc5XgVPR.s:2755   .data.rel.local.DW.ref.__gxx_personality_v0:0000000000000000 DW.ref.__gxx_personality_v0
     /tmp/cc5XgVPR.s:58     .text:000000000000003c .L0 
     /tmp/cc5XgVPR.s:59     .text:0000000000000040 .L0 
     /tmp/cc5XgVPR.s:67     .text:000000000000005c .L0 
     /tmp/cc5XgVPR.s:68     .text:000000000000005c .L0 
     /tmp/cc5XgVPR.s:69     .text:000000000000005c .L0 
     /tmp/cc5XgVPR.s:70     .text:000000000000005c .L0 
     /tmp/cc5XgVPR.s:71     .text:000000000000005c .L0 
     /tmp/cc5XgVPR.s:72     .text:000000000000005c .L0 
     /tmp/cc5XgVPR.s:73     .text:000000000000005c .L0 
     /tmp/cc5XgVPR.s:75     .text:0000000000000060 .L0 
     /tmp/cc5XgVPR.s:81     .text:0000000000000070 .L0 
     /tmp/cc5XgVPR.s:82     .text:0000000000000070 .L0 
     /tmp/cc5XgVPR.s:94     .text:0000000000000080 .L0 
     /tmp/cc5XgVPR.s:97     .text:0000000000000088 .L0 
     /tmp/cc5XgVPR.s:99     .text:000000000000008c .L0 
     /tmp/cc5XgVPR.s:101    .text:0000000000000090 .L0 
     /tmp/cc5XgVPR.s:106    .text:000000000000009c .L0 
     /tmp/cc5XgVPR.s:108    .text:00000000000000a0 .L0 
     /tmp/cc5XgVPR.s:112    .text:00000000000000ac .L0 
     /tmp/cc5XgVPR.s:114    .text:00000000000000b0 .L0 
     /tmp/cc5XgVPR.s:118    .text:00000000000000b4 .L0 
     /tmp/cc5XgVPR.s:122    .text:00000000000000c0 .L0 
     /tmp/cc5XgVPR.s:124    .text:00000000000000c4 .L0 
     /tmp/cc5XgVPR.s:129    .text:00000000000000c8 .L0 
     /tmp/cc5XgVPR.s:131    .text:00000000000000d0 .L0 
     /tmp/cc5XgVPR.s:132    .text:00000000000000d0 .L0 
     /tmp/cc5XgVPR.s:134    .text:00000000000000d4 .L0 
     /tmp/cc5XgVPR.s:135    .text:00000000000000d4 .L0 
     /tmp/cc5XgVPR.s:137    .text:00000000000000d8 .L0 
     /tmp/cc5XgVPR.s:140    .text:00000000000000dc .L0 
     /tmp/cc5XgVPR.s:142    .text:00000000000000e0 .L0 
     /tmp/cc5XgVPR.s:145    .text:00000000000000e4 .L0 
     /tmp/cc5XgVPR.s:148    .text:00000000000000e8 .L0 
     /tmp/cc5XgVPR.s:151    .text:00000000000000ec .L0 
GAS LISTING /tmp/cc5XgVPR.s 			page 11


     /tmp/cc5XgVPR.s:155    .text:00000000000000f0 .L0 
     /tmp/cc5XgVPR.s:159    .text:00000000000000f0 .L0 
     /tmp/cc5XgVPR.s:166    .text:0000000000000100 .L0 
     /tmp/cc5XgVPR.s:170    .text:0000000000000108 .L0 
     /tmp/cc5XgVPR.s:175    .text:0000000000000110 .L0 
     /tmp/cc5XgVPR.s:176    .text:0000000000000110 .L0 
     /tmp/cc5XgVPR.s:187    .text:0000000000000124 .L0 
     /tmp/cc5XgVPR.s:195    .text:000000000000013c .L0 
     /tmp/cc5XgVPR.s:221    .text:000000000000013c _ZN3PCB8dispatchEv
     /tmp/cc5XgVPR.s:224    .text:000000000000013c .L0 
     /tmp/cc5XgVPR.s:225    .text:000000000000013c .L0 
     /tmp/cc5XgVPR.s:226    .text:0000000000000140 .L0 
     /tmp/cc5XgVPR.s:230    .text:000000000000014c .L0 
     /tmp/cc5XgVPR.s:231    .text:000000000000014c .L0 
     /tmp/cc5XgVPR.s:232    .text:000000000000014c .L0 
     /tmp/cc5XgVPR.s:234    .text:0000000000000150 .L0 
     /tmp/cc5XgVPR.s:236    .text:0000000000000150 .L0 
     /tmp/cc5XgVPR.s:237    .text:0000000000000150 .L0 
     /tmp/cc5XgVPR.s:242    .text:0000000000000158 .L0 
     /tmp/cc5XgVPR.s:243    .text:0000000000000158 .L0 
     /tmp/cc5XgVPR.s:244    .text:0000000000000158 .L0 
     /tmp/cc5XgVPR.s:249    .text:000000000000015c .L0 
     /tmp/cc5XgVPR.s:254    .text:0000000000000160 .L0 
     /tmp/cc5XgVPR.s:255    .text:0000000000000160 .L0 
     /tmp/cc5XgVPR.s:260    .text:0000000000000164 .L0 
     /tmp/cc5XgVPR.s:263    .text:0000000000000168 .L0 
     /tmp/cc5XgVPR.s:264    .text:0000000000000168 .L0 
     /tmp/cc5XgVPR.s:267    .text:0000000000000170 .L0 
     /tmp/cc5XgVPR.s:269    .text:0000000000000178 .L0 
     /tmp/cc5XgVPR.s:270    .text:0000000000000178 .L0 
     /tmp/cc5XgVPR.s:275    .text:0000000000000188 .L0 
     /tmp/cc5XgVPR.s:276    .text:000000000000018c .L0 
     /tmp/cc5XgVPR.s:277    .text:000000000000018c .L0 
     /tmp/cc5XgVPR.s:279    .text:0000000000000190 .L0 
     /tmp/cc5XgVPR.s:280    .text:0000000000000190 .L0 
     /tmp/cc5XgVPR.s:282    .text:0000000000000194 .L0 
     /tmp/cc5XgVPR.s:285    .text:0000000000000198 .L0 
     /tmp/cc5XgVPR.s:289    .text:000000000000019c .L0 
     /tmp/cc5XgVPR.s:291    .text:000000000000019c .L0 
     /tmp/cc5XgVPR.s:292    .text:000000000000019c .L0 
     /tmp/cc5XgVPR.s:296    .text:00000000000001ac .L0 
     /tmp/cc5XgVPR.s:302    .text:00000000000001ac _ZN3PCB5yieldEv
     /tmp/cc5XgVPR.s:305    .text:00000000000001ac .L0 
     /tmp/cc5XgVPR.s:306    .text:00000000000001ac .L0 
     /tmp/cc5XgVPR.s:307    .text:00000000000001b0 .L0 
     /tmp/cc5XgVPR.s:310    .text:00000000000001b8 .L0 
     /tmp/cc5XgVPR.s:311    .text:00000000000001b8 .L0 
     /tmp/cc5XgVPR.s:313    .text:00000000000001bc .L0 
     /tmp/cc5XgVPR.s:315    .text:00000000000001bc .L0 
     /tmp/cc5XgVPR.s:316    .text:00000000000001bc .L0 
     /tmp/cc5XgVPR.s:319    .text:00000000000001c4 .L0 
     /tmp/cc5XgVPR.s:320    .text:00000000000001c4 .L0 
     /tmp/cc5XgVPR.s:323    .text:00000000000001cc .L0 
     /tmp/cc5XgVPR.s:324    .text:00000000000001cc .L0 
     /tmp/cc5XgVPR.s:327    .text:00000000000001d4 .L0 
     /tmp/cc5XgVPR.s:328    .text:00000000000001d8 .L0 
     /tmp/cc5XgVPR.s:330    .text:00000000000001dc .L0 
GAS LISTING /tmp/cc5XgVPR.s 			page 12


     /tmp/cc5XgVPR.s:331    .text:00000000000001dc .L0 
     /tmp/cc5XgVPR.s:333    .text:00000000000001e0 .L0 
     /tmp/cc5XgVPR.s:335    .text:00000000000001e4 .L0 
     /tmp/cc5XgVPR.s:344    .bss:0000000000000000 _ZN3PCB7runningE
     /tmp/cc5XgVPR.s:341    .bss:0000000000000000 .LANCHOR0
     /tmp/cc5XgVPR.s:352    .text:00000000000001e4 .L0 
     /tmp/cc5XgVPR.s:25     .text:0000000000000010 .L0 
     /tmp/cc5XgVPR.s:109    .text:00000000000000a4 .L0 
     /tmp/cc5XgVPR.s:237    .text:0000000000000150 .L0 
     /tmp/cc5XgVPR.s:267    .text:0000000000000170 .L0 
     /tmp/cc5XgVPR.s:154    .text:00000000000000f0 .L9
     /tmp/cc5XgVPR.s:161    .text:00000000000000f8 .L10
     /tmp/cc5XgVPR.s:164    .text:0000000000000100 .L11
     /tmp/cc5XgVPR.s:168    .text:0000000000000108 .L15
     /tmp/cc5XgVPR.s:125    .text:00000000000000c8 .L3
     /tmp/cc5XgVPR.s:173    .text:0000000000000110 .L16
     /tmp/cc5XgVPR.s:104    .text:000000000000009c .L4
     /tmp/cc5XgVPR.s:110    .text:00000000000000ac .L5
     /tmp/cc5XgVPR.s:116    .text:00000000000000b4 .L6
     /tmp/cc5XgVPR.s:261    .text:0000000000000168 .L18
     /tmp/cc5XgVPR.s:288    .text:000000000000019c .L20
     /tmp/cc5XgVPR.s:84     .text:0000000000000074 .LEHB0
     /tmp/cc5XgVPR.s:52     .text:000000000000003c .LFB34
     /tmp/cc5XgVPR.s:87     .text:000000000000007c .LEHE0
     /tmp/cc5XgVPR.s:177    .text:0000000000000114 .LEHB1
     /tmp/cc5XgVPR.s:180    .text:000000000000011c .LEHE1
     /tmp/cc5XgVPR.s:182    .text:0000000000000120 .L13
     /tmp/cc5XgVPR.s:191    .text:0000000000000134 .LEHB2
     /tmp/cc5XgVPR.s:194    .text:000000000000013c .LEHE2
     /tmp/cc5XgVPR.s:1362   .debug_abbrev:0000000000000000 .Ldebug_abbrev0
     /tmp/cc5XgVPR.s:2727   .debug_str:0000000000000624 .LASF103
     /tmp/cc5XgVPR.s:2575   .debug_str:00000000000001dc .LASF104
     /tmp/cc5XgVPR.s:2643   .debug_str:00000000000003a7 .LASF105
     /tmp/cc5XgVPR.s:5      .text:0000000000000000 .Ltext0
     /tmp/cc5XgVPR.s:347    .text:00000000000001e4 .Letext0
     /tmp/cc5XgVPR.s:2507   .debug_line:0000000000000000 .Ldebug_line0
     /tmp/cc5XgVPR.s:2631   .debug_str:000000000000035a .LASF0
     /tmp/cc5XgVPR.s:2641   .debug_str:0000000000000394 .LASF1
     /tmp/cc5XgVPR.s:2619   .debug_str:0000000000000311 .LASF2
     /tmp/cc5XgVPR.s:2591   .debug_str:000000000000025e .LASF4
     /tmp/cc5XgVPR.s:2685   .debug_str:00000000000004e7 .LASF3
     /tmp/cc5XgVPR.s:2535   .debug_str:00000000000000bb .LASF5
     /tmp/cc5XgVPR.s:2647   .debug_str:00000000000003c9 .LASF6
     /tmp/cc5XgVPR.s:2629   .debug_str:0000000000000347 .LASF7
     /tmp/cc5XgVPR.s:2717   .debug_str:00000000000005ca .LASF8
     /tmp/cc5XgVPR.s:2579   .debug_str:00000000000001ee .LASF9
     /tmp/cc5XgVPR.s:2659   .debug_str:0000000000000430 .LASF10
     /tmp/cc5XgVPR.s:2705   .debug_str:000000000000057a .LASF11
     /tmp/cc5XgVPR.s:2537   .debug_str:00000000000000c2 .LASF12
     /tmp/cc5XgVPR.s:2517   .debug_str:0000000000000037 .LASF13
     /tmp/cc5XgVPR.s:2545   .debug_str:0000000000000110 .LASF14
     /tmp/cc5XgVPR.s:2677   .debug_str:00000000000004ab .LASF15
     /tmp/cc5XgVPR.s:2553   .debug_str:0000000000000132 .LASF16
     /tmp/cc5XgVPR.s:2655   .debug_str:0000000000000416 .LASF17
     /tmp/cc5XgVPR.s:2723   .debug_str:0000000000000602 .LASF106
     /tmp/cc5XgVPR.s:2589   .debug_str:000000000000024a .LASF107
     /tmp/cc5XgVPR.s:2607   .debug_str:00000000000002b7 .LASF108
GAS LISTING /tmp/cc5XgVPR.s 			page 13


     /tmp/cc5XgVPR.s:2603   .debug_str:000000000000029e .LASF109
     /tmp/cc5XgVPR.s:2523   .debug_str:000000000000005d .LASF110
     /tmp/cc5XgVPR.s:2673   .debug_str:000000000000049b .LASF18
     /tmp/cc5XgVPR.s:2539   .debug_str:00000000000000d2 .LASF20
     /tmp/cc5XgVPR.s:2649   .debug_str:00000000000003dc .LASF22
     /tmp/cc5XgVPR.s:2651   .debug_str:00000000000003e7 .LASF24
     /tmp/cc5XgVPR.s:2621   .debug_str:000000000000031f .LASF19
     /tmp/cc5XgVPR.s:2525   .debug_str:0000000000000065 .LASF21
     /tmp/cc5XgVPR.s:2521   .debug_str:0000000000000053 .LASF23
     /tmp/cc5XgVPR.s:2601   .debug_str:0000000000000289 .LASF25
     /tmp/cc5XgVPR.s:2593   .debug_str:0000000000000265 .LASF26
     /tmp/cc5XgVPR.s:2663   .debug_str:000000000000044b .LASF27
     /tmp/cc5XgVPR.s:2671   .debug_str:000000000000048d .LASF28
     /tmp/cc5XgVPR.s:2527   .debug_str:000000000000007c .LASF29
     /tmp/cc5XgVPR.s:2669   .debug_str:0000000000000488 .LASF111
     /tmp/cc5XgVPR.s:2679   .debug_str:00000000000004c1 .LASF51
     /tmp/cc5XgVPR.s:2721   .debug_str:00000000000005f2 .LASF53
     /tmp/cc5XgVPR.s:2713   .debug_str:00000000000005ad .LASF60
     /tmp/cc5XgVPR.s:2653   .debug_str:00000000000003fe .LASF62
     /tmp/cc5XgVPR.s:2563   .debug_str:0000000000000195 .LASF112
     /tmp/cc5XgVPR.s:2637   .debug_str:0000000000000377 .LASF113
     /tmp/cc5XgVPR.s:2597   .debug_str:0000000000000279 .LASF30
     /tmp/cc5XgVPR.s:2547   .debug_str:000000000000011c .LASF31
     /tmp/cc5XgVPR.s:2681   .debug_str:00000000000004c7 .LASF32
     /tmp/cc5XgVPR.s:2595   .debug_str:0000000000000270 .LASF33
     /tmp/cc5XgVPR.s:2509   .debug_str:0000000000000000 .LASF34
     /tmp/cc5XgVPR.s:2725   .debug_str:0000000000000616 .LASF35
     /tmp/cc5XgVPR.s:2541   .debug_str:00000000000000de .LASF92
     /tmp/cc5XgVPR.s:2635   .debug_str:000000000000036e .LASF114
     /tmp/cc5XgVPR.s:2587   .debug_str:0000000000000237 .LASF115
     /tmp/cc5XgVPR.s:2519   .debug_str:0000000000000047 .LASF36
     /tmp/cc5XgVPR.s:2571   .debug_str:00000000000001be .LASF37
     /tmp/cc5XgVPR.s:2511   .debug_str:0000000000000008 .LASF38
     /tmp/cc5XgVPR.s:2549   .debug_str:0000000000000122 .LASF39
     /tmp/cc5XgVPR.s:2737   .debug_str:000000000000070a .LASF40
     /tmp/cc5XgVPR.s:2661   .debug_str:000000000000043f .LASF41
     /tmp/cc5XgVPR.s:2657   .debug_str:0000000000000420 .LASF42
     /tmp/cc5XgVPR.s:2689   .debug_str:0000000000000500 .LASF43
     /tmp/cc5XgVPR.s:2733   .debug_str:00000000000006e6 .LASF44
     /tmp/cc5XgVPR.s:2627   .debug_str:000000000000033c .LASF45
     /tmp/cc5XgVPR.s:2697   .debug_str:000000000000053d .LASF46
     /tmp/cc5XgVPR.s:2745   .debug_str:0000000000000738 .LASF47
     /tmp/cc5XgVPR.s:2703   .debug_str:000000000000056f .LASF48
     /tmp/cc5XgVPR.s:2569   .debug_str:00000000000001b9 .LASF49
     /tmp/cc5XgVPR.s:2639   .debug_str:000000000000038e .LASF50
     /tmp/cc5XgVPR.s:2675   .debug_str:00000000000004a0 .LASF52
     /tmp/cc5XgVPR.s:2735   .debug_str:00000000000006f2 .LASF54
     /tmp/cc5XgVPR.s:2533   .debug_str:00000000000000ad .LASF55
     /tmp/cc5XgVPR.s:2561   .debug_str:000000000000017a .LASF56
     /tmp/cc5XgVPR.s:2695   .debug_str:0000000000000530 .LASF57
     /tmp/cc5XgVPR.s:2515   .debug_str:000000000000001d .LASF58
     /tmp/cc5XgVPR.s:2617   .debug_str:0000000000000308 .LASF59
     /tmp/cc5XgVPR.s:2693   .debug_str:000000000000051b .LASF65
     /tmp/cc5XgVPR.s:2559   .debug_str:0000000000000171 .LASF61
     /tmp/cc5XgVPR.s:2557   .debug_str:000000000000015c .LASF63
     /tmp/cc5XgVPR.s:2687   .debug_str:00000000000004f9 .LASF64
     /tmp/cc5XgVPR.s:2665   .debug_str:0000000000000461 .LASF66
GAS LISTING /tmp/cc5XgVPR.s 			page 14


     /tmp/cc5XgVPR.s:2707   .debug_str:0000000000000589 .LASF67
     /tmp/cc5XgVPR.s:2699   .debug_str:000000000000054a .LASF68
     /tmp/cc5XgVPR.s:2645   .debug_str:00000000000003c1 .LASF69
     /tmp/cc5XgVPR.s:2555   .debug_str:0000000000000148 .LASF70
     /tmp/cc5XgVPR.s:2513   .debug_str:0000000000000015 .LASF71
     /tmp/cc5XgVPR.s:2583   .debug_str:0000000000000212 .LASF72
     /tmp/cc5XgVPR.s:2565   .debug_str:000000000000019d .LASF73
     /tmp/cc5XgVPR.s:2667   .debug_str:0000000000000474 .LASF74
     /tmp/cc5XgVPR.s:2743   .debug_str:0000000000000730 .LASF75
     /tmp/cc5XgVPR.s:2567   .debug_str:00000000000001a5 .LASF76
     /tmp/cc5XgVPR.s:2633   .debug_str:0000000000000367 .LASF77
     /tmp/cc5XgVPR.s:2731   .debug_str:00000000000006d3 .LASF78
     /tmp/cc5XgVPR.s:2531   .debug_str:00000000000000a6 .LASF79
     /tmp/cc5XgVPR.s:2573   .debug_str:00000000000001c9 .LASF80
     /tmp/cc5XgVPR.s:2577   .debug_str:00000000000001e8 .LASF81
     /tmp/cc5XgVPR.s:2701   .debug_str:000000000000055d .LASF82
     /tmp/cc5XgVPR.s:2529   .debug_str:00000000000000a0 .LASF83
     /tmp/cc5XgVPR.s:2747   .debug_str:0000000000000743 .LASF84
     /tmp/cc5XgVPR.s:2741   .debug_str:0000000000000725 .LASF85
     /tmp/cc5XgVPR.s:2683   .debug_str:00000000000004cf .LASF86
     /tmp/cc5XgVPR.s:2599   .debug_str:000000000000027e .LASF87
     /tmp/cc5XgVPR.s:2609   .debug_str:00000000000002cf .LASF88
     /tmp/cc5XgVPR.s:2543   .debug_str:0000000000000106 .LASF89
     /tmp/cc5XgVPR.s:2613   .debug_str:00000000000002ed .LASF90
     /tmp/cc5XgVPR.s:2623   .debug_str:000000000000032b .LASF91
     /tmp/cc5XgVPR.s:2581   .debug_str:00000000000001fc .LASF93
     /tmp/cc5XgVPR.s:2585   .debug_str:0000000000000226 .LASF116
     /tmp/cc5XgVPR.s:10     .text:0000000000000000 .LFB37
     /tmp/cc5XgVPR.s:46     .text:000000000000003c .LFE37
     /tmp/cc5XgVPR.s:2709   .debug_str:0000000000000590 .LASF94
     /tmp/cc5XgVPR.s:2273   .debug_loc:0000000000000000 .LLST0
     /tmp/cc5XgVPR.s:35     .text:000000000000002c .LVL3
     /tmp/cc5XgVPR.s:222    .text:000000000000013c .LFB36
     /tmp/cc5XgVPR.s:297    .text:00000000000001ac .LFE36
     /tmp/cc5XgVPR.s:2287   .debug_loc:0000000000000039 .LLST10
     /tmp/cc5XgVPR.s:240    .text:0000000000000158 .LBB13
     /tmp/cc5XgVPR.s:247    .text:000000000000015c .LBE13
     /tmp/cc5XgVPR.s:2298   .debug_loc:000000000000006f .LLST11
     /tmp/cc5XgVPR.s:251    .text:0000000000000160 .LBB15
     /tmp/cc5XgVPR.s:258    .text:0000000000000164 .LBE15
     /tmp/cc5XgVPR.s:2305   .debug_loc:0000000000000092 .LLST12
     /tmp/cc5XgVPR.s:265    .text:0000000000000170 .LVL22
     /tmp/cc5XgVPR.s:273    .text:0000000000000188 .LVL23
     /tmp/cc5XgVPR.s:294    .text:00000000000001a8 .LVL26
     /tmp/cc5XgVPR.s:303    .text:00000000000001ac .LFB35
     /tmp/cc5XgVPR.s:336    .text:00000000000001e4 .LFE35
     /tmp/cc5XgVPR.s:317    .text:00000000000001c4 .LVL27
     /tmp/cc5XgVPR.s:321    .text:00000000000001cc .LVL28
     /tmp/cc5XgVPR.s:325    .text:00000000000001d4 .LVL29
     /tmp/cc5XgVPR.s:196    .text:000000000000013c .LFE34
     /tmp/cc5XgVPR.s:2312   .debug_loc:00000000000000b5 .LLST1
     /tmp/cc5XgVPR.s:2334   .debug_loc:0000000000000114 .LLST2
     /tmp/cc5XgVPR.s:2363   .debug_loc:0000000000000189 .LLST3
     /tmp/cc5XgVPR.s:2385   .debug_loc:00000000000001e8 .LLST4
     /tmp/cc5XgVPR.s:90     .text:0000000000000080 .LBB9
     /tmp/cc5XgVPR.s:2499   .debug_ranges:0000000000000000 .Ldebug_ranges0
     /tmp/cc5XgVPR.s:2399   .debug_loc:0000000000000221 .LLST5
GAS LISTING /tmp/cc5XgVPR.s 			page 15


     /tmp/cc5XgVPR.s:2410   .debug_loc:0000000000000257 .LLST6
     /tmp/cc5XgVPR.s:2428   .debug_loc:00000000000002a3 .LLST7
     /tmp/cc5XgVPR.s:2453   .debug_loc:0000000000000305 .LLST8
     /tmp/cc5XgVPR.s:2471   .debug_loc:0000000000000351 .LLST9
     /tmp/cc5XgVPR.s:179    .text:000000000000011c .LVL15
     /tmp/cc5XgVPR.s:86     .text:000000000000007c .LVL6
     /tmp/cc5XgVPR.s:189    .text:0000000000000130 .LVL16
     /tmp/cc5XgVPR.s:193    .text:000000000000013c .LVL17
     /tmp/cc5XgVPR.s:2551   .debug_str:000000000000012d .LASF96
     /tmp/cc5XgVPR.s:2615   .debug_str:0000000000000303 .LASF95
     /tmp/cc5XgVPR.s:2711   .debug_str:0000000000000596 .LASF117
     /tmp/cc5XgVPR.s:2715   .debug_str:00000000000005b9 .LASF118
     /tmp/cc5XgVPR.s:2739   .debug_str:0000000000000719 .LASF119
     /tmp/cc5XgVPR.s:2611   .debug_str:00000000000002e7 .LASF97
     /tmp/cc5XgVPR.s:2729   .debug_str:00000000000006c6 .LASF99
     /tmp/cc5XgVPR.s:2625   .debug_str:0000000000000335 .LASF98
     /tmp/cc5XgVPR.s:2691   .debug_str:000000000000050b .LASF100
     /tmp/cc5XgVPR.s:2605   .debug_str:00000000000002a8 .LASF101
     /tmp/cc5XgVPR.s:2719   .debug_str:00000000000005da .LASF102
     /tmp/cc5XgVPR.s:14     .text:0000000000000000 .LVL0
     /tmp/cc5XgVPR.s:29     .text:0000000000000020 .LVL1
     /tmp/cc5XgVPR.s:238    .text:0000000000000158 .LVL18
     /tmp/cc5XgVPR.s:283    .text:0000000000000194 .LVL24
     /tmp/cc5XgVPR.s:287    .text:000000000000019c .LVL25
     /tmp/cc5XgVPR.s:245    .text:000000000000015c .LVL19
     /tmp/cc5XgVPR.s:250    .text:0000000000000160 .LVL20
     /tmp/cc5XgVPR.s:256    .text:0000000000000164 .LVL21
     /tmp/cc5XgVPR.s:57     .text:000000000000003c .LVL4
     /tmp/cc5XgVPR.s:83     .text:0000000000000074 .LVL5
     /tmp/cc5XgVPR.s:143    .text:00000000000000e0 .LVL10
     /tmp/cc5XgVPR.s:153    .text:00000000000000f0 .LVL13
     /tmp/cc5XgVPR.s:115    .text:00000000000000b4 .LVL8
     /tmp/cc5XgVPR.s:171    .text:000000000000010c .LVL14
     /tmp/cc5XgVPR.s:146    .text:00000000000000e4 .LVL11
     /tmp/cc5XgVPR.s:89     .text:0000000000000080 .LVL7
     /tmp/cc5XgVPR.s:149    .text:00000000000000e8 .LVL12
     /tmp/cc5XgVPR.s:138    .text:00000000000000d8 .LVL9
     /tmp/cc5XgVPR.s:353    .debug_info:0000000000000000 .Ldebug_info0
     /tmp/cc5XgVPR.s:127    .text:00000000000000c8 .LBE9
     /tmp/cc5XgVPR.s:156    .text:00000000000000f0 .LBB12
     /tmp/cc5XgVPR.s:185    .text:0000000000000124 .LBE12
     /tmp/cc5XgVPR.s:199    .gcc_except_table:0000000000000000 .LLSDA34

UNDEFINED SYMBOLS
_Z11thread_exitv
_Znwm
_ZN9Scheduler3putEP3PCB
_ZdlPv
_Unwind_Resume
__gxx_personality_v0
_ZN9Scheduler3getEv
_ZN3PCB13contextSwitchEPNS_7ContextES1_
_ZN5Riscv13pushRegistersEv
_ZN5Riscv12popRegistersEv
