GAS LISTING /tmp/ccpbBvm8.s 			page 1


   1              		.file	"pcb.cpp"
   2              		.option pic
   3              		.option norelax
   4              		.text
   5              	.Ltext0:
   6              		.align	2
   7              		.globl	_ZN3PCB11bodyWrapperEPv
   9              	_ZN3PCB11bodyWrapperEPv:
  10              	.LFB45:
  11              		.file 1 "src/pcb.cpp"
   1:src/pcb.cpp   **** #include "../h/pcb.h"
   2:src/pcb.cpp   **** 
   3:src/pcb.cpp   **** PCB *PCB::running = nullptr;
   4:src/pcb.cpp   **** uint64 PCB::timeSliceCnt = 0;
   5:src/pcb.cpp   **** 
   6:src/pcb.cpp   **** PCB *PCB::createProcess(Body body, uint64* stack, void* arg, bool put) {
   7:src/pcb.cpp   ****     return new PCB(body, stack, arg, put);
   8:src/pcb.cpp   **** }
   9:src/pcb.cpp   **** 
  10:src/pcb.cpp   **** void PCB::yield() {
  11:src/pcb.cpp   ****     Riscv::pushRegisters();
  12:src/pcb.cpp   **** 
  13:src/pcb.cpp   ****     PCB::dispatch();
  14:src/pcb.cpp   **** 
  15:src/pcb.cpp   ****     Riscv::popRegisters();
  16:src/pcb.cpp   **** }
  17:src/pcb.cpp   **** 
  18:src/pcb.cpp   **** void PCB::dispatch() {
  19:src/pcb.cpp   ****     PCB *old = running;
  20:src/pcb.cpp   ****     if (!old->isFinished() && !old->isBlocked()) { Scheduler::put(old); }
  21:src/pcb.cpp   ****     running = Scheduler::get();
  22:src/pcb.cpp   **** 
  23:src/pcb.cpp   ****     PCB::contextSwitch(&old->context, &running->context);
  24:src/pcb.cpp   **** }
  25:src/pcb.cpp   **** 
  26:src/pcb.cpp   **** void PCB::bodyWrapper(void* dummy) {
  12              		.loc 1 26 36
  13              		.cfi_startproc
  14              	.LVL0:
  15 0000 130101FF 		addi	sp,sp,-16
  16              		.cfi_def_cfa_offset 16
  17 0004 23341100 		sd	ra,8(sp)
  18 0008 23308100 		sd	s0,0(sp)
  19              		.cfi_offset 1, -8
  20              		.cfi_offset 8, -16
  21 000c 13040101 		addi	s0,sp,16
  22              		.cfi_def_cfa 8, 0
  27:src/pcb.cpp   ****     if(running->body == idle || running->body == nullptr) supervisorMod();
  23              		.loc 1 27 5
  24              		.loc 1 27 17 is_stmt 0
  25 0010 97070000 		ld	a5,.LANCHOR0
  25      83B70700 
  26 0018 83B78700 		ld	a5,8(a5)
  27              		.loc 1 27 5
  28 001c 17070000 		lla	a4,_Z4idlePv
  28      13070700 
  29 0024 638AE700 		beq	a5,a4,.L2
GAS LISTING /tmp/ccpbBvm8.s 			page 2


  30              		.loc 1 27 30 discriminator 2
  31 0028 63880700 		beqz	a5,.L2
  28:src/pcb.cpp   ****     else userMod();
  32              		.loc 1 28 10 is_stmt 1
  33              		.loc 1 28 17 is_stmt 0
  34 002c 97000000 		call	_Z7userModv@plt
  34      E7800000 
  35              	.LVL1:
  36 0034 6F00C000 		j	.L4
  37              	.LVL2:
  38              	.L2:
  27:src/pcb.cpp   ****     if(running->body == idle || running->body == nullptr) supervisorMod();
  39              		.loc 1 27 59 is_stmt 1 discriminator 3
  27:src/pcb.cpp   ****     if(running->body == idle || running->body == nullptr) supervisorMod();
  40              		.loc 1 27 72 is_stmt 0 discriminator 3
  41 0038 97000000 		call	_Z13supervisorModv@plt
  41      E7800000 
  42              	.LVL3:
  43              	.L4:
  29:src/pcb.cpp   **** 
  30:src/pcb.cpp   ****     running->body(running->arg);
  44              		.loc 1 30 5 is_stmt 1
  45              		.loc 1 30 14 is_stmt 0
  46 0040 97070000 		ld	a5,.LANCHOR0
  46      83B70700 
  47 0048 03B78700 		ld	a4,8(a5)
  48              		.loc 1 30 18
  49 004c 03B50701 		ld	a0,16(a5)
  50 0050 E7000700 		jalr	a4
  51              	.LVL4:
  31:src/pcb.cpp   ****     thread_exit();
  52              		.loc 1 31 5 is_stmt 1
  53              		.loc 1 31 16 is_stmt 0
  54 0054 97000000 		call	_Z11thread_exitv@plt
  54      E7800000 
  55              	.LVL5:
  32:src/pcb.cpp   **** }
  56              		.loc 1 32 1
  57 005c 83308100 		ld	ra,8(sp)
  58              		.cfi_restore 1
  59 0060 03340100 		ld	s0,0(sp)
  60              		.cfi_restore 8
  61              		.cfi_def_cfa 2, 16
  62 0064 13010101 		addi	sp,sp,16
  63              		.cfi_def_cfa_offset 0
  64 0068 67800000 		jr	ra
  65              		.cfi_endproc
  66              	.LFE45:
  68              		.align	2
  69              		.globl	_Z4idlePv
  71              	_Z4idlePv:
  72              	.LFB50:
  33:src/pcb.cpp   **** 
  34:src/pcb.cpp   **** void *PCB::operator new(size_t size)  {
  35:src/pcb.cpp   ****     size = size % MEM_BLOCK_SIZE == 0 ? size / MEM_BLOCK_SIZE : (size / MEM_BLOCK_SIZE + 1 ); //pre
  36:src/pcb.cpp   ****     return MemoryAllocator::mem_alloc(size);
  37:src/pcb.cpp   **** }
GAS LISTING /tmp/ccpbBvm8.s 			page 3


  38:src/pcb.cpp   **** 
  39:src/pcb.cpp   **** void *PCB::operator new[](size_t size)  {
  40:src/pcb.cpp   ****     size = size % MEM_BLOCK_SIZE == 0 ? size / MEM_BLOCK_SIZE : (size / MEM_BLOCK_SIZE + 1 ); //pre
  41:src/pcb.cpp   ****     return MemoryAllocator::mem_alloc(size);
  42:src/pcb.cpp   **** }
  43:src/pcb.cpp   **** 
  44:src/pcb.cpp   **** void PCB::operator delete(void *p) noexcept  { MemoryAllocator::mem_free(p); }
  45:src/pcb.cpp   **** 
  46:src/pcb.cpp   **** void PCB::operator delete[](void *p) noexcept  { MemoryAllocator::mem_free(p); }
  47:src/pcb.cpp   **** 
  48:src/pcb.cpp   **** 
  49:src/pcb.cpp   **** void idle(void* arg) {
  73              		.loc 1 49 22 is_stmt 1
  74              		.cfi_startproc
  75              	.LVL6:
  76 006c 130101FF 		addi	sp,sp,-16
  77              		.cfi_def_cfa_offset 16
  78 0070 23341100 		sd	ra,8(sp)
  79 0074 23308100 		sd	s0,0(sp)
  80              		.cfi_offset 1, -8
  81              		.cfi_offset 8, -16
  82 0078 13040101 		addi	s0,sp,16
  83              		.cfi_def_cfa 8, 0
  84              	.LVL7:
  85              	.L7:
  50:src/pcb.cpp   ****     while(true)
  86              		.loc 1 50 5 discriminator 1
  51:src/pcb.cpp   ****         thread_dispatch();
  87              		.loc 1 51 9 discriminator 1
  88              		.loc 1 51 24 is_stmt 0 discriminator 1
  89 007c 97000000 		call	_Z15thread_dispatchv@plt
  89      E7800000 
  90              	.LVL8:
  50:src/pcb.cpp   ****     while(true)
  91              		.loc 1 50 5 is_stmt 1 discriminator 1
  92 0084 6FF09FFF 		j	.L7
  93              		.cfi_endproc
  94              	.LFE50:
  96              		.align	2
  97              		.globl	_ZN3PCB8dispatchEv
  99              	_ZN3PCB8dispatchEv:
 100              	.LFB44:
  18:src/pcb.cpp   ****     PCB *old = running;
 101              		.loc 1 18 22
 102              		.cfi_startproc
 103 0088 130101FE 		addi	sp,sp,-32
 104              		.cfi_def_cfa_offset 32
 105 008c 233C1100 		sd	ra,24(sp)
 106 0090 23388100 		sd	s0,16(sp)
 107 0094 23349100 		sd	s1,8(sp)
 108              		.cfi_offset 1, -8
 109              		.cfi_offset 8, -16
 110              		.cfi_offset 9, -24
 111 0098 13040102 		addi	s0,sp,32
 112              		.cfi_def_cfa 8, 0
  19:src/pcb.cpp   ****     if (!old->isFinished() && !old->isBlocked()) { Scheduler::put(old); }
 113              		.loc 1 19 5
GAS LISTING /tmp/ccpbBvm8.s 			page 4


  19:src/pcb.cpp   ****     if (!old->isFinished() && !old->isBlocked()) { Scheduler::put(old); }
 114              		.loc 1 19 10 is_stmt 0
 115 009c 97040000 		ld	s1,.LANCHOR0
 115      83B40400 
 116              	.LVL9:
  20:src/pcb.cpp   ****     running = Scheduler::get();
 117              		.loc 1 20 5 is_stmt 1
 118              	.LBB6:
 119              	.LBB7:
 120              		.file 2 "src/../h/pcb.h"
   1:src/../h/pcb.h **** #ifndef PROJEKAT_PCB_H
   2:src/../h/pcb.h **** #define PROJEKAT_PCB_H
   3:src/../h/pcb.h **** 
   4:src/../h/pcb.h **** #include "syscall_c.h"
   5:src/../h/pcb.h **** #include "scheduler.h"
   6:src/../h/pcb.h **** #include "../h/memoryAllocator.h"
   7:src/../h/pcb.h **** #include "../h/riscv.h"
   8:src/../h/pcb.h **** 
   9:src/../h/pcb.h **** extern void userMain();
  10:src/../h/pcb.h **** 
  11:src/../h/pcb.h **** class PCB
  12:src/../h/pcb.h **** {
  13:src/../h/pcb.h **** public:
  14:src/../h/pcb.h ****     ~PCB() { delete[] stack; }
  15:src/../h/pcb.h **** 
  16:src/../h/pcb.h ****     bool isFinished() const { return finished; }
 121              		.loc 2 16 31
 122              		.loc 2 16 38 is_stmt 0
 123 00a4 83C70403 		lbu	a5,48(s1)
 124              	.LVL10:
 125              	.LBE7:
 126              	.LBE6:
  20:src/pcb.cpp   ****     running = Scheduler::get();
 127              		.loc 1 20 28
 128 00a8 63960700 		bnez	a5,.L10
 129              	.LVL11:
 130              	.LBB8:
 131              	.LBB9:
  17:src/../h/pcb.h **** 
  18:src/../h/pcb.h ****     void setFinished(bool value) { finished = value; }
  19:src/../h/pcb.h **** 
  20:src/../h/pcb.h ****     bool isBlocked() const { return blocked; }
 132              		.loc 2 20 30 is_stmt 1
 133              		.loc 2 20 37 is_stmt 0
 134 00ac 83C71403 		lbu	a5,49(s1)
 135              	.LVL12:
 136              	.LBE9:
 137              	.LBE8:
  20:src/pcb.cpp   ****     running = Scheduler::get();
 138              		.loc 1 20 28
 139 00b0 638C0702 		beqz	a5,.L12
 140              	.L10:
  21:src/pcb.cpp   **** 
 141              		.loc 1 21 5 is_stmt 1
  21:src/pcb.cpp   **** 
 142              		.loc 1 21 29 is_stmt 0
 143 00b4 97000000 		call	_ZN9Scheduler3getEv@plt
GAS LISTING /tmp/ccpbBvm8.s 			page 5


 143      E7800000 
 144              	.LVL13:
  21:src/pcb.cpp   **** 
 145              		.loc 1 21 13
 146 00bc 97070000 		sd	a0,.LANCHOR0,a5
 146      23B0A700 
  23:src/pcb.cpp   **** }
 147              		.loc 1 23 5 is_stmt 1
  23:src/pcb.cpp   **** }
 148              		.loc 1 23 23 is_stmt 0
 149 00c4 93050502 		addi	a1,a0,32
 150 00c8 13850402 		addi	a0,s1,32
 151 00cc 97000000 		call	_ZN3PCB13contextSwitchEPNS_7ContextES1_@plt
 151      E7800000 
 152              	.LVL14:
  24:src/pcb.cpp   **** 
 153              		.loc 1 24 1
 154 00d4 83308101 		ld	ra,24(sp)
 155              		.cfi_remember_state
 156              		.cfi_restore 1
 157 00d8 03340101 		ld	s0,16(sp)
 158              		.cfi_restore 8
 159              		.cfi_def_cfa 2, 32
 160 00dc 83348100 		ld	s1,8(sp)
 161              		.cfi_restore 9
 162              	.LVL15:
 163 00e0 13010102 		addi	sp,sp,32
 164              		.cfi_def_cfa_offset 0
 165 00e4 67800000 		jr	ra
 166              	.LVL16:
 167              	.L12:
 168              		.cfi_restore_state
  20:src/pcb.cpp   ****     running = Scheduler::get();
 169              		.loc 1 20 52 is_stmt 1
  20:src/pcb.cpp   ****     running = Scheduler::get();
 170              		.loc 1 20 66 is_stmt 0
 171 00e8 13850400 		mv	a0,s1
 172 00ec 97000000 		call	_ZN9Scheduler3putEP3PCB@plt
 172      E7800000 
 173              	.LVL17:
 174 00f4 6FF01FFC 		j	.L10
 175              		.cfi_endproc
 176              	.LFE44:
 178              		.align	2
 179              		.globl	_ZN3PCB5yieldEv
 181              	_ZN3PCB5yieldEv:
 182              	.LFB43:
  10:src/pcb.cpp   ****     Riscv::pushRegisters();
 183              		.loc 1 10 19 is_stmt 1
 184              		.cfi_startproc
 185 00f8 130101FF 		addi	sp,sp,-16
 186              		.cfi_def_cfa_offset 16
 187 00fc 23341100 		sd	ra,8(sp)
 188 0100 23308100 		sd	s0,0(sp)
 189              		.cfi_offset 1, -8
 190              		.cfi_offset 8, -16
 191 0104 13040101 		addi	s0,sp,16
GAS LISTING /tmp/ccpbBvm8.s 			page 6


 192              		.cfi_def_cfa 8, 0
  11:src/pcb.cpp   **** 
 193              		.loc 1 11 5
  11:src/pcb.cpp   **** 
 194              		.loc 1 11 25 is_stmt 0
 195 0108 97000000 		call	_ZN5Riscv13pushRegistersEv@plt
 195      E7800000 
 196              	.LVL18:
  13:src/pcb.cpp   **** 
 197              		.loc 1 13 5 is_stmt 1
  13:src/pcb.cpp   **** 
 198              		.loc 1 13 18 is_stmt 0
 199 0110 97000000 		call	_ZN3PCB8dispatchEv
 199      E7800000 
 200              	.LVL19:
  15:src/pcb.cpp   **** }
 201              		.loc 1 15 5 is_stmt 1
  15:src/pcb.cpp   **** }
 202              		.loc 1 15 24 is_stmt 0
 203 0118 97000000 		call	_ZN5Riscv12popRegistersEv@plt
 203      E7800000 
 204              	.LVL20:
  16:src/pcb.cpp   **** 
 205              		.loc 1 16 1
 206 0120 83308100 		ld	ra,8(sp)
 207              		.cfi_restore 1
 208 0124 03340100 		ld	s0,0(sp)
 209              		.cfi_restore 8
 210              		.cfi_def_cfa 2, 16
 211 0128 13010101 		addi	sp,sp,16
 212              		.cfi_def_cfa_offset 0
 213 012c 67800000 		jr	ra
 214              		.cfi_endproc
 215              	.LFE43:
 217              		.align	2
 218              		.globl	_ZN3PCBnwEm
 220              	_ZN3PCBnwEm:
 221              	.LFB46:
  34:src/pcb.cpp   ****     size = size % MEM_BLOCK_SIZE == 0 ? size / MEM_BLOCK_SIZE : (size / MEM_BLOCK_SIZE + 1 ); //pre
 222              		.loc 1 34 39 is_stmt 1
 223              		.cfi_startproc
 224              	.LVL21:
 225 0130 130101FF 		addi	sp,sp,-16
 226              		.cfi_def_cfa_offset 16
 227 0134 23341100 		sd	ra,8(sp)
 228 0138 23308100 		sd	s0,0(sp)
 229              		.cfi_offset 1, -8
 230              		.cfi_offset 8, -16
 231 013c 13040101 		addi	s0,sp,16
 232              		.cfi_def_cfa 8, 0
  35:src/pcb.cpp   ****     return MemoryAllocator::mem_alloc(size);
 233              		.loc 1 35 5
  35:src/pcb.cpp   ****     return MemoryAllocator::mem_alloc(size);
 234              		.loc 1 35 17 is_stmt 0
 235 0140 9377F503 		andi	a5,a0,63
  35:src/pcb.cpp   ****     return MemoryAllocator::mem_alloc(size);
 236              		.loc 1 35 39
GAS LISTING /tmp/ccpbBvm8.s 			page 7


 237 0144 63900702 		bnez	a5,.L16
  35:src/pcb.cpp   ****     return MemoryAllocator::mem_alloc(size);
 238              		.loc 1 35 39 discriminator 1
 239 0148 13556500 		srli	a0,a0,6
 240              	.LVL22:
 241              	.L17:
  36:src/pcb.cpp   **** }
 242              		.loc 1 36 5 is_stmt 1 discriminator 4
  36:src/pcb.cpp   **** }
 243              		.loc 1 36 38 is_stmt 0 discriminator 4
 244 014c 97000000 		call	_ZN15MemoryAllocator9mem_allocEm@plt
 244      E7800000 
 245              	.LVL23:
  37:src/pcb.cpp   **** 
 246              		.loc 1 37 1 discriminator 4
 247 0154 83308100 		ld	ra,8(sp)
 248              		.cfi_remember_state
 249              		.cfi_restore 1
 250 0158 03340100 		ld	s0,0(sp)
 251              		.cfi_restore 8
 252              		.cfi_def_cfa 2, 16
 253 015c 13010101 		addi	sp,sp,16
 254              		.cfi_def_cfa_offset 0
 255 0160 67800000 		jr	ra
 256              	.LVL24:
 257              	.L16:
 258              		.cfi_restore_state
  35:src/pcb.cpp   ****     return MemoryAllocator::mem_alloc(size);
 259              		.loc 1 35 71 discriminator 2
 260 0164 13556500 		srli	a0,a0,6
 261              	.LVL25:
  35:src/pcb.cpp   ****     return MemoryAllocator::mem_alloc(size);
 262              		.loc 1 35 39 discriminator 2
 263 0168 13051500 		addi	a0,a0,1
 264 016c 6FF01FFE 		j	.L17
 265              		.cfi_endproc
 266              	.LFE46:
 268              		.align	2
 269              		.globl	_ZN3PCBnaEm
 271              	_ZN3PCBnaEm:
 272              	.LFB47:
  39:src/pcb.cpp   ****     size = size % MEM_BLOCK_SIZE == 0 ? size / MEM_BLOCK_SIZE : (size / MEM_BLOCK_SIZE + 1 ); //pre
 273              		.loc 1 39 41 is_stmt 1
 274              		.cfi_startproc
 275              	.LVL26:
 276 0170 130101FF 		addi	sp,sp,-16
 277              		.cfi_def_cfa_offset 16
 278 0174 23341100 		sd	ra,8(sp)
 279 0178 23308100 		sd	s0,0(sp)
 280              		.cfi_offset 1, -8
 281              		.cfi_offset 8, -16
 282 017c 13040101 		addi	s0,sp,16
 283              		.cfi_def_cfa 8, 0
  40:src/pcb.cpp   ****     return MemoryAllocator::mem_alloc(size);
 284              		.loc 1 40 5
  40:src/pcb.cpp   ****     return MemoryAllocator::mem_alloc(size);
 285              		.loc 1 40 17 is_stmt 0
GAS LISTING /tmp/ccpbBvm8.s 			page 8


 286 0180 9377F503 		andi	a5,a0,63
  40:src/pcb.cpp   ****     return MemoryAllocator::mem_alloc(size);
 287              		.loc 1 40 39
 288 0184 63900702 		bnez	a5,.L20
  40:src/pcb.cpp   ****     return MemoryAllocator::mem_alloc(size);
 289              		.loc 1 40 39 discriminator 1
 290 0188 13556500 		srli	a0,a0,6
 291              	.LVL27:
 292              	.L21:
  41:src/pcb.cpp   **** }
 293              		.loc 1 41 5 is_stmt 1 discriminator 4
  41:src/pcb.cpp   **** }
 294              		.loc 1 41 38 is_stmt 0 discriminator 4
 295 018c 97000000 		call	_ZN15MemoryAllocator9mem_allocEm@plt
 295      E7800000 
 296              	.LVL28:
  42:src/pcb.cpp   **** 
 297              		.loc 1 42 1 discriminator 4
 298 0194 83308100 		ld	ra,8(sp)
 299              		.cfi_remember_state
 300              		.cfi_restore 1
 301 0198 03340100 		ld	s0,0(sp)
 302              		.cfi_restore 8
 303              		.cfi_def_cfa 2, 16
 304 019c 13010101 		addi	sp,sp,16
 305              		.cfi_def_cfa_offset 0
 306 01a0 67800000 		jr	ra
 307              	.LVL29:
 308              	.L20:
 309              		.cfi_restore_state
  40:src/pcb.cpp   ****     return MemoryAllocator::mem_alloc(size);
 310              		.loc 1 40 71 discriminator 2
 311 01a4 13556500 		srli	a0,a0,6
 312              	.LVL30:
  40:src/pcb.cpp   ****     return MemoryAllocator::mem_alloc(size);
 313              		.loc 1 40 39 discriminator 2
 314 01a8 13051500 		addi	a0,a0,1
 315 01ac 6FF01FFE 		j	.L21
 316              		.cfi_endproc
 317              	.LFE47:
 319              		.align	2
 320              		.globl	_ZN3PCBdlEPv
 322              	_ZN3PCBdlEPv:
 323              	.LFB48:
  44:src/pcb.cpp   **** 
 324              		.loc 1 44 46 is_stmt 1
 325              		.cfi_startproc
 326              		.cfi_personality 0x9b,DW.ref.__gxx_personality_v0
 327              		.cfi_lsda 0x1b,.LLSDA48
 328              	.LVL31:
 329 01b0 130101FF 		addi	sp,sp,-16
 330              		.cfi_def_cfa_offset 16
 331 01b4 23341100 		sd	ra,8(sp)
 332 01b8 23308100 		sd	s0,0(sp)
 333              		.cfi_offset 1, -8
 334              		.cfi_offset 8, -16
 335 01bc 13040101 		addi	s0,sp,16
GAS LISTING /tmp/ccpbBvm8.s 			page 9


 336              		.cfi_def_cfa 8, 0
  44:src/pcb.cpp   **** 
 337              		.loc 1 44 48
  44:src/pcb.cpp   **** 
 338              		.loc 1 44 73 is_stmt 0
 339 01c0 97000000 		call	_ZN15MemoryAllocator8mem_freeEPv@plt
 339      E7800000 
 340              	.LVL32:
  44:src/pcb.cpp   **** 
 341              		.loc 1 44 78
 342 01c8 83308100 		ld	ra,8(sp)
 343              		.cfi_restore 1
 344 01cc 03340100 		ld	s0,0(sp)
 345              		.cfi_restore 8
 346              		.cfi_def_cfa 2, 16
 347 01d0 13010101 		addi	sp,sp,16
 348              		.cfi_def_cfa_offset 0
 349 01d4 67800000 		jr	ra
 350              		.cfi_endproc
 351              	.LFE48:
 352              		.globl	__gxx_personality_v0
 353              		.section	.gcc_except_table,"a",@progbits
 354              	.LLSDA48:
 355 0000 FF       		.byte	0xff
 356 0001 FF       		.byte	0xff
 357 0002 03       		.byte	0x3
 358 0003 00       		.byte	0
 359              		.text
 361              		.align	2
 362              		.globl	_ZN3PCB13createProcessEPFvPvEPmS0_b
 364              	_ZN3PCB13createProcessEPFvPvEPmS0_b:
 365              	.LFB42:
   6:src/pcb.cpp   ****     return new PCB(body, stack, arg, put);
 366              		.loc 1 6 72 is_stmt 1
 367              		.cfi_startproc
 368              		.cfi_personality 0x9b,DW.ref.__gxx_personality_v0
 369              		.cfi_lsda 0x1b,.LLSDA42
 370              	.LVL33:
 371 01d8 130101FC 		addi	sp,sp,-64
 372              		.cfi_def_cfa_offset 64
 373 01dc 233C1102 		sd	ra,56(sp)
 374 01e0 23388102 		sd	s0,48(sp)
 375 01e4 23349102 		sd	s1,40(sp)
 376 01e8 23302103 		sd	s2,32(sp)
 377 01ec 233C3101 		sd	s3,24(sp)
 378 01f0 23384101 		sd	s4,16(sp)
 379 01f4 23345101 		sd	s5,8(sp)
 380              		.cfi_offset 1, -8
 381              		.cfi_offset 8, -16
 382              		.cfi_offset 9, -24
 383              		.cfi_offset 18, -32
 384              		.cfi_offset 19, -40
 385              		.cfi_offset 20, -48
 386              		.cfi_offset 21, -56
 387 01f8 13040104 		addi	s0,sp,64
 388              		.cfi_def_cfa 8, 0
 389 01fc 93090500 		mv	s3,a0
GAS LISTING /tmp/ccpbBvm8.s 			page 10


 390 0200 13890500 		mv	s2,a1
 391 0204 130A0600 		mv	s4,a2
 392 0208 938A0600 		mv	s5,a3
   7:src/pcb.cpp   **** }
 393              		.loc 1 7 5
   7:src/pcb.cpp   **** }
 394              		.loc 1 7 41 is_stmt 0
 395 020c 13058003 		li	a0,56
 396              	.LVL34:
 397              	.LEHB0:
 398 0210 97000000 		call	_ZN3PCBnwEm
 398      E7800000 
 399              	.LVL35:
 400              	.LEHE0:
 401 0218 93040500 		mv	s1,a0
 402              	.LVL36:
 403              	.LBB13:
 404              	.LBB14:
  21:src/../h/pcb.h **** 
  22:src/../h/pcb.h ****     void setBlocked(bool value) { blocked = value; }
  23:src/../h/pcb.h **** 
  24:src/../h/pcb.h ****     using Body = void (*)(void*);
  25:src/../h/pcb.h **** 
  26:src/../h/pcb.h ****     static PCB *createProcess(Body body, uint64* stack, void* arg, bool put);
  27:src/../h/pcb.h **** 
  28:src/../h/pcb.h ****     static void yield();
  29:src/../h/pcb.h **** 
  30:src/../h/pcb.h ****     static void bodyWrapper(void*);
  31:src/../h/pcb.h **** 
  32:src/../h/pcb.h ****     static PCB *running;
  33:src/../h/pcb.h **** 
  34:src/../h/pcb.h ****     static uint64 timeSliceCnt;
  35:src/../h/pcb.h **** 
  36:src/../h/pcb.h ****     uint64 timeSlice;
  37:src/../h/pcb.h **** 
  38:src/../h/pcb.h ****     static void dispatch();
  39:src/../h/pcb.h **** 
  40:src/../h/pcb.h **** private:
  41:src/../h/pcb.h ****     explicit PCB(Body body, uint64* stck, void* ar, bool put) :
  42:src/../h/pcb.h ****             timeSlice(DEFAULT_TIME_SLICE),
  43:src/../h/pcb.h ****             body(body),
  44:src/../h/pcb.h ****             arg(ar),
  45:src/../h/pcb.h ****             stack(body != nullptr && stck != nullptr ? stck - DEFAULT_STACK_SIZE * sizeof(uint64) +
  46:src/../h/pcb.h ****             context({body != nullptr ? (uint64) &bodyWrapper : 0,
  47:src/../h/pcb.h ****                      stack != nullptr ? (uint64) stck : 0
  48:src/../h/pcb.h ****                     }),
  49:src/../h/pcb.h ****             finished(false),
  50:src/../h/pcb.h ****             blocked(false)
 405              		.loc 2 50 26
 406 021c 93072000 		li	a5,2
 407 0220 2330F500 		sd	a5,0(a0)
 408 0224 23343501 		sd	s3,8(a0)
 409 0228 23384501 		sd	s4,16(a0)
  45:src/../h/pcb.h ****             context({body != nullptr ? (uint64) &bodyWrapper : 0,
 410              		.loc 2 45 54
 411 022c 63840906 		beqz	s3,.L31
  45:src/../h/pcb.h ****             context({body != nullptr ? (uint64) &bodyWrapper : 0,
GAS LISTING /tmp/ccpbBvm8.s 			page 11


 412              		.loc 2 45 35
 413 0230 63060906 		beqz	s2,.L32
  45:src/../h/pcb.h ****             context({body != nullptr ? (uint64) &bodyWrapper : 0,
 414              		.loc 2 45 54
 415 0234 B707FCFF 		li	a5,-262144
 416 0238 93878700 		addi	a5,a5,8
 417 023c B307F900 		add	a5,s2,a5
 418              	.L26:
 419              		.loc 2 50 26
 420 0240 23BCF400 		sd	a5,24(s1)
  46:src/../h/pcb.h ****                      stack != nullptr ? (uint64) stck : 0
 421              		.loc 2 46 38
 422 0244 63800906 		beqz	s3,.L33
 423 0248 17070000 		lla	a4,_ZN3PCB11bodyWrapperEPv
 423      13070700 
 424              	.L27:
 425              		.loc 2 50 26
 426 0250 23B0E402 		sd	a4,32(s1)
  47:src/../h/pcb.h ****                     }),
 427              		.loc 2 47 39
 428 0254 638C0704 		beqz	a5,.L37
 429              	.LVL37:
 430              	.L28:
 431              		.loc 2 50 26
 432 0258 23B42403 		sd	s2,40(s1)
 433 025c 23880402 		sb	zero,48(s1)
 434 0260 A3880402 		sb	zero,49(s1)
  51:src/../h/pcb.h ****             { if (body != nullptr && put) { Scheduler::put(this); }
 435              		.loc 2 51 15 is_stmt 1
 436 0264 63840900 		beqz	s3,.L25
 437              		.loc 2 51 35 is_stmt 0
 438 0268 63960A04 		bnez	s5,.L38
 439              	.L25:
 440              	.LBE14:
 441              	.LBE13:
   8:src/pcb.cpp   **** 
 442              		.loc 1 8 1
 443 026c 13850400 		mv	a0,s1
 444 0270 83308103 		ld	ra,56(sp)
 445              		.cfi_remember_state
 446              		.cfi_restore 1
 447 0274 03340103 		ld	s0,48(sp)
 448              		.cfi_restore 8
 449              		.cfi_def_cfa 2, 64
 450 0278 83348102 		ld	s1,40(sp)
 451              		.cfi_restore 9
 452              	.LVL38:
 453 027c 03390102 		ld	s2,32(sp)
 454              		.cfi_restore 18
 455 0280 83398101 		ld	s3,24(sp)
 456              		.cfi_restore 19
 457              	.LVL39:
 458 0284 033A0101 		ld	s4,16(sp)
 459              		.cfi_restore 20
 460              	.LVL40:
 461 0288 833A8100 		ld	s5,8(sp)
 462              		.cfi_restore 21
GAS LISTING /tmp/ccpbBvm8.s 			page 12


 463              	.LVL41:
 464 028c 13010104 		addi	sp,sp,64
 465              		.cfi_def_cfa_offset 0
 466 0290 67800000 		jr	ra
 467              	.LVL42:
 468              	.L31:
 469              		.cfi_restore_state
 470              	.LBB16:
 471              	.LBB15:
  45:src/../h/pcb.h ****             context({body != nullptr ? (uint64) &bodyWrapper : 0,
 472              		.loc 2 45 54
 473 0294 93070000 		li	a5,0
 474 0298 6FF09FFA 		j	.L26
 475              	.L32:
 476 029c 93070900 		mv	a5,s2
 477 02a0 6FF01FFA 		j	.L26
 478              	.L33:
  46:src/../h/pcb.h ****                      stack != nullptr ? (uint64) stck : 0
 479              		.loc 2 46 38
 480 02a4 13070000 		li	a4,0
 481 02a8 6FF09FFA 		j	.L27
 482              	.L37:
  47:src/../h/pcb.h ****                     }),
 483              		.loc 2 47 39
 484 02ac 13090000 		li	s2,0
 485              	.LVL43:
 486 02b0 6FF09FFA 		j	.L28
 487              	.L38:
 488              		.loc 2 51 45 is_stmt 1
 489              		.loc 2 51 59 is_stmt 0
 490 02b4 13850400 		mv	a0,s1
 491              	.LEHB1:
 492 02b8 97000000 		call	_ZN9Scheduler3putEP3PCB@plt
 492      E7800000 
 493              	.LVL44:
 494              	.LEHE1:
 495 02c0 6FF0DFFA 		j	.L25
 496              	.L35:
 497 02c4 13090500 		mv	s2,a0
 498              	.LBE15:
 499              	.LBE16:
   7:src/pcb.cpp   **** }
 500              		.loc 1 7 41
 501 02c8 13850400 		mv	a0,s1
 502 02cc 97000000 		call	_ZN3PCBdlEPv
 502      E7800000 
 503              	.LVL45:
 504 02d4 13050900 		mv	a0,s2
 505              	.LEHB2:
 506 02d8 97000000 		call	_Unwind_Resume@plt
 506      E7800000 
 507              	.LVL46:
 508              	.LEHE2:
 509              		.cfi_endproc
 510              	.LFE42:
 511              		.section	.gcc_except_table
 512              	.LLSDA42:
GAS LISTING /tmp/ccpbBvm8.s 			page 13


 513 0004 FF       		.byte	0xff
 514 0005 FF       		.byte	0xff
 515 0006 03       		.byte	0x3
 516 0007 27       		.byte	0x27
 517 0008 00000000 		.4byte	.LEHB0-.LFB42
 518 000c 00000000 		.4byte	.LEHE0-.LEHB0
 519 0010 00000000 		.4byte	0
 520 0014 00       		.byte	0
 521 0015 00000000 		.4byte	.LEHB1-.LFB42
 522 0019 00000000 		.4byte	.LEHE1-.LEHB1
 523 001d 00000000 		.4byte	.L35-.LFB42
 524 0021 00       		.byte	0
 525 0022 00000000 		.4byte	.LEHB2-.LFB42
 526 0026 00000000 		.4byte	.LEHE2-.LEHB2
 527 002a 00000000 		.4byte	0
 528 002e 00       		.byte	0
 529              		.text
 531              		.align	2
 532              		.globl	_ZN3PCBdaEPv
 534              	_ZN3PCBdaEPv:
 535              	.LFB49:
  46:src/pcb.cpp   **** 
 536              		.loc 1 46 48 is_stmt 1
 537              		.cfi_startproc
 538              		.cfi_personality 0x9b,DW.ref.__gxx_personality_v0
 539              		.cfi_lsda 0x1b,.LLSDA49
 540              	.LVL47:
 541 02e0 130101FF 		addi	sp,sp,-16
 542              		.cfi_def_cfa_offset 16
 543 02e4 23341100 		sd	ra,8(sp)
 544 02e8 23308100 		sd	s0,0(sp)
 545              		.cfi_offset 1, -8
 546              		.cfi_offset 8, -16
 547 02ec 13040101 		addi	s0,sp,16
 548              		.cfi_def_cfa 8, 0
  46:src/pcb.cpp   **** 
 549              		.loc 1 46 50
  46:src/pcb.cpp   **** 
 550              		.loc 1 46 75 is_stmt 0
 551 02f0 97000000 		call	_ZN15MemoryAllocator8mem_freeEPv@plt
 551      E7800000 
 552              	.LVL48:
  46:src/pcb.cpp   **** 
 553              		.loc 1 46 80
 554 02f8 83308100 		ld	ra,8(sp)
 555              		.cfi_restore 1
 556 02fc 03340100 		ld	s0,0(sp)
 557              		.cfi_restore 8
 558              		.cfi_def_cfa 2, 16
 559 0300 13010101 		addi	sp,sp,16
 560              		.cfi_def_cfa_offset 0
 561 0304 67800000 		jr	ra
 562              		.cfi_endproc
 563              	.LFE49:
 564              		.section	.gcc_except_table
 565              	.LLSDA49:
 566 002f FF       		.byte	0xff
GAS LISTING /tmp/ccpbBvm8.s 			page 14


 567 0030 FF       		.byte	0xff
 568 0031 03       		.byte	0x3
 569 0032 00       		.byte	0
 570              		.text
 572              		.align	2
 573              		.globl	_Z15userMainWrapperPv
 575              	_Z15userMainWrapperPv:
 576              	.LFB51:
  52:src/pcb.cpp   **** }
  53:src/pcb.cpp   **** 
  54:src/pcb.cpp   **** void userMainWrapper(void* arg) {
 577              		.loc 1 54 33 is_stmt 1
 578              		.cfi_startproc
 579              	.LVL49:
 580 0308 130101FF 		addi	sp,sp,-16
 581              		.cfi_def_cfa_offset 16
 582 030c 23341100 		sd	ra,8(sp)
 583 0310 23308100 		sd	s0,0(sp)
 584              		.cfi_offset 1, -8
 585              		.cfi_offset 8, -16
 586 0314 13040101 		addi	s0,sp,16
 587              		.cfi_def_cfa 8, 0
  55:src/pcb.cpp   ****     userMain();
 588              		.loc 1 55 5
 589              		.loc 1 55 13 is_stmt 0
 590 0318 97000000 		call	_Z8userMainv@plt
 590      E7800000 
 591              	.LVL50:
  56:src/pcb.cpp   ****     supervisorMod(); //da bi se main zavrsio u sistemskom rezimu
 592              		.loc 1 56 5 is_stmt 1
 593              		.loc 1 56 18 is_stmt 0
 594 0320 97000000 		call	_Z13supervisorModv@plt
 594      E7800000 
 595              	.LVL51:
  57:src/pcb.cpp   **** }...
 596              		.loc 1 57 1
 597 0328 83308100 		ld	ra,8(sp)
 598              		.cfi_restore 1
 599 032c 03340100 		ld	s0,0(sp)
 600              		.cfi_restore 8
 601              		.cfi_def_cfa 2, 16
 602 0330 13010101 		addi	sp,sp,16
 603              		.cfi_def_cfa_offset 0
 604 0334 67800000 		jr	ra
 605              		.cfi_endproc
 606              	.LFE51:
 608              		.globl	_ZN3PCB12timeSliceCntE
 609              		.globl	_ZN3PCB7runningE
 610              		.bss
 611              		.align	3
 612              		.set	.LANCHOR0,. + 0
 615              	_ZN3PCB7runningE:
 616 0000 00000000 		.zero	8
 616      00000000 
 619              	_ZN3PCB12timeSliceCntE:
 620 0008 00000000 		.zero	8
 620      00000000 
GAS LISTING /tmp/ccpbBvm8.s 			page 15


 621              		.text
 622              	.Letext0:
 623              		.file 3 "src/../h/../lib/hw.h"
 624              		.file 4 "src/../h/syscall_c.h"
 625              		.file 5 "src/../h/memoryAllocator.h"
 626              		.file 6 "src/../h/scheduler.h"
 627              		.file 7 "src/../h/../h/riscv.h"
 3795              		.align	3
 3798              	DW.ref.__gxx_personality_v0:
 3799 0000 00000000 		.dword	__gxx_personality_v0
 3799      00000000 
 3800              		.ident	"GCC: (Ubuntu 9.4.0-1ubuntu1~20.04) 9.4.0"
 3801              		.section	.note.GNU-stack,"",@progbits
GAS LISTING /tmp/ccpbBvm8.s 			page 16

