GAS LISTING /tmp/ccPRgegX.s 			page 1


   1              		.file	"scheduler.cpp"
   2              		.option pic
   3              		.option norelax
   4              		.text
   5              	.Ltext0:
   6              		.align	2
   8              	_Z41__static_initialization_and_destruction_0ii:
   9              	.LFB25:
  10              		.file 1 "src/scheduler.cpp"
   1:src/scheduler.cpp **** #include "../h/scheduler.h"
   2:src/scheduler.cpp **** 
   3:src/scheduler.cpp **** List<PCB> Scheduler::readyCoroutineQueue;
   4:src/scheduler.cpp **** 
   5:src/scheduler.cpp **** PCB *Scheduler::get() {
   6:src/scheduler.cpp ****     return readyCoroutineQueue.removeFirst();
   7:src/scheduler.cpp **** }
   8:src/scheduler.cpp **** 
   9:src/scheduler.cpp **** void Scheduler::put(PCB *pcb) {
  10:src/scheduler.cpp ****     readyCoroutineQueue.addLast(pcb);
  11:src/scheduler.cpp **** }...
  11              		.loc 1 11 1
  12              		.cfi_startproc
  13              	.LVL0:
  14 0000 130101FF 		addi	sp,sp,-16
  15              		.cfi_def_cfa_offset 16
  16 0004 23348100 		sd	s0,8(sp)
  17              		.cfi_offset 8, -8
  18 0008 13040101 		addi	s0,sp,16
  19              		.cfi_def_cfa 8, 0
  20              		.loc 1 11 1 is_stmt 0
  21 000c 93071000 		li	a5,1
  22 0010 6308F500 		beq	a0,a5,.L4
  23              	.L1:
  24 0014 03348100 		ld	s0,8(sp)
  25              		.cfi_remember_state
  26              		.cfi_restore 8
  27              		.cfi_def_cfa 2, 16
  28 0018 13010101 		addi	sp,sp,16
  29              		.cfi_def_cfa_offset 0
  30 001c 67800000 		jr	ra
  31              	.L4:
  32              		.cfi_restore_state
  33              		.loc 1 11 1 discriminator 1
  34 0020 B7070100 		li	a5,65536
  35 0024 9387F7FF 		addi	a5,a5,-1
  36 0028 E396F5FE 		bne	a1,a5,.L1
  37              	.LVL1:
  38              	.LBB8:
  39              	.LBB9:
  40              	.LBB10:
  41              		.file 2 "src/../h/list.h"
   1:src/../h/list.h **** #ifndef PROJEKAT_LIST_H
   2:src/../h/list.h **** #define PROJEKAT_LIST_H
   3:src/../h/list.h **** 
   4:src/../h/list.h **** #include "../lib/hw.h"
   5:src/../h/list.h **** 
   6:src/../h/list.h **** template<typename T>
GAS LISTING /tmp/ccPRgegX.s 			page 2


   7:src/../h/list.h **** 
   8:src/../h/list.h **** class List {
   9:src/../h/list.h **** private:
  10:src/../h/list.h ****     struct Elem {
  11:src/../h/list.h ****         T *data;
  12:src/../h/list.h ****         Elem *next;
  13:src/../h/list.h **** 
  14:src/../h/list.h ****         Elem(T *data, Elem *next) : data(data), next(next) {}
  15:src/../h/list.h ****     };
  16:src/../h/list.h **** 
  17:src/../h/list.h ****     Elem *head, *tail;
  18:src/../h/list.h **** 
  19:src/../h/list.h ****     uint64 cnt = 0;
  20:src/../h/list.h **** 
  21:src/../h/list.h **** public:
  22:src/../h/list.h ****     List() : head(0), tail(0) {}
  42              		.loc 2 22 29
  43 002c 97070000 		lla	a5,.LANCHOR0
  43      93870700 
  44 0034 23B00700 		sd	zero,0(a5)
  45 0038 23B40700 		sd	zero,8(a5)
  46 003c 23B80700 		sd	zero,16(a5)
  47              	.LVL2:
  48              	.LBE10:
  49              	.LBE9:
  50              	.LBE8:
  51              		.loc 1 11 1
  52 0040 6FF05FFD 		j	.L1
  53              		.cfi_endproc
  54              	.LFE25:
  56              		.align	2
  57              		.globl	_ZN9Scheduler3getEv
  59              	_ZN9Scheduler3getEv:
  60              	.LFB15:
   5:src/scheduler.cpp **** PCB *Scheduler::get() {
  61              		.loc 1 5 23 is_stmt 1
  62              		.cfi_startproc
  63 0044 130101FE 		addi	sp,sp,-32
  64              		.cfi_def_cfa_offset 32
  65 0048 233C1100 		sd	ra,24(sp)
  66 004c 23388100 		sd	s0,16(sp)
  67 0050 23349100 		sd	s1,8(sp)
  68              		.cfi_offset 1, -8
  69              		.cfi_offset 8, -16
  70              		.cfi_offset 9, -24
  71 0054 13040102 		addi	s0,sp,32
  72              		.cfi_def_cfa 8, 0
   6:src/scheduler.cpp ****     return readyCoroutineQueue.removeFirst();
  73              		.loc 1 6 5
  74              	.LVL3:
  75              	.LBB13:
  76              	.LBB14:
  23:src/../h/list.h **** 
  24:src/../h/list.h ****     List(const List<T> &) = delete;
  25:src/../h/list.h **** 
  26:src/../h/list.h ****     List<T> &operator=(const List<T> &) = delete;
  27:src/../h/list.h **** 
GAS LISTING /tmp/ccPRgegX.s 			page 3


  28:src/../h/list.h ****     uint64 getCnt() { return cnt; }
  29:src/../h/list.h **** 
  30:src/../h/list.h ****     void addFirst(T *data) {
  31:src/../h/list.h ****         Elem *elem = new Elem(data, head);
  32:src/../h/list.h ****         head = elem;
  33:src/../h/list.h ****         if (!tail) { tail = head; }
  34:src/../h/list.h ****         cnt++;
  35:src/../h/list.h ****     }
  36:src/../h/list.h **** 
  37:src/../h/list.h ****     void addLast(T *data) {
  38:src/../h/list.h ****         Elem *elem = new Elem(data, 0);
  39:src/../h/list.h ****         if (tail) {
  40:src/../h/list.h ****             tail->next = elem;
  41:src/../h/list.h ****             tail = elem;
  42:src/../h/list.h ****         } else {
  43:src/../h/list.h ****             head = tail = elem;
  44:src/../h/list.h ****         }
  45:src/../h/list.h ****         cnt++;
  46:src/../h/list.h ****     }
  47:src/../h/list.h **** 
  48:src/../h/list.h ****     T *removeFirst() {
  49:src/../h/list.h ****         if (!head) { return 0; }
  77              		.loc 2 49 14 is_stmt 0
  78 0058 17050000 		ld	a0,.LANCHOR0
  78      03350500 
  79              		.loc 2 49 9
  80 0060 630C0504 		beqz	a0,.L8
  81              	.LVL4:
  50:src/../h/list.h **** 
  51:src/../h/list.h ****         Elem *elem = head;
  52:src/../h/list.h ****         head = head->next;
  82              		.loc 2 52 22
  83 0064 83378500 		ld	a5,8(a0)
  84              		.loc 2 52 9
  85 0068 17070000 		sd	a5,.LANCHOR0,a4
  85      2330F700 
  53:src/../h/list.h ****         if (!head) { tail = 0; }
  86              		.loc 2 53 9
  87 0070 638E0702 		beqz	a5,.L10
  88              	.L7:
  54:src/../h/list.h **** 
  55:src/../h/list.h ****         T *ret = elem->data;
  89              		.loc 2 55 12
  90 0074 83340500 		ld	s1,0(a0)
  91              	.LVL5:
  56:src/../h/list.h ****         delete elem;
  92              		.loc 2 56 9
  93 0078 97000000 		call	_ZdlPv@plt
  93      E7800000 
  94              	.LVL6:
  57:src/../h/list.h ****         cnt--;
  95              		.loc 2 57 9
  96 0080 17070000 		lla	a4,.LANCHOR0
  96      13070700 
  97 0088 83370701 		ld	a5,16(a4)
  98 008c 9387F7FF 		addi	a5,a5,-1
  99 0090 2338F700 		sd	a5,16(a4)
GAS LISTING /tmp/ccPRgegX.s 			page 4


 100              	.LVL7:
 101              	.L5:
 102              	.LBE14:
 103              	.LBE13:
   7:src/scheduler.cpp **** }
 104              		.loc 1 7 1
 105 0094 13850400 		mv	a0,s1
 106 0098 83308101 		ld	ra,24(sp)
 107              		.cfi_remember_state
 108              		.cfi_restore 1
 109 009c 03340101 		ld	s0,16(sp)
 110              		.cfi_restore 8
 111              		.cfi_def_cfa 2, 32
 112 00a0 83348100 		ld	s1,8(sp)
 113              		.cfi_restore 9
 114 00a4 13010102 		addi	sp,sp,32
 115              		.cfi_def_cfa_offset 0
 116 00a8 67800000 		jr	ra
 117              	.LVL8:
 118              	.L10:
 119              		.cfi_restore_state
 120              	.LBB16:
 121              	.LBB15:
  53:src/../h/list.h **** 
 122              		.loc 2 53 22
 123 00ac 97070000 		sd	zero,.LANCHOR0+8,a5
 123      23B00700 
 124 00b4 6FF01FFC 		j	.L7
 125              	.LVL9:
 126              	.L8:
  49:src/../h/list.h **** 
 127              		.loc 2 49 29
 128 00b8 93040500 		mv	s1,a0
 129              	.LVL10:
 130              	.LBE15:
 131              	.LBE16:
   6:src/scheduler.cpp ****     return readyCoroutineQueue.removeFirst();
 132              		.loc 1 6 44
 133 00bc 6FF09FFD 		j	.L5
 134              		.cfi_endproc
 135              	.LFE15:
 137              		.align	2
 138              		.globl	_ZN9Scheduler3putEP3PCB
 140              	_ZN9Scheduler3putEP3PCB:
 141              	.LFB16:
   9:src/scheduler.cpp **** void Scheduler::put(PCB *pcb) {
 142              		.loc 1 9 31 is_stmt 1
 143              		.cfi_startproc
 144              	.LVL11:
 145 00c0 130101FE 		addi	sp,sp,-32
 146              		.cfi_def_cfa_offset 32
 147 00c4 233C1100 		sd	ra,24(sp)
 148 00c8 23388100 		sd	s0,16(sp)
 149 00cc 23349100 		sd	s1,8(sp)
 150              		.cfi_offset 1, -8
 151              		.cfi_offset 8, -16
 152              		.cfi_offset 9, -24
GAS LISTING /tmp/ccPRgegX.s 			page 5


 153 00d0 13040102 		addi	s0,sp,32
 154              		.cfi_def_cfa 8, 0
 155 00d4 93040500 		mv	s1,a0
  10:src/scheduler.cpp ****     readyCoroutineQueue.addLast(pcb);
 156              		.loc 1 10 5
 157              	.LVL12:
 158              	.LBB22:
 159              	.LBB23:
  38:src/../h/list.h ****         if (tail) {
 160              		.loc 2 38 22 is_stmt 0
 161 00d8 13050001 		li	a0,16
 162              	.LVL13:
 163 00dc 97000000 		call	_Znwm@plt
 163      E7800000 
 164              	.LVL14:
 165              	.LBB24:
 166              	.LBB25:
  14:src/../h/list.h ****     };
 167              		.loc 2 14 58
 168 00e4 23309500 		sd	s1,0(a0)
 169 00e8 23340500 		sd	zero,8(a0)
 170              	.LVL15:
 171              	.LBE25:
 172              	.LBE24:
  39:src/../h/list.h ****             tail->next = elem;
 173              		.loc 2 39 13
 174 00ec 97070000 		ld	a5,.LANCHOR0+8
 174      83B70700 
  39:src/../h/list.h ****             tail->next = elem;
 175              		.loc 2 39 9
 176 00f4 638C0702 		beqz	a5,.L12
  40:src/../h/list.h ****             tail = elem;
 177              		.loc 2 40 13
 178 00f8 23B4A700 		sd	a0,8(a5)
  41:src/../h/list.h ****         } else {
 179              		.loc 2 41 13
 180 00fc 97070000 		sd	a0,.LANCHOR0+8,a5
 180      23B0A700 
 181              	.L13:
  45:src/../h/list.h ****     }
 182              		.loc 2 45 9
 183 0104 17070000 		lla	a4,.LANCHOR0
 183      13070700 
 184 010c 83370701 		ld	a5,16(a4)
 185 0110 93871700 		addi	a5,a5,1
 186 0114 2338F700 		sd	a5,16(a4)
 187              	.LVL16:
 188              	.LBE23:
 189              	.LBE22:
 190              		.loc 1 11 1
 191 0118 83308101 		ld	ra,24(sp)
 192              		.cfi_remember_state
 193              		.cfi_restore 1
 194 011c 03340101 		ld	s0,16(sp)
 195              		.cfi_restore 8
 196              		.cfi_def_cfa 2, 32
 197 0120 83348100 		ld	s1,8(sp)
GAS LISTING /tmp/ccPRgegX.s 			page 6


 198              		.cfi_restore 9
 199              	.LVL17:
 200 0124 13010102 		addi	sp,sp,32
 201              		.cfi_def_cfa_offset 0
 202 0128 67800000 		jr	ra
 203              	.LVL18:
 204              	.L12:
 205              		.cfi_restore_state
 206              	.LBB27:
 207              	.LBB26:
  43:src/../h/list.h ****         }
 208              		.loc 2 43 13
 209 012c 97070000 		lla	a5,.LANCHOR0
 209      93870700 
 210 0134 23B4A700 		sd	a0,8(a5)
 211 0138 23B0A700 		sd	a0,0(a5)
 212 013c 6FF09FFC 		j	.L13
 213              	.LBE26:
 214              	.LBE27:
 215              		.cfi_endproc
 216              	.LFE16:
 218              		.align	2
 220              	_GLOBAL__sub_I__ZN9Scheduler19readyCoroutineQueueE:
 221              	.LFB26:
 222              		.loc 1 11 1 is_stmt 1
 223              		.cfi_startproc
 224 0140 130101FF 		addi	sp,sp,-16
 225              		.cfi_def_cfa_offset 16
 226 0144 23341100 		sd	ra,8(sp)
 227 0148 23308100 		sd	s0,0(sp)
 228              		.cfi_offset 1, -8
 229              		.cfi_offset 8, -16
 230 014c 13040101 		addi	s0,sp,16
 231              		.cfi_def_cfa 8, 0
 232              		.loc 1 11 1 is_stmt 0
 233 0150 B7050100 		li	a1,65536
 234 0154 9385F5FF 		addi	a1,a1,-1
 235 0158 13051000 		li	a0,1
 236 015c 97000000 		call	_Z41__static_initialization_and_destruction_0ii
 236      E7800000 
 237              	.LVL19:
 238 0164 83308100 		ld	ra,8(sp)
 239              		.cfi_restore 1
 240 0168 03340100 		ld	s0,0(sp)
 241              		.cfi_restore 8
 242              		.cfi_def_cfa 2, 16
 243 016c 13010101 		addi	sp,sp,16
 244              		.cfi_def_cfa_offset 0
 245 0170 67800000 		jr	ra
 246              		.cfi_endproc
 247              	.LFE26:
 249              		.section	.init_array,"aw"
 250              		.align	3
 251 0000 00000000 		.dword	_GLOBAL__sub_I__ZN9Scheduler19readyCoroutineQueueE
 251      00000000 
 252              		.globl	_ZN9Scheduler19readyCoroutineQueueE
 253              		.bss
GAS LISTING /tmp/ccPRgegX.s 			page 7


 254              		.align	3
 255              		.set	.LANCHOR0,. + 0
 258              	_ZN9Scheduler19readyCoroutineQueueE:
 259 0000 00000000 		.zero	24
 259      00000000 
 259      00000000 
 259      00000000 
 259      00000000 
 260              		.text
 261              	.Letext0:
 262              		.file 3 "src/../h/../lib/hw.h"
 263              		.file 4 "src/../h/scheduler.h"
GAS LISTING /tmp/ccPRgegX.s 			page 8

