GAS LISTING /tmp/ccPRgegX.s 			page 1


   1              		.file	"scheduler.cpp"
   2              		.option pic
   3              		.option norelax
   4              		.text
   5              	.Ltext0:
   6              		.align	2
   8              	_Z41__static_initialization_and_destruction_0ii:
   9              	.LFB25:
  10              		.file 1 "src/scheduler.cpp"
   1:src/scheduler.cpp **** #include "../h/scheduler.h"
   2:src/scheduler.cpp **** 
   3:src/scheduler.cpp **** List<PCB> Scheduler::readyCoroutineQueue;
   4:src/scheduler.cpp **** 
   5:src/scheduler.cpp **** PCB *Scheduler::get() {
   6:src/scheduler.cpp ****     return readyCoroutineQueue.removeFirst();
   7:src/scheduler.cpp **** }
   8:src/scheduler.cpp **** 
   9:src/scheduler.cpp **** void Scheduler::put(PCB *pcb) {
  10:src/scheduler.cpp ****     readyCoroutineQueue.addLast(pcb);
  11:src/scheduler.cpp **** }...
  11              		.loc 1 11 1
  12              		.cfi_startproc
  13              	.LVL0:
  14 0000 130101FF 		addi	sp,sp,-16
  15              		.cfi_def_cfa_offset 16
  16 0004 23348100 		sd	s0,8(sp)
  17              		.cfi_offset 8, -8
  18 0008 13040101 		addi	s0,sp,16
  19              		.cfi_def_cfa 8, 0
  20              		.loc 1 11 1 is_stmt 0
  21 000c 93071000 		li	a5,1
  22 0010 6308F500 		beq	a0,a5,.L4
  23              	.L1:
  24 0014 03348100 		ld	s0,8(sp)
  25              		.cfi_remember_state
  26              		.cfi_restore 8
  27              		.cfi_def_cfa 2, 16
  28 0018 13010101 		addi	sp,sp,16
  29              		.cfi_def_cfa_offset 0
  30 001c 67800000 		jr	ra
  31              	.L4:
  32              		.cfi_restore_state
  33              		.loc 1 11 1 discriminator 1
  34 0020 B7070100 		li	a5,65536
  35 0024 9387F7FF 		addi	a5,a5,-1
  36 0028 E396F5FE 		bne	a1,a5,.L1
  37              	.LVL1:
  38              	.LBB8:
  39              	.LBB9:
  40              	.LBB10:
  41              		.file 2 "src/../h/list.h"
   1:src/../h/list.h **** #ifndef PROJEKAT_LIST_H
   2:src/../h/list.h **** #define PROJEKAT_LIST_H
   3:src/../h/list.h **** 
   4:src/../h/list.h **** #include "../lib/hw.h"
   5:src/../h/list.h **** 
   6:src/../h/list.h **** template<typename T>
GAS LISTING /tmp/ccPRgegX.s 			page 2


   7:src/../h/list.h **** 
   8:src/../h/list.h **** class List {
   9:src/../h/list.h **** private:
  10:src/../h/list.h ****     struct Elem {
  11:src/../h/list.h ****         T *data;
  12:src/../h/list.h ****         Elem *next;
  13:src/../h/list.h **** 
  14:src/../h/list.h ****         Elem(T *data, Elem *next) : data(data), next(next) {}
  15:src/../h/list.h ****     };
  16:src/../h/list.h **** 
  17:src/../h/list.h ****     Elem *head, *tail;
  18:src/../h/list.h **** 
  19:src/../h/list.h ****     uint64 cnt = 0;
  20:src/../h/list.h **** 
  21:src/../h/list.h **** public:
  22:src/../h/list.h ****     List() : head(0), tail(0) {}
  42              		.loc 2 22 29
  43 002c 97070000 		lla	a5,.LANCHOR0
  43      93870700 
  44 0034 23B00700 		sd	zero,0(a5)
  45 0038 23B40700 		sd	zero,8(a5)
  46 003c 23B80700 		sd	zero,16(a5)
  47              	.LVL2:
  48              	.LBE10:
  49              	.LBE9:
  50              	.LBE8:
  51              		.loc 1 11 1
  52 0040 6FF05FFD 		j	.L1
  53              		.cfi_endproc
  54              	.LFE25:
  56              		.align	2
  57              		.globl	_ZN9Scheduler3getEv
  59              	_ZN9Scheduler3getEv:
  60              	.LFB15:
   5:src/scheduler.cpp **** PCB *Scheduler::get() {
  61              		.loc 1 5 23 is_stmt 1
  62              		.cfi_startproc
  63 0044 130101FE 		addi	sp,sp,-32
  64              		.cfi_def_cfa_offset 32
  65 0048 233C1100 		sd	ra,24(sp)
  66 004c 23388100 		sd	s0,16(sp)
  67 0050 23349100 		sd	s1,8(sp)
  68              		.cfi_offset 1, -8
  69              		.cfi_offset 8, -16
  70              		.cfi_offset 9, -24
  71 0054 13040102 		addi	s0,sp,32
  72              		.cfi_def_cfa 8, 0
   6:src/scheduler.cpp ****     return readyCoroutineQueue.removeFirst();
  73              		.loc 1 6 5
  74              	.LVL3:
  75              	.LBB13:
  76              	.LBB14:
  23:src/../h/list.h **** 
  24:src/../h/list.h ****     List(const List<T> &) = delete;
  25:src/../h/list.h **** 
  26:src/../h/list.h ****     List<T> &operator=(const List<T> &) = delete;
  27:src/../h/list.h **** 
GAS LISTING /tmp/ccPRgegX.s 			page 3


  28:src/../h/list.h ****     uint64 getCnt() { return cnt; }
  29:src/../h/list.h **** 
  30:src/../h/list.h ****     void addFirst(T *data) {
  31:src/../h/list.h ****         Elem *elem = new Elem(data, head);
  32:src/../h/list.h ****         head = elem;
  33:src/../h/list.h ****         if (!tail) { tail = head; }
  34:src/../h/list.h ****         cnt++;
  35:src/../h/list.h ****     }
  36:src/../h/list.h **** 
  37:src/../h/list.h ****     void addLast(T *data) {
  38:src/../h/list.h ****         Elem *elem = new Elem(data, 0);
  39:src/../h/list.h ****         if (tail) {
  40:src/../h/list.h ****             tail->next = elem;
  41:src/../h/list.h ****             tail = elem;
  42:src/../h/list.h ****         } else {
  43:src/../h/list.h ****             head = tail = elem;
  44:src/../h/list.h ****         }
  45:src/../h/list.h ****         cnt++;
  46:src/../h/list.h ****     }
  47:src/../h/list.h **** 
  48:src/../h/list.h ****     T *removeFirst() {
  49:src/../h/list.h ****         if (!head) { return 0; }
  77              		.loc 2 49 14 is_stmt 0
  78 0058 17050000 		ld	a0,.LANCHOR0
  78      03350500 
  79              		.loc 2 49 9
  80 0060 630C0504 		beqz	a0,.L8
  81              	.LVL4:
  50:src/../h/list.h **** 
  51:src/../h/list.h ****         Elem *elem = head;
  52:src/../h/list.h ****         head = head->next;
  82              		.loc 2 52 22
  83 0064 83378500 		ld	a5,8(a0)
  84              		.loc 2 52 9
  85 0068 17070000 		sd	a5,.LANCHOR0,a4
  85      2330F700 
  53:src/../h/list.h ****         if (!head) { tail = 0; }
  86              		.loc 2 53 9
  87 0070 638E0702 		beqz	a5,.L10
  88              	.L7:
  54:src/../h/list.h **** 
  55:src/../h/list.h ****         T *ret = elem->data;
  89              		.loc 2 55 12
  90 0074 83340500 		ld	s1,0(a0)
  91              	.LVL5:
  56:src/../h/list.h ****         delete elem;
  92              		.loc 2 56 9
  93 0078 97000000 		call	_ZdlPv@plt
  93      E7800000 
  94              	.LVL6:
  57:src/../h/list.h ****         cnt--;
  95              		.loc 2 57 9
  96 0080 17070000 		lla	a4,.LANCHOR0
  96      13070700 
  97 0088 83370701 		ld	a5,16(a4)
  98 008c 9387F7FF 		addi	a5,a5,-1
  99 0090 2338F700 		sd	a5,16(a4)
GAS LISTING /tmp/ccPRgegX.s 			page 4


 100              	.LVL7:
 101              	.L5:
 102              	.LBE14:
 103              	.LBE13:
   7:src/scheduler.cpp **** }
 104              		.loc 1 7 1
 105 0094 13850400 		mv	a0,s1
 106 0098 83308101 		ld	ra,24(sp)
 107              		.cfi_remember_state
 108              		.cfi_restore 1
 109 009c 03340101 		ld	s0,16(sp)
 110              		.cfi_restore 8
 111              		.cfi_def_cfa 2, 32
 112 00a0 83348100 		ld	s1,8(sp)
 113              		.cfi_restore 9
 114 00a4 13010102 		addi	sp,sp,32
 115              		.cfi_def_cfa_offset 0
 116 00a8 67800000 		jr	ra
 117              	.LVL8:
 118              	.L10:
 119              		.cfi_restore_state
 120              	.LBB16:
 121              	.LBB15:
  53:src/../h/list.h **** 
 122              		.loc 2 53 22
 123 00ac 97070000 		sd	zero,.LANCHOR0+8,a5
 123      23B00700 
 124 00b4 6FF01FFC 		j	.L7
 125              	.LVL9:
 126              	.L8:
  49:src/../h/list.h **** 
 127              		.loc 2 49 29
 128 00b8 93040500 		mv	s1,a0
 129              	.LVL10:
 130              	.LBE15:
 131              	.LBE16:
   6:src/scheduler.cpp ****     return readyCoroutineQueue.removeFirst();
 132              		.loc 1 6 44
 133 00bc 6FF09FFD 		j	.L5
 134              		.cfi_endproc
 135              	.LFE15:
 137              		.align	2
 138              		.globl	_ZN9Scheduler3putEP3PCB
 140              	_ZN9Scheduler3putEP3PCB:
 141              	.LFB16:
   9:src/scheduler.cpp **** void Scheduler::put(PCB *pcb) {
 142              		.loc 1 9 31 is_stmt 1
 143              		.cfi_startproc
 144              	.LVL11:
 145 00c0 130101FE 		addi	sp,sp,-32
 146              		.cfi_def_cfa_offset 32
 147 00c4 233C1100 		sd	ra,24(sp)
 148 00c8 23388100 		sd	s0,16(sp)
 149 00cc 23349100 		sd	s1,8(sp)
 150              		.cfi_offset 1, -8
 151              		.cfi_offset 8, -16
 152              		.cfi_offset 9, -24
GAS LISTING /tmp/ccPRgegX.s 			page 5


 153 00d0 13040102 		addi	s0,sp,32
 154              		.cfi_def_cfa 8, 0
 155 00d4 93040500 		mv	s1,a0
  10:src/scheduler.cpp ****     readyCoroutineQueue.addLast(pcb);
 156              		.loc 1 10 5
 157              	.LVL12:
 158              	.LBB22:
 159              	.LBB23:
  38:src/../h/list.h ****         if (tail) {
 160              		.loc 2 38 22 is_stmt 0
 161 00d8 13050001 		li	a0,16
 162              	.LVL13:
 163 00dc 97000000 		call	_Znwm@plt
 163      E7800000 
 164              	.LVL14:
 165              	.LBB24:
 166              	.LBB25:
  14:src/../h/list.h ****     };
 167              		.loc 2 14 58
 168 00e4 23309500 		sd	s1,0(a0)
 169 00e8 23340500 		sd	zero,8(a0)
 170              	.LVL15:
 171              	.LBE25:
 172              	.LBE24:
  39:src/../h/list.h ****             tail->next = elem;
 173              		.loc 2 39 13
 174 00ec 97070000 		ld	a5,.LANCHOR0+8
 174      83B70700 
  39:src/../h/list.h ****             tail->next = elem;
 175              		.loc 2 39 9
 176 00f4 638C0702 		beqz	a5,.L12
  40:src/../h/list.h ****             tail = elem;
 177              		.loc 2 40 13
 178 00f8 23B4A700 		sd	a0,8(a5)
  41:src/../h/list.h ****         } else {
 179              		.loc 2 41 13
 180 00fc 97070000 		sd	a0,.LANCHOR0+8,a5
 180      23B0A700 
 181              	.L13:
  45:src/../h/list.h ****     }
 182              		.loc 2 45 9
 183 0104 17070000 		lla	a4,.LANCHOR0
 183      13070700 
 184 010c 83370701 		ld	a5,16(a4)
 185 0110 93871700 		addi	a5,a5,1
 186 0114 2338F700 		sd	a5,16(a4)
 187              	.LVL16:
 188              	.LBE23:
 189              	.LBE22:
 190              		.loc 1 11 1
 191 0118 83308101 		ld	ra,24(sp)
 192              		.cfi_remember_state
 193              		.cfi_restore 1
 194 011c 03340101 		ld	s0,16(sp)
 195              		.cfi_restore 8
 196              		.cfi_def_cfa 2, 32
 197 0120 83348100 		ld	s1,8(sp)
GAS LISTING /tmp/ccPRgegX.s 			page 6


 198              		.cfi_restore 9
 199              	.LVL17:
 200 0124 13010102 		addi	sp,sp,32
 201              		.cfi_def_cfa_offset 0
 202 0128 67800000 		jr	ra
 203              	.LVL18:
 204              	.L12:
 205              		.cfi_restore_state
 206              	.LBB27:
 207              	.LBB26:
  43:src/../h/list.h ****         }
 208              		.loc 2 43 13
 209 012c 97070000 		lla	a5,.LANCHOR0
 209      93870700 
 210 0134 23B4A700 		sd	a0,8(a5)
 211 0138 23B0A700 		sd	a0,0(a5)
 212 013c 6FF09FFC 		j	.L13
 213              	.LBE26:
 214              	.LBE27:
 215              		.cfi_endproc
 216              	.LFE16:
 218              		.align	2
 220              	_GLOBAL__sub_I__ZN9Scheduler19readyCoroutineQueueE:
 221              	.LFB26:
 222              		.loc 1 11 1 is_stmt 1
 223              		.cfi_startproc
 224 0140 130101FF 		addi	sp,sp,-16
 225              		.cfi_def_cfa_offset 16
 226 0144 23341100 		sd	ra,8(sp)
 227 0148 23308100 		sd	s0,0(sp)
 228              		.cfi_offset 1, -8
 229              		.cfi_offset 8, -16
 230 014c 13040101 		addi	s0,sp,16
 231              		.cfi_def_cfa 8, 0
 232              		.loc 1 11 1 is_stmt 0
 233 0150 B7050100 		li	a1,65536
 234 0154 9385F5FF 		addi	a1,a1,-1
 235 0158 13051000 		li	a0,1
 236 015c 97000000 		call	_Z41__static_initialization_and_destruction_0ii
 236      E7800000 
 237              	.LVL19:
 238 0164 83308100 		ld	ra,8(sp)
 239              		.cfi_restore 1
 240 0168 03340100 		ld	s0,0(sp)
 241              		.cfi_restore 8
 242              		.cfi_def_cfa 2, 16
 243 016c 13010101 		addi	sp,sp,16
 244              		.cfi_def_cfa_offset 0
 245 0170 67800000 		jr	ra
 246              		.cfi_endproc
 247              	.LFE26:
 249              		.section	.init_array,"aw"
 250              		.align	3
 251 0000 00000000 		.dword	_GLOBAL__sub_I__ZN9Scheduler19readyCoroutineQueueE
 251      00000000 
 252              		.globl	_ZN9Scheduler19readyCoroutineQueueE
 253              		.bss
GAS LISTING /tmp/ccPRgegX.s 			page 7


 254              		.align	3
 255              		.set	.LANCHOR0,. + 0
 258              	_ZN9Scheduler19readyCoroutineQueueE:
 259 0000 00000000 		.zero	24
 259      00000000 
 259      00000000 
 259      00000000 
 259      00000000 
 260              		.text
 261              	.Letext0:
 262              		.file 3 "src/../h/../lib/hw.h"
 263              		.file 4 "src/../h/scheduler.h"
GAS LISTING /tmp/ccPRgegX.s 			page 8


DEFINED SYMBOLS
                            *ABS*:0000000000000000 scheduler.cpp
     /tmp/ccPRgegX.s:8      .text:0000000000000000 _Z41__static_initialization_and_destruction_0ii
     /tmp/ccPRgegX.s:12     .text:0000000000000000 .L0 
     /tmp/ccPRgegX.s:14     .text:0000000000000000 .L0 
     /tmp/ccPRgegX.s:15     .text:0000000000000004 .L0 
     /tmp/ccPRgegX.s:17     .text:0000000000000008 .L0 
     /tmp/ccPRgegX.s:19     .text:000000000000000c .L0 
     /tmp/ccPRgegX.s:21     .text:000000000000000c .L0 
     /tmp/ccPRgegX.s:25     .text:0000000000000018 .L0 
     /tmp/ccPRgegX.s:26     .text:0000000000000018 .L0 
     /tmp/ccPRgegX.s:27     .text:0000000000000018 .L0 
     /tmp/ccPRgegX.s:29     .text:000000000000001c .L0 
     /tmp/ccPRgegX.s:32     .text:0000000000000020 .L0 
     /tmp/ccPRgegX.s:34     .text:0000000000000020 .L0 
     /tmp/ccPRgegX.s:43     .text:000000000000002c .L0 
     /tmp/ccPRgegX.s:52     .text:0000000000000040 .L0 
     /tmp/ccPRgegX.s:53     .text:0000000000000044 .L0 
     /tmp/ccPRgegX.s:59     .text:0000000000000044 _ZN9Scheduler3getEv
     /tmp/ccPRgegX.s:62     .text:0000000000000044 .L0 
     /tmp/ccPRgegX.s:63     .text:0000000000000044 .L0 
     /tmp/ccPRgegX.s:64     .text:0000000000000048 .L0 
     /tmp/ccPRgegX.s:68     .text:0000000000000054 .L0 
     /tmp/ccPRgegX.s:69     .text:0000000000000054 .L0 
     /tmp/ccPRgegX.s:70     .text:0000000000000054 .L0 
     /tmp/ccPRgegX.s:72     .text:0000000000000058 .L0 
     /tmp/ccPRgegX.s:77     .text:0000000000000058 .L0 
     /tmp/ccPRgegX.s:78     .text:0000000000000058 .L0 
     /tmp/ccPRgegX.s:80     .text:0000000000000060 .L0 
     /tmp/ccPRgegX.s:83     .text:0000000000000064 .L0 
     /tmp/ccPRgegX.s:85     .text:0000000000000068 .L0 
     /tmp/ccPRgegX.s:87     .text:0000000000000070 .L0 
     /tmp/ccPRgegX.s:90     .text:0000000000000074 .L0 
     /tmp/ccPRgegX.s:93     .text:0000000000000078 .L0 
     /tmp/ccPRgegX.s:96     .text:0000000000000080 .L0 
     /tmp/ccPRgegX.s:105    .text:0000000000000094 .L0 
     /tmp/ccPRgegX.s:107    .text:000000000000009c .L0 
     /tmp/ccPRgegX.s:108    .text:000000000000009c .L0 
     /tmp/ccPRgegX.s:110    .text:00000000000000a0 .L0 
     /tmp/ccPRgegX.s:111    .text:00000000000000a0 .L0 
     /tmp/ccPRgegX.s:113    .text:00000000000000a4 .L0 
     /tmp/ccPRgegX.s:115    .text:00000000000000a8 .L0 
     /tmp/ccPRgegX.s:119    .text:00000000000000ac .L0 
     /tmp/ccPRgegX.s:123    .text:00000000000000ac .L0 
     /tmp/ccPRgegX.s:128    .text:00000000000000b8 .L0 
     /tmp/ccPRgegX.s:133    .text:00000000000000bc .L0 
     /tmp/ccPRgegX.s:134    .text:00000000000000c0 .L0 
     /tmp/ccPRgegX.s:140    .text:00000000000000c0 _ZN9Scheduler3putEP3PCB
     /tmp/ccPRgegX.s:143    .text:00000000000000c0 .L0 
     /tmp/ccPRgegX.s:145    .text:00000000000000c0 .L0 
     /tmp/ccPRgegX.s:146    .text:00000000000000c4 .L0 
     /tmp/ccPRgegX.s:150    .text:00000000000000d0 .L0 
     /tmp/ccPRgegX.s:151    .text:00000000000000d0 .L0 
     /tmp/ccPRgegX.s:152    .text:00000000000000d0 .L0 
     /tmp/ccPRgegX.s:154    .text:00000000000000d4 .L0 
     /tmp/ccPRgegX.s:160    .text:00000000000000d8 .L0 
     /tmp/ccPRgegX.s:161    .text:00000000000000d8 .L0 
GAS LISTING /tmp/ccPRgegX.s 			page 9


     /tmp/ccPRgegX.s:168    .text:00000000000000e4 .L0 
     /tmp/ccPRgegX.s:174    .text:00000000000000ec .L0 
     /tmp/ccPRgegX.s:176    .text:00000000000000f4 .L0 
     /tmp/ccPRgegX.s:178    .text:00000000000000f8 .L0 
     /tmp/ccPRgegX.s:180    .text:00000000000000fc .L0 
     /tmp/ccPRgegX.s:183    .text:0000000000000104 .L0 
     /tmp/ccPRgegX.s:191    .text:0000000000000118 .L0 
     /tmp/ccPRgegX.s:192    .text:000000000000011c .L0 
     /tmp/ccPRgegX.s:193    .text:000000000000011c .L0 
     /tmp/ccPRgegX.s:195    .text:0000000000000120 .L0 
     /tmp/ccPRgegX.s:196    .text:0000000000000120 .L0 
     /tmp/ccPRgegX.s:198    .text:0000000000000124 .L0 
     /tmp/ccPRgegX.s:201    .text:0000000000000128 .L0 
     /tmp/ccPRgegX.s:205    .text:000000000000012c .L0 
     /tmp/ccPRgegX.s:209    .text:000000000000012c .L0 
     /tmp/ccPRgegX.s:215    .text:0000000000000140 .L0 
     /tmp/ccPRgegX.s:220    .text:0000000000000140 _GLOBAL__sub_I__ZN9Scheduler19readyCoroutineQueueE
     /tmp/ccPRgegX.s:223    .text:0000000000000140 .L0 
     /tmp/ccPRgegX.s:224    .text:0000000000000140 .L0 
     /tmp/ccPRgegX.s:225    .text:0000000000000144 .L0 
     /tmp/ccPRgegX.s:228    .text:000000000000014c .L0 
     /tmp/ccPRgegX.s:229    .text:000000000000014c .L0 
     /tmp/ccPRgegX.s:231    .text:0000000000000150 .L0 
     /tmp/ccPRgegX.s:233    .text:0000000000000150 .L0 
     /tmp/ccPRgegX.s:239    .text:0000000000000168 .L0 
     /tmp/ccPRgegX.s:241    .text:000000000000016c .L0 
     /tmp/ccPRgegX.s:242    .text:000000000000016c .L0 
     /tmp/ccPRgegX.s:244    .text:0000000000000170 .L0 
     /tmp/ccPRgegX.s:246    .text:0000000000000174 .L0 
     /tmp/ccPRgegX.s:258    .bss:0000000000000000 _ZN9Scheduler19readyCoroutineQueueE
     /tmp/ccPRgegX.s:255    .bss:0000000000000000 .LANCHOR0
     /tmp/ccPRgegX.s:264    .text:0000000000000174 .L0 
     /tmp/ccPRgegX.s:43     .text:000000000000002c .L0 
     /tmp/ccPRgegX.s:78     .text:0000000000000058 .L0 
     /tmp/ccPRgegX.s:85     .text:0000000000000068 .L0 
     /tmp/ccPRgegX.s:96     .text:0000000000000080 .L0 
     /tmp/ccPRgegX.s:123    .text:00000000000000ac .L0 
     /tmp/ccPRgegX.s:174    .text:00000000000000ec .L0 
     /tmp/ccPRgegX.s:180    .text:00000000000000fc .L0 
     /tmp/ccPRgegX.s:183    .text:0000000000000104 .L0 
     /tmp/ccPRgegX.s:209    .text:000000000000012c .L0 
     /tmp/ccPRgegX.s:31     .text:0000000000000020 .L4
     /tmp/ccPRgegX.s:23     .text:0000000000000014 .L1
     /tmp/ccPRgegX.s:126    .text:00000000000000b8 .L8
     /tmp/ccPRgegX.s:118    .text:00000000000000ac .L10
     /tmp/ccPRgegX.s:88     .text:0000000000000074 .L7
     /tmp/ccPRgegX.s:101    .text:0000000000000094 .L5
     /tmp/ccPRgegX.s:204    .text:000000000000012c .L12
     /tmp/ccPRgegX.s:181    .text:0000000000000104 .L13
     /tmp/ccPRgegX.s:914    .debug_abbrev:0000000000000000 .Ldebug_abbrev0
     /tmp/ccPRgegX.s:1871   .debug_str:0000000000000223 .LASF53
     /tmp/ccPRgegX.s:1857   .debug_str:00000000000001af .LASF54
     /tmp/ccPRgegX.s:1897   .debug_str:000000000000039a .LASF55
     /tmp/ccPRgegX.s:5      .text:0000000000000000 .Ltext0
     /tmp/ccPRgegX.s:261    .text:0000000000000174 .Letext0
     /tmp/ccPRgegX.s:1803   .debug_line:0000000000000000 .Ldebug_line0
     /tmp/ccPRgegX.s:1883   .debug_str:0000000000000339 .LASF0
GAS LISTING /tmp/ccPRgegX.s 			page 10


     /tmp/ccPRgegX.s:1861   .debug_str:00000000000001d3 .LASF1
     /tmp/ccPRgegX.s:1853   .debug_str:000000000000019c .LASF2
     /tmp/ccPRgegX.s:1823   .debug_str:00000000000000aa .LASF4
     /tmp/ccPRgegX.s:1859   .debug_str:00000000000001c1 .LASF3
     /tmp/ccPRgegX.s:1809   .debug_str:000000000000001e .LASF5
     /tmp/ccPRgegX.s:1805   .debug_str:0000000000000000 .LASF6
     /tmp/ccPRgegX.s:1845   .debug_str:0000000000000159 .LASF7
     /tmp/ccPRgegX.s:1813   .debug_str:000000000000002a .LASF8
     /tmp/ccPRgegX.s:1821   .debug_str:000000000000009c .LASF9
     /tmp/ccPRgegX.s:1929   .debug_str:00000000000004c9 .LASF10
     /tmp/ccPRgegX.s:1849   .debug_str:0000000000000171 .LASF11
     /tmp/ccPRgegX.s:1915   .debug_str:000000000000042d .LASF12
     /tmp/ccPRgegX.s:1903   .debug_str:00000000000003cf .LASF13
     /tmp/ccPRgegX.s:1863   .debug_str:00000000000001e6 .LASF14
     /tmp/ccPRgegX.s:1833   .debug_str:00000000000000ef .LASF15
     /tmp/ccPRgegX.s:1899   .debug_str:00000000000003b4 .LASF16
     /tmp/ccPRgegX.s:1843   .debug_str:000000000000014f .LASF17
     /tmp/ccPRgegX.s:1923   .debug_str:0000000000000464 .LASF56
     /tmp/ccPRgegX.s:1819   .debug_str:0000000000000088 .LASF57
     /tmp/ccPRgegX.s:1905   .debug_str:00000000000003df .LASF58
     /tmp/ccPRgegX.s:1865   .debug_str:00000000000001f2 .LASF18
     /tmp/ccPRgegX.s:1901   .debug_str:00000000000003ca .LASF21
     /tmp/ccPRgegX.s:1847   .debug_str:000000000000016c .LASF19
     /tmp/ccPRgegX.s:1811   .debug_str:0000000000000025 .LASF20
     /tmp/ccPRgegX.s:1841   .debug_str:0000000000000130 .LASF59
     /tmp/ccPRgegX.s:1875   .debug_str:00000000000002ef .LASF22
     /tmp/ccPRgegX.s:1909   .debug_str:000000000000040e .LASF23
     /tmp/ccPRgegX.s:1837   .debug_str:0000000000000120 .LASF24
     /tmp/ccPRgegX.s:1911   .debug_str:0000000000000413 .LASF29
     /tmp/ccPRgegX.s:1907   .debug_str:00000000000003f7 .LASF26
     /tmp/ccPRgegX.s:1917   .debug_str:000000000000043d .LASF60
     /tmp/ccPRgegX.s:1919   .debug_str:0000000000000447 .LASF61
     /tmp/ccPRgegX.s:1831   .debug_str:00000000000000e8 .LASF25
     /tmp/ccPRgegX.s:1829   .debug_str:00000000000000d0 .LASF27
     /tmp/ccPRgegX.s:1881   .debug_str:0000000000000330 .LASF28
     /tmp/ccPRgegX.s:1877   .debug_str:00000000000002f4 .LASF30
     /tmp/ccPRgegX.s:1873   .debug_str:00000000000002e7 .LASF31
     /tmp/ccPRgegX.s:1851   .debug_str:0000000000000180 .LASF32
     /tmp/ccPRgegX.s:1827   .debug_str:00000000000000c4 .LASF33
     /tmp/ccPRgegX.s:1925   .debug_str:0000000000000478 .LASF34
     /tmp/ccPRgegX.s:1869   .debug_str:0000000000000219 .LASF35
     /tmp/ccPRgegX.s:1835   .debug_str:0000000000000105 .LASF36
     /tmp/ccPRgegX.s:1839   .debug_str:0000000000000125 .LASF37
     /tmp/ccPRgegX.s:1867   .debug_str:00000000000001fc .LASF38
     /tmp/ccPRgegX.s:1893   .debug_str:0000000000000377 .LASF39
     /tmp/ccPRgegX.s:1895   .debug_str:0000000000000380 .LASF40
     /tmp/ccPRgegX.s:1817   .debug_str:0000000000000064 .LASF62
     /tmp/ccPRgegX.s:1927   .debug_str:0000000000000496 .LASF41
     /tmp/ccPRgegX.s:221    .text:0000000000000140 .LFB26
     /tmp/ccPRgegX.s:247    .text:0000000000000174 .LFE26
     /tmp/ccPRgegX.s:237    .text:0000000000000164 .LVL19
     /tmp/ccPRgegX.s:1815   .debug_str:000000000000003a .LASF42
     /tmp/ccPRgegX.s:9      .text:0000000000000000 .LFB25
     /tmp/ccPRgegX.s:54     .text:0000000000000044 .LFE25
     /tmp/ccPRgegX.s:1889   .debug_str:000000000000035b .LASF43
     /tmp/ccPRgegX.s:1807   .debug_str:0000000000000013 .LASF44
     /tmp/ccPRgegX.s:38     .text:000000000000002c .LBB8
GAS LISTING /tmp/ccPRgegX.s 			page 11


     /tmp/ccPRgegX.s:50     .text:0000000000000040 .LBE8
     /tmp/ccPRgegX.s:1660   .debug_loc:0000000000000000 .LLST0
     /tmp/ccPRgegX.s:1855   .debug_str:00000000000001aa .LASF45
     /tmp/ccPRgegX.s:1879   .debug_str:0000000000000311 .LASF47
     /tmp/ccPRgegX.s:1885   .debug_str:0000000000000346 .LASF46
     /tmp/ccPRgegX.s:1825   .debug_str:00000000000000b1 .LASF48
     /tmp/ccPRgegX.s:141    .text:00000000000000c0 .LFB16
     /tmp/ccPRgegX.s:216    .text:0000000000000140 .LFE16
     /tmp/ccPRgegX.s:1669   .debug_loc:000000000000002c .LLST4
     /tmp/ccPRgegX.s:158    .text:00000000000000d8 .LBB22
     /tmp/ccPRgegX.s:1789   .debug_ranges:0000000000000000 .Ldebug_ranges0
     /tmp/ccPRgegX.s:1691   .debug_loc:000000000000008b .LLST5
     /tmp/ccPRgegX.s:1706   .debug_loc:00000000000000d4 .LLST6
     /tmp/ccPRgegX.s:165    .text:00000000000000e4 .LBB24
     /tmp/ccPRgegX.s:172    .text:00000000000000ec .LBE24
     /tmp/ccPRgegX.s:1721   .debug_loc:000000000000011c .LLST7
     /tmp/ccPRgegX.s:1729   .debug_loc:0000000000000140 .LLST8
     /tmp/ccPRgegX.s:1736   .debug_loc:0000000000000163 .LLST9
     /tmp/ccPRgegX.s:164    .text:00000000000000e4 .LVL14
     /tmp/ccPRgegX.s:60     .text:0000000000000044 .LFB15
     /tmp/ccPRgegX.s:135    .text:00000000000000c0 .LFE15
     /tmp/ccPRgegX.s:75     .text:0000000000000058 .LBB13
     /tmp/ccPRgegX.s:1743   .debug_loc:0000000000000186 .LLST1
     /tmp/ccPRgegX.s:1758   .debug_loc:00000000000001ce .LLST2
     /tmp/ccPRgegX.s:1769   .debug_loc:0000000000000204 .LLST3
     /tmp/ccPRgegX.s:94     .text:0000000000000080 .LVL6
     /tmp/ccPRgegX.s:1921   .debug_str:000000000000045e .LASF49
     /tmp/ccPRgegX.s:1891   .debug_str:000000000000036a .LASF51
     /tmp/ccPRgegX.s:1913   .debug_str:0000000000000426 .LASF50
     /tmp/ccPRgegX.s:1887   .debug_str:000000000000034b .LASF52
     /tmp/ccPRgegX.s:37     .text:000000000000002c .LVL1
     /tmp/ccPRgegX.s:47     .text:0000000000000040 .LVL2
     /tmp/ccPRgegX.s:144    .text:00000000000000c0 .LVL11
     /tmp/ccPRgegX.s:162    .text:00000000000000dc .LVL13
     /tmp/ccPRgegX.s:199    .text:0000000000000124 .LVL17
     /tmp/ccPRgegX.s:203    .text:000000000000012c .LVL18
     /tmp/ccPRgegX.s:157    .text:00000000000000d8 .LVL12
     /tmp/ccPRgegX.s:187    .text:0000000000000118 .LVL16
     /tmp/ccPRgegX.s:170    .text:00000000000000ec .LVL15
     /tmp/ccPRgegX.s:74     .text:0000000000000058 .LVL3
     /tmp/ccPRgegX.s:100    .text:0000000000000094 .LVL7
     /tmp/ccPRgegX.s:117    .text:00000000000000ac .LVL8
     /tmp/ccPRgegX.s:129    .text:00000000000000bc .LVL10
     /tmp/ccPRgegX.s:81     .text:0000000000000064 .LVL4
     /tmp/ccPRgegX.s:125    .text:00000000000000b8 .LVL9
     /tmp/ccPRgegX.s:91     .text:0000000000000078 .LVL5
     /tmp/ccPRgegX.s:265    .debug_info:0000000000000000 .Ldebug_info0
     /tmp/ccPRgegX.s:103    .text:0000000000000094 .LBE13
     /tmp/ccPRgegX.s:120    .text:00000000000000ac .LBB16
     /tmp/ccPRgegX.s:131    .text:00000000000000bc .LBE16
     /tmp/ccPRgegX.s:189    .text:0000000000000118 .LBE22
     /tmp/ccPRgegX.s:206    .text:000000000000012c .LBB27
     /tmp/ccPRgegX.s:214    .text:0000000000000140 .LBE27

UNDEFINED SYMBOLS
_ZdlPv
_Znwm
GAS LISTING /tmp/ccPRgegX.s 			page 12


