GAS LISTING /tmp/ccJMlntf.s 			page 1


   1              		.file	"sem.cpp"
   2              		.option pic
   3              		.option norelax
   4              		.text
   5              	.Ltext0:
   6              		.align	2
   7              		.globl	_ZN3Sem5blockEv
   9              	_ZN3Sem5blockEv:
  10              	.LFB49:
  11              		.file 1 "src/sem.cpp"
   1:src/sem.cpp   **** #include "../h/sem.h"
   2:src/sem.cpp   **** 
   3:src/sem.cpp   **** void Sem::block() {
  12              		.loc 1 3 19
  13              		.cfi_startproc
  14              	.LVL0:
  15 0000 130101FD 		addi	sp,sp,-48
  16              		.cfi_def_cfa_offset 48
  17 0004 23341102 		sd	ra,40(sp)
  18 0008 23308102 		sd	s0,32(sp)
  19 000c 233C9100 		sd	s1,24(sp)
  20 0010 23382101 		sd	s2,16(sp)
  21 0014 23343101 		sd	s3,8(sp)
  22              		.cfi_offset 1, -8
  23              		.cfi_offset 8, -16
  24              		.cfi_offset 9, -24
  25              		.cfi_offset 18, -32
  26              		.cfi_offset 19, -40
  27 0018 13040103 		addi	s0,sp,48
  28              		.cfi_def_cfa 8, 0
  29 001c 13090500 		mv	s2,a0
   4:src/sem.cpp   ****     blocked.addLast(PCB::running);
  30              		.loc 1 4 5
  31              		.loc 1 4 20 is_stmt 0
  32 0020 93048500 		addi	s1,a0,8
  33 0024 97070000 		la	a5,_ZN3PCB7runningE
  33      83B70700 
  34 002c 83B90700 		ld	s3,0(a5)
  35              	.LVL1:
  36              	.LBB36:
  37              	.LBB37:
  38              		.file 2 "src/../h/list.h"
   1:src/../h/list.h **** #ifndef PROJEKAT_LIST_H
   2:src/../h/list.h **** #define PROJEKAT_LIST_H
   3:src/../h/list.h **** 
   4:src/../h/list.h **** #include "../lib/hw.h"
   5:src/../h/list.h **** #include "memoryAllocator.h"
   6:src/../h/list.h **** 
   7:src/../h/list.h **** template<typename T>
   8:src/../h/list.h **** 
   9:src/../h/list.h **** class List {
  10:src/../h/list.h **** private:
  11:src/../h/list.h ****     struct Elem {
  12:src/../h/list.h ****         T *data;
  13:src/../h/list.h ****         Elem *next;
  14:src/../h/list.h **** 
  15:src/../h/list.h ****         Elem(T *data, Elem *next) : data(data), next(next) {}
GAS LISTING /tmp/ccJMlntf.s 			page 2


  16:src/../h/list.h ****     };
  17:src/../h/list.h **** 
  18:src/../h/list.h ****     Elem *head, *tail;
  19:src/../h/list.h **** 
  20:src/../h/list.h ****     uint64 cnt = 0;
  21:src/../h/list.h **** 
  22:src/../h/list.h **** public:
  23:src/../h/list.h ****     List() : head(0), tail(0) {}
  24:src/../h/list.h **** 
  25:src/../h/list.h ****     List(const List<T> &) = delete;
  26:src/../h/list.h **** 
  27:src/../h/list.h ****     List<T> &operator=(const List<T> &) = delete;
  28:src/../h/list.h **** 
  29:src/../h/list.h ****     uint64 getCnt() { return cnt; }
  30:src/../h/list.h **** 
  31:src/../h/list.h ****     void addFirst(T *data) {
  32:src/../h/list.h ****         Elem *elem = new Elem(data, head);
  33:src/../h/list.h ****         head = elem;
  34:src/../h/list.h ****         if (!tail) { tail = head; }
  35:src/../h/list.h ****         cnt++;
  36:src/../h/list.h ****     }
  37:src/../h/list.h **** 
  38:src/../h/list.h ****     void addLast(T *data) {
  39:src/../h/list.h ****         Elem *elem = new Elem(data, 0);
  39              		.loc 2 39 22
  40 0030 13050001 		li	a0,16
  41              	.LVL2:
  42 0034 97000000 		call	_Znwm@plt
  42      E7800000 
  43              	.LVL3:
  44              	.LBB38:
  45              	.LBB39:
  15:src/../h/list.h ****     };
  46              		.loc 2 15 58
  47 003c 23303501 		sd	s3,0(a0)
  48 0040 23340500 		sd	zero,8(a0)
  49              	.LVL4:
  50              	.LBE39:
  51              	.LBE38:
  40:src/../h/list.h ****         if (tail) {
  52              		.loc 2 40 13
  53 0044 83B78400 		ld	a5,8(s1)
  54              		.loc 2 40 9
  55 0048 63880704 		beqz	a5,.L2
  41:src/../h/list.h ****             tail->next = elem;
  56              		.loc 2 41 13
  57 004c 23B4A700 		sd	a0,8(a5)
  42:src/../h/list.h ****             tail = elem;
  58              		.loc 2 42 13
  59 0050 23B4A400 		sd	a0,8(s1)
  60              	.L3:
  43:src/../h/list.h ****         } else {
  44:src/../h/list.h ****             head = tail = elem;
  45:src/../h/list.h ****         }
  46:src/../h/list.h ****         cnt++;
  61              		.loc 2 46 9
  62 0054 83B70401 		ld	a5,16(s1)
GAS LISTING /tmp/ccJMlntf.s 			page 3


  63 0058 93871700 		addi	a5,a5,1
  64 005c 23B8F400 		sd	a5,16(s1)
  65              	.LVL5:
  66              	.LBE37:
  67              	.LBE36:
   5:src/sem.cpp   ****     PCB::running->setBlocked(true);
  68              		.loc 1 5 5 is_stmt 1
  69              		.loc 1 5 29 is_stmt 0
  70 0060 97070000 		la	a5,_ZN3PCB7runningE
  70      83B70700 
  71 0068 83B70700 		ld	a5,0(a5)
  72              	.LVL6:
  73              	.LBB41:
  74              	.LBB42:
  75              		.file 3 "src/../h/pcb.h"
   1:src/../h/pcb.h **** #ifndef PROJEKAT_PCB_H
   2:src/../h/pcb.h **** #define PROJEKAT_PCB_H
   3:src/../h/pcb.h **** 
   4:src/../h/pcb.h **** #include "syscall_c.h"
   5:src/../h/pcb.h **** #include "scheduler.h"
   6:src/../h/pcb.h **** #include "../h/memoryAllocator.h"
   7:src/../h/pcb.h **** #include "../h/riscv.h"
   8:src/../h/pcb.h **** 
   9:src/../h/pcb.h **** extern void userMain();
  10:src/../h/pcb.h **** 
  11:src/../h/pcb.h **** class PCB
  12:src/../h/pcb.h **** {
  13:src/../h/pcb.h **** public:
  14:src/../h/pcb.h ****     ~PCB() { delete[] stack; }
  15:src/../h/pcb.h **** 
  16:src/../h/pcb.h ****     bool isFinished() const { return finished; }
  17:src/../h/pcb.h **** 
  18:src/../h/pcb.h ****     void setFinished(bool value) { finished = value; }
  19:src/../h/pcb.h **** 
  20:src/../h/pcb.h ****     bool isBlocked() const { return blocked; }
  21:src/../h/pcb.h **** 
  22:src/../h/pcb.h ****     void setBlocked(bool value) { blocked = value; }
  76              		.loc 3 22 35 is_stmt 1
  77              		.loc 3 22 43 is_stmt 0
  78 006c 13071000 		li	a4,1
  79 0070 A388E702 		sb	a4,49(a5)
  80              	.LVL7:
  81              	.LBE42:
  82              	.LBE41:
   6:src/sem.cpp   ****     PCB::yield();
  83              		.loc 1 6 5 is_stmt 1
  84              		.loc 1 6 15 is_stmt 0
  85 0074 97000000 		call	_ZN3PCB5yieldEv@plt
  85      E7800000 
  86              	.LVL8:
   7:src/sem.cpp   **** }
  87              		.loc 1 7 1
  88 007c 83308102 		ld	ra,40(sp)
  89              		.cfi_remember_state
  90              		.cfi_restore 1
  91 0080 03340102 		ld	s0,32(sp)
  92              		.cfi_restore 8
GAS LISTING /tmp/ccJMlntf.s 			page 4


  93              		.cfi_def_cfa 2, 48
  94 0084 83348101 		ld	s1,24(sp)
  95              		.cfi_restore 9
  96 0088 03390101 		ld	s2,16(sp)
  97              		.cfi_restore 18
  98              	.LVL9:
  99 008c 83398100 		ld	s3,8(sp)
 100              		.cfi_restore 19
 101 0090 13010103 		addi	sp,sp,48
 102              		.cfi_def_cfa_offset 0
 103 0094 67800000 		jr	ra
 104              	.LVL10:
 105              	.L2:
 106              		.cfi_restore_state
 107              	.LBB43:
 108              	.LBB40:
  44:src/../h/list.h ****         }
 109              		.loc 2 44 13
 110 0098 23B4A400 		sd	a0,8(s1)
 111 009c 2334A900 		sd	a0,8(s2)
 112 00a0 6FF05FFB 		j	.L3
 113              	.LBE40:
 114              	.LBE43:
 115              		.cfi_endproc
 116              	.LFE49:
 118              		.align	2
 119              		.globl	_ZN3Sem7unblockEv
 121              	_ZN3Sem7unblockEv:
 122              	.LFB50:
   8:src/sem.cpp   **** 
   9:src/sem.cpp   **** void Sem::unblock() {
 123              		.loc 1 9 21 is_stmt 1
 124              		.cfi_startproc
 125              	.LVL11:
 126 00a4 130101FE 		addi	sp,sp,-32
 127              		.cfi_def_cfa_offset 32
 128 00a8 233C1100 		sd	ra,24(sp)
 129 00ac 23388100 		sd	s0,16(sp)
 130 00b0 23349100 		sd	s1,8(sp)
 131 00b4 23302101 		sd	s2,0(sp)
 132              		.cfi_offset 1, -8
 133              		.cfi_offset 8, -16
 134              		.cfi_offset 9, -24
 135              		.cfi_offset 18, -32
 136 00b8 13040102 		addi	s0,sp,32
 137              		.cfi_def_cfa 8, 0
 138 00bc 93070500 		mv	a5,a0
  10:src/sem.cpp   ****     thread_t p = blocked.removeFirst();
 139              		.loc 1 10 5
 140              		.loc 1 10 37 is_stmt 0
 141 00c0 93048500 		addi	s1,a0,8
 142              	.LVL12:
 143              	.LBB48:
 144              	.LBB49:
  47:src/../h/list.h ****     }
  48:src/../h/list.h **** 
  49:src/../h/list.h ****     T *removeFirst() {
GAS LISTING /tmp/ccJMlntf.s 			page 5


  50:src/../h/list.h ****         if (!head) { return 0; }
 145              		.loc 2 50 14
 146 00c4 03358500 		ld	a0,8(a0)
 147              	.LVL13:
 148              		.loc 2 50 9
 149 00c8 630C0504 		beqz	a0,.L8
 150              	.LVL14:
  51:src/../h/list.h **** 
  52:src/../h/list.h ****         Elem *elem = head;
  53:src/../h/list.h ****         head = head->next;
 151              		.loc 2 53 22
 152 00cc 03378500 		ld	a4,8(a0)
 153              		.loc 2 53 9
 154 00d0 23B4E700 		sd	a4,8(a5)
  54:src/../h/list.h ****         if (!head) { tail = 0; }
 155              		.loc 2 54 9
 156 00d4 63020704 		beqz	a4,.L10
 157              	.L7:
  55:src/../h/list.h **** 
  56:src/../h/list.h ****         T *ret = elem->data;
 158              		.loc 2 56 12
 159 00d8 03390500 		ld	s2,0(a0)
 160              	.LVL15:
  57:src/../h/list.h ****         delete elem;
 161              		.loc 2 57 9
 162 00dc 97000000 		call	_ZdlPv@plt
 162      E7800000 
 163              	.LVL16:
  58:src/../h/list.h ****         cnt--;
 164              		.loc 2 58 9
 165 00e4 83B70401 		ld	a5,16(s1)
 166 00e8 9387F7FF 		addi	a5,a5,-1
 167 00ec 23B8F400 		sd	a5,16(s1)
 168              	.LVL17:
 169              	.L6:
 170              	.LBE49:
 171              	.LBE48:
  11:src/sem.cpp   ****     p->setBlocked(false);
 172              		.loc 1 11 5 is_stmt 1
 173              	.LBB51:
 174              	.LBB52:
 175              		.loc 3 22 35
 176              		.loc 3 22 43 is_stmt 0
 177 00f0 A3080902 		sb	zero,49(s2)
 178              	.LVL18:
 179              	.LBE52:
 180              	.LBE51:
  12:src/sem.cpp   ****     Scheduler::put(p);
 181              		.loc 1 12 5 is_stmt 1
 182              		.loc 1 12 19 is_stmt 0
 183 00f4 13050900 		mv	a0,s2
 184 00f8 97000000 		call	_ZN9Scheduler3putEP3PCB@plt
 184      E7800000 
 185              	.LVL19:
  13:src/sem.cpp   **** }
 186              		.loc 1 13 1
 187 0100 83308101 		ld	ra,24(sp)
GAS LISTING /tmp/ccJMlntf.s 			page 6


 188              		.cfi_remember_state
 189              		.cfi_restore 1
 190 0104 03340101 		ld	s0,16(sp)
 191              		.cfi_restore 8
 192              		.cfi_def_cfa 2, 32
 193 0108 83348100 		ld	s1,8(sp)
 194              		.cfi_restore 9
 195              	.LVL20:
 196 010c 03390100 		ld	s2,0(sp)
 197              		.cfi_restore 18
 198              	.LVL21:
 199 0110 13010102 		addi	sp,sp,32
 200              		.cfi_def_cfa_offset 0
 201 0114 67800000 		jr	ra
 202              	.LVL22:
 203              	.L10:
 204              		.cfi_restore_state
 205              	.LBB53:
 206              	.LBB50:
  54:src/../h/list.h **** 
 207              		.loc 2 54 22
 208 0118 23B40400 		sd	zero,8(s1)
 209 011c 6FF0DFFB 		j	.L7
 210              	.LVL23:
 211              	.L8:
  50:src/../h/list.h **** 
 212              		.loc 2 50 29
 213 0120 13090500 		mv	s2,a0
 214 0124 6FF0DFFC 		j	.L6
 215              	.LBE50:
 216              	.LBE53:
 217              		.cfi_endproc
 218              	.LFE50:
 220              		.align	2
 221              		.globl	_ZN3Sem19deactivateSemaphoreEPS_
 223              	_ZN3Sem19deactivateSemaphoreEPS_:
 224              	.LFB52:
  14:src/sem.cpp   **** 
  15:src/sem.cpp   **** Sem *Sem::createSemaphore(uint32 init) {
  16:src/sem.cpp   ****     return new Sem(init);
  17:src/sem.cpp   **** }
  18:src/sem.cpp   **** 
  19:src/sem.cpp   **** int Sem::deactivateSemaphore(sem_t handle) {
 225              		.loc 1 19 44 is_stmt 1
 226              		.cfi_startproc
 227              	.LVL24:
  20:src/sem.cpp   ****     if(!handle->isActive()) return -1;
 228              		.loc 1 20 5
 229              	.LBB66:
 230              	.LBB67:
 231              		.file 4 "src/../h/sem.h"
   1:src/../h/sem.h **** #ifndef PROJEKAT_SEM_H
   2:src/../h/sem.h **** #define PROJEKAT_SEM_H
   3:src/../h/sem.h **** 
   4:src/../h/sem.h **** #include "pcb.h"
   5:src/../h/sem.h **** #include "syscall_c.h"
   6:src/../h/sem.h **** #include "list.h"
GAS LISTING /tmp/ccJMlntf.s 			page 7


   7:src/../h/sem.h **** 
   8:src/../h/sem.h **** class Sem {
   9:src/../h/sem.h **** private:
  10:src/../h/sem.h ****     int val;
  11:src/../h/sem.h ****     bool active;
  12:src/../h/sem.h ****     List<PCB> blocked;
  13:src/../h/sem.h **** 
  14:src/../h/sem.h ****     Sem(uint32 init = 1) : val(init), active(true) {}
  15:src/../h/sem.h **** 
  16:src/../h/sem.h **** protected:
  17:src/../h/sem.h ****     void block();
  18:src/../h/sem.h **** 
  19:src/../h/sem.h ****     void unblock();
  20:src/../h/sem.h **** 
  21:src/../h/sem.h ****     void setActive(bool val) { active = val; }
  22:src/../h/sem.h **** 
  23:src/../h/sem.h **** public:
  24:src/../h/sem.h ****     void wait() { if(--val < 0) block(); }
  25:src/../h/sem.h **** 
  26:src/../h/sem.h ****     void signal() { if(++val <= 0) unblock(); }
  27:src/../h/sem.h **** 
  28:src/../h/sem.h ****     static Sem* createSemaphore(uint32 init);
  29:src/../h/sem.h **** 
  30:src/../h/sem.h ****     static int deactivateSemaphore(sem_t handle);
  31:src/../h/sem.h **** 
  32:src/../h/sem.h ****     static void deleteSemaphore(sem_t handle);
  33:src/../h/sem.h **** 
  34:src/../h/sem.h ****     bool isActive() { return active; }
 232              		.loc 4 34 23
 233              		.loc 4 34 30 is_stmt 0
 234 0128 83474500 		lbu	a5,4(a0)
 235              	.LVL25:
 236              	.LBE67:
 237              	.LBE66:
 238              		.loc 1 20 5
 239 012c 638A0708 		beqz	a5,.L16
  19:src/sem.cpp   ****     if(!handle->isActive()) return -1;
 240              		.loc 1 19 44
 241 0130 130101FC 		addi	sp,sp,-64
 242              		.cfi_def_cfa_offset 64
 243 0134 233C1102 		sd	ra,56(sp)
 244 0138 23388102 		sd	s0,48(sp)
 245 013c 23349102 		sd	s1,40(sp)
 246 0140 23302103 		sd	s2,32(sp)
 247 0144 233C3101 		sd	s3,24(sp)
 248 0148 23384101 		sd	s4,16(sp)
 249 014c 23345101 		sd	s5,8(sp)
 250              		.cfi_offset 1, -8
 251              		.cfi_offset 8, -16
 252              		.cfi_offset 9, -24
 253              		.cfi_offset 18, -32
 254              		.cfi_offset 19, -40
 255              		.cfi_offset 20, -48
 256              		.cfi_offset 21, -56
 257 0150 13040104 		addi	s0,sp,64
 258              		.cfi_def_cfa 8, 0
 259 0154 93040500 		mv	s1,a0
GAS LISTING /tmp/ccJMlntf.s 			page 8


  21:src/sem.cpp   **** 
  22:src/sem.cpp   ****     handle->setActive(false);
 260              		.loc 1 22 5 is_stmt 1
 261              	.LVL26:
 262              	.LBB68:
 263              	.LBB69:
  21:src/../h/sem.h **** 
 264              		.loc 4 21 32
  21:src/../h/sem.h **** 
 265              		.loc 4 21 39 is_stmt 0
 266 0158 23020500 		sb	zero,4(a0)
 267              	.LVL27:
 268              	.LBE69:
 269              	.LBE68:
  23:src/sem.cpp   **** 
  24:src/sem.cpp   ****     uint64 queueSize = handle->blocked.getCnt();
 270              		.loc 1 24 5 is_stmt 1
 271              	.LBB70:
 272              	.LBB71:
  29:src/../h/list.h **** 
 273              		.loc 2 29 30 is_stmt 0
 274 015c 833A8501 		ld	s5,24(a0)
 275              	.LVL28:
 276              	.LBE71:
 277              	.LBE70:
  25:src/sem.cpp   **** 
  26:src/sem.cpp   ****     for(uint64 i = 0; i < queueSize; i++) {
 278              		.loc 1 26 5 is_stmt 1
 279              	.LBB72:
 280              		.loc 1 26 16 is_stmt 0
 281 0160 13090000 		li	s2,0
 282 0164 6F004003 		j	.L15
 283              	.LVL29:
 284              	.L23:
 285              	.LBB73:
 286              	.LBB74:
 287              	.LBB75:
  54:src/../h/list.h **** 
 288              		.loc 2 54 22
 289 0168 23B40900 		sd	zero,8(s3)
 290              	.L14:
  56:src/../h/list.h ****         delete elem;
 291              		.loc 2 56 12
 292 016c 033A0500 		ld	s4,0(a0)
 293              	.LVL30:
  57:src/../h/list.h ****         cnt--;
 294              		.loc 2 57 9
 295 0170 97000000 		call	_ZdlPv@plt
 295      E7800000 
 296              	.LVL31:
 297              		.loc 2 58 9
 298 0178 83B70901 		ld	a5,16(s3)
 299 017c 9387F7FF 		addi	a5,a5,-1
 300 0180 23B8F900 		sd	a5,16(s3)
 301              	.LVL32:
 302              	.L13:
 303              	.LBE75:
GAS LISTING /tmp/ccJMlntf.s 			page 9


 304              	.LBE74:
  27:src/sem.cpp   ****         thread_t th = handle->blocked.removeFirst();
  28:src/sem.cpp   ****         th->setBlocked(false);
 305              		.loc 1 28 9 is_stmt 1
 306              	.LBB77:
 307              	.LBB78:
 308              		.loc 3 22 35
 309              		.loc 3 22 43 is_stmt 0
 310 0184 A3080A02 		sb	zero,49(s4)
 311              	.LVL33:
 312              	.LBE78:
 313              	.LBE77:
  29:src/sem.cpp   ****         Scheduler::put(th);
 314              		.loc 1 29 9 is_stmt 1
 315              		.loc 1 29 23 is_stmt 0
 316 0188 13050A00 		mv	a0,s4
 317 018c 97000000 		call	_ZN9Scheduler3putEP3PCB@plt
 317      E7800000 
 318              	.LVL34:
 319              	.LBE73:
  26:src/sem.cpp   ****         thread_t th = handle->blocked.removeFirst();
 320              		.loc 1 26 5 is_stmt 1
 321 0194 13091900 		addi	s2,s2,1
 322              	.LVL35:
 323              	.L15:
  26:src/sem.cpp   ****         thread_t th = handle->blocked.removeFirst();
 324              		.loc 1 26 25 discriminator 3
 325 0198 63785903 		bgeu	s2,s5,.L17
 326              	.LBB80:
  27:src/sem.cpp   ****         thread_t th = handle->blocked.removeFirst();
 327              		.loc 1 27 9 discriminator 2
  27:src/sem.cpp   ****         thread_t th = handle->blocked.removeFirst();
 328              		.loc 1 27 50 is_stmt 0 discriminator 2
 329 019c 93898400 		addi	s3,s1,8
 330              	.LVL36:
 331              	.LBB79:
 332              	.LBB76:
  50:src/../h/list.h **** 
 333              		.loc 2 50 14 discriminator 2
 334 01a0 03B58400 		ld	a0,8(s1)
  50:src/../h/list.h **** 
 335              		.loc 2 50 9 discriminator 2
 336 01a4 630A0500 		beqz	a0,.L18
 337              	.LVL37:
  53:src/../h/list.h ****         if (!head) { tail = 0; }
 338              		.loc 2 53 22
 339 01a8 83378500 		ld	a5,8(a0)
  53:src/../h/list.h ****         if (!head) { tail = 0; }
 340              		.loc 2 53 9
 341 01ac 23B4F400 		sd	a5,8(s1)
  54:src/../h/list.h **** 
 342              		.loc 2 54 9
 343 01b0 E39E07FA 		bnez	a5,.L14
 344 01b4 6FF05FFB 		j	.L23
 345              	.LVL38:
 346              	.L18:
  50:src/../h/list.h **** 
GAS LISTING /tmp/ccJMlntf.s 			page 10


 347              		.loc 2 50 29
 348 01b8 130A0500 		mv	s4,a0
 349 01bc 6FF09FFC 		j	.L13
 350              	.LVL39:
 351              	.L16:
 352              		.cfi_def_cfa_register 2
 353              		.cfi_restore 1
 354              		.cfi_restore 8
 355              		.cfi_restore 9
 356              		.cfi_restore 18
 357              		.cfi_restore 19
 358              		.cfi_restore 20
 359              		.cfi_restore 21
 360              	.LBE76:
 361              	.LBE79:
 362              	.LBE80:
 363              	.LBE72:
  20:src/sem.cpp   **** 
 364              		.loc 1 20 37
 365 01c0 1305F0FF 		li	a0,-1
 366              	.LVL40:
  30:src/sem.cpp   ****     }
  31:src/sem.cpp   **** 
  32:src/sem.cpp   ****     return 0;
  33:src/sem.cpp   **** }
 367              		.loc 1 33 1
 368 01c4 67800000 		ret
 369              	.LVL41:
 370              	.L17:
 371              		.cfi_def_cfa_register 8
 372              		.cfi_offset 1, -8
 373              		.cfi_offset 8, -16
 374              		.cfi_offset 9, -24
 375              		.cfi_offset 18, -32
 376              		.cfi_offset 19, -40
 377              		.cfi_offset 20, -48
 378              		.cfi_offset 21, -56
  32:src/sem.cpp   **** }
 379              		.loc 1 32 12
 380 01c8 13050000 		li	a0,0
 381              		.loc 1 33 1
 382 01cc 83308103 		ld	ra,56(sp)
 383              		.cfi_restore 1
 384 01d0 03340103 		ld	s0,48(sp)
 385              		.cfi_restore 8
 386              		.cfi_def_cfa 2, 64
 387 01d4 83348102 		ld	s1,40(sp)
 388              		.cfi_restore 9
 389              	.LVL42:
 390 01d8 03390102 		ld	s2,32(sp)
 391              		.cfi_restore 18
 392              	.LVL43:
 393 01dc 83398101 		ld	s3,24(sp)
 394              		.cfi_restore 19
 395 01e0 033A0101 		ld	s4,16(sp)
 396              		.cfi_restore 20
 397 01e4 833A8100 		ld	s5,8(sp)
GAS LISTING /tmp/ccJMlntf.s 			page 11


 398              		.cfi_restore 21
 399              	.LVL44:
 400 01e8 13010104 		addi	sp,sp,64
 401              		.cfi_def_cfa_offset 0
 402 01ec 67800000 		jr	ra
 403              		.cfi_endproc
 404              	.LFE52:
 406              		.align	2
 407              		.globl	_ZN3SemnwEm
 409              	_ZN3SemnwEm:
 410              	.LFB54:
  34:src/sem.cpp   **** 
  35:src/sem.cpp   **** void Sem::deleteSemaphore(sem_t handle) {
  36:src/sem.cpp   ****     delete handle;
  37:src/sem.cpp   **** }
  38:src/sem.cpp   **** 
  39:src/sem.cpp   **** void *Sem::operator new(size_t size)  {
 411              		.loc 1 39 39 is_stmt 1
 412              		.cfi_startproc
 413              	.LVL45:
 414 01f0 130101FF 		addi	sp,sp,-16
 415              		.cfi_def_cfa_offset 16
 416 01f4 23341100 		sd	ra,8(sp)
 417 01f8 23308100 		sd	s0,0(sp)
 418              		.cfi_offset 1, -8
 419              		.cfi_offset 8, -16
 420 01fc 13040101 		addi	s0,sp,16
 421              		.cfi_def_cfa 8, 0
  40:src/sem.cpp   ****     size = size % MEM_BLOCK_SIZE == 0 ? size / MEM_BLOCK_SIZE : (size / MEM_BLOCK_SIZE + 1 ); //pre
 422              		.loc 1 40 5
 423              		.loc 1 40 17 is_stmt 0
 424 0200 9377F503 		andi	a5,a0,63
 425              		.loc 1 40 39
 426 0204 63900702 		bnez	a5,.L25
 427              		.loc 1 40 39 discriminator 1
 428 0208 13556500 		srli	a0,a0,6
 429              	.LVL46:
 430              	.L26:
  41:src/sem.cpp   ****     return MemoryAllocator::mem_alloc(size);
 431              		.loc 1 41 5 is_stmt 1 discriminator 4
 432              		.loc 1 41 38 is_stmt 0 discriminator 4
 433 020c 97000000 		call	_ZN15MemoryAllocator9mem_allocEm@plt
 433      E7800000 
 434              	.LVL47:
  42:src/sem.cpp   **** }
 435              		.loc 1 42 1 discriminator 4
 436 0214 83308100 		ld	ra,8(sp)
 437              		.cfi_remember_state
 438              		.cfi_restore 1
 439 0218 03340100 		ld	s0,0(sp)
 440              		.cfi_restore 8
 441              		.cfi_def_cfa 2, 16
 442 021c 13010101 		addi	sp,sp,16
 443              		.cfi_def_cfa_offset 0
 444 0220 67800000 		jr	ra
 445              	.LVL48:
 446              	.L25:
GAS LISTING /tmp/ccJMlntf.s 			page 12


 447              		.cfi_restore_state
  40:src/sem.cpp   ****     size = size % MEM_BLOCK_SIZE == 0 ? size / MEM_BLOCK_SIZE : (size / MEM_BLOCK_SIZE + 1 ); //pre
 448              		.loc 1 40 71 discriminator 2
 449 0224 13556500 		srli	a0,a0,6
 450              	.LVL49:
  40:src/sem.cpp   ****     size = size % MEM_BLOCK_SIZE == 0 ? size / MEM_BLOCK_SIZE : (size / MEM_BLOCK_SIZE + 1 ); //pre
 451              		.loc 1 40 39 discriminator 2
 452 0228 13051500 		addi	a0,a0,1
 453 022c 6FF01FFE 		j	.L26
 454              		.cfi_endproc
 455              	.LFE54:
 457              		.align	2
 458              		.globl	_ZN3Sem15createSemaphoreEj
 460              	_ZN3Sem15createSemaphoreEj:
 461              	.LFB51:
  15:src/sem.cpp   ****     return new Sem(init);
 462              		.loc 1 15 40 is_stmt 1
 463              		.cfi_startproc
 464              	.LVL50:
 465 0230 130101FE 		addi	sp,sp,-32
 466              		.cfi_def_cfa_offset 32
 467 0234 233C1100 		sd	ra,24(sp)
 468 0238 23388100 		sd	s0,16(sp)
 469 023c 23349100 		sd	s1,8(sp)
 470              		.cfi_offset 1, -8
 471              		.cfi_offset 8, -16
 472              		.cfi_offset 9, -24
 473 0240 13040102 		addi	s0,sp,32
 474              		.cfi_def_cfa 8, 0
 475 0244 93040500 		mv	s1,a0
  16:src/sem.cpp   **** }
 476              		.loc 1 16 5
  16:src/sem.cpp   **** }
 477              		.loc 1 16 24 is_stmt 0
 478 0248 13050002 		li	a0,32
 479              	.LVL51:
 480 024c 97000000 		call	_ZN3SemnwEm
 480      E7800000 
 481              	.LVL52:
 482              	.LBB81:
 483              	.LBB82:
  14:src/../h/sem.h **** 
 484              		.loc 4 14 50
 485 0254 23209500 		sw	s1,0(a0)
 486 0258 13071000 		li	a4,1
 487 025c 2302E500 		sb	a4,4(a0)
 488              	.LVL53:
 489              	.LBB83:
 490              	.LBB84:
  23:src/../h/list.h **** 
 491              		.loc 2 23 29
 492 0260 23340500 		sd	zero,8(a0)
 493 0264 23380500 		sd	zero,16(a0)
 494 0268 233C0500 		sd	zero,24(a0)
 495              	.LVL54:
 496              	.LBE84:
 497              	.LBE83:
GAS LISTING /tmp/ccJMlntf.s 			page 13


 498              	.LBE82:
 499              	.LBE81:
  17:src/sem.cpp   **** 
 500              		.loc 1 17 1
 501 026c 83308101 		ld	ra,24(sp)
 502              		.cfi_restore 1
 503 0270 03340101 		ld	s0,16(sp)
 504              		.cfi_restore 8
 505              		.cfi_def_cfa 2, 32
 506 0274 83348100 		ld	s1,8(sp)
 507              		.cfi_restore 9
 508 0278 13010102 		addi	sp,sp,32
 509              		.cfi_def_cfa_offset 0
 510 027c 67800000 		jr	ra
 511              		.cfi_endproc
 512              	.LFE51:
 514              		.align	2
 515              		.globl	_ZN3SemnaEm
 517              	_ZN3SemnaEm:
 518              	.LFB55:
  43:src/sem.cpp   **** 
  44:src/sem.cpp   **** void *Sem::operator new[](size_t size)  {
 519              		.loc 1 44 41 is_stmt 1
 520              		.cfi_startproc
 521              	.LVL55:
 522 0280 130101FF 		addi	sp,sp,-16
 523              		.cfi_def_cfa_offset 16
 524 0284 23341100 		sd	ra,8(sp)
 525 0288 23308100 		sd	s0,0(sp)
 526              		.cfi_offset 1, -8
 527              		.cfi_offset 8, -16
 528 028c 13040101 		addi	s0,sp,16
 529              		.cfi_def_cfa 8, 0
  45:src/sem.cpp   ****     size = size % MEM_BLOCK_SIZE == 0 ? size / MEM_BLOCK_SIZE : (size / MEM_BLOCK_SIZE + 1 ); //pre
 530              		.loc 1 45 5
 531              		.loc 1 45 17 is_stmt 0
 532 0290 9377F503 		andi	a5,a0,63
 533              		.loc 1 45 39
 534 0294 63900702 		bnez	a5,.L31
 535              		.loc 1 45 39 discriminator 1
 536 0298 13556500 		srli	a0,a0,6
 537              	.LVL56:
 538              	.L32:
  46:src/sem.cpp   ****     return MemoryAllocator::mem_alloc(size);
 539              		.loc 1 46 5 is_stmt 1 discriminator 4
 540              		.loc 1 46 38 is_stmt 0 discriminator 4
 541 029c 97000000 		call	_ZN15MemoryAllocator9mem_allocEm@plt
 541      E7800000 
 542              	.LVL57:
  47:src/sem.cpp   **** }
 543              		.loc 1 47 1 discriminator 4
 544 02a4 83308100 		ld	ra,8(sp)
 545              		.cfi_remember_state
 546              		.cfi_restore 1
 547 02a8 03340100 		ld	s0,0(sp)
 548              		.cfi_restore 8
 549              		.cfi_def_cfa 2, 16
GAS LISTING /tmp/ccJMlntf.s 			page 14


 550 02ac 13010101 		addi	sp,sp,16
 551              		.cfi_def_cfa_offset 0
 552 02b0 67800000 		jr	ra
 553              	.LVL58:
 554              	.L31:
 555              		.cfi_restore_state
  45:src/sem.cpp   ****     size = size % MEM_BLOCK_SIZE == 0 ? size / MEM_BLOCK_SIZE : (size / MEM_BLOCK_SIZE + 1 ); //pre
 556              		.loc 1 45 71 discriminator 2
 557 02b4 13556500 		srli	a0,a0,6
 558              	.LVL59:
  45:src/sem.cpp   ****     size = size % MEM_BLOCK_SIZE == 0 ? size / MEM_BLOCK_SIZE : (size / MEM_BLOCK_SIZE + 1 ); //pre
 559              		.loc 1 45 39 discriminator 2
 560 02b8 13051500 		addi	a0,a0,1
 561 02bc 6FF01FFE 		j	.L32
 562              		.cfi_endproc
 563              	.LFE55:
 565              		.align	2
 566              		.globl	_ZN3SemdlEPv
 568              	_ZN3SemdlEPv:
 569              	.LFB56:
  48:src/sem.cpp   **** 
  49:src/sem.cpp   **** void Sem::operator delete(void *p) noexcept  { MemoryAllocator::mem_free(p); }
 570              		.loc 1 49 46 is_stmt 1
 571              		.cfi_startproc
 572              		.cfi_personality 0x9b,DW.ref.__gxx_personality_v0
 573              		.cfi_lsda 0x1b,.LLSDA56
 574              	.LVL60:
 575 02c0 130101FF 		addi	sp,sp,-16
 576              		.cfi_def_cfa_offset 16
 577 02c4 23341100 		sd	ra,8(sp)
 578 02c8 23308100 		sd	s0,0(sp)
 579              		.cfi_offset 1, -8
 580              		.cfi_offset 8, -16
 581 02cc 13040101 		addi	s0,sp,16
 582              		.cfi_def_cfa 8, 0
 583              		.loc 1 49 48
 584              		.loc 1 49 73 is_stmt 0
 585 02d0 97000000 		call	_ZN15MemoryAllocator8mem_freeEPv@plt
 585      E7800000 
 586              	.LVL61:
 587              		.loc 1 49 78
 588 02d8 83308100 		ld	ra,8(sp)
 589              		.cfi_restore 1
 590 02dc 03340100 		ld	s0,0(sp)
 591              		.cfi_restore 8
 592              		.cfi_def_cfa 2, 16
 593 02e0 13010101 		addi	sp,sp,16
 594              		.cfi_def_cfa_offset 0
 595 02e4 67800000 		jr	ra
 596              		.cfi_endproc
 597              	.LFE56:
 598              		.globl	__gxx_personality_v0
 599              		.section	.gcc_except_table,"a",@progbits
 600              	.LLSDA56:
 601 0000 FF       		.byte	0xff
 602 0001 FF       		.byte	0xff
 603 0002 03       		.byte	0x3
GAS LISTING /tmp/ccJMlntf.s 			page 15


 604 0003 00       		.byte	0
 605              		.text
 607              		.align	2
 608              		.globl	_ZN3Sem15deleteSemaphoreEPS_
 610              	_ZN3Sem15deleteSemaphoreEPS_:
 611              	.LFB53:
  35:src/sem.cpp   ****     delete handle;
 612              		.loc 1 35 41 is_stmt 1
 613              		.cfi_startproc
 614              	.LVL62:
  36:src/sem.cpp   **** }
 615              		.loc 1 36 5
  36:src/sem.cpp   **** }
 616              		.loc 1 36 18 is_stmt 0
 617 02e8 63060502 		beqz	a0,.L39
  35:src/sem.cpp   ****     delete handle;
 618              		.loc 1 35 41 discriminator 1
 619 02ec 130101FF 		addi	sp,sp,-16
 620              		.cfi_def_cfa_offset 16
 621 02f0 23341100 		sd	ra,8(sp)
 622 02f4 23308100 		sd	s0,0(sp)
 623              		.cfi_offset 1, -8
 624              		.cfi_offset 8, -16
 625 02f8 13040101 		addi	s0,sp,16
 626              		.cfi_def_cfa 8, 0
  36:src/sem.cpp   **** }
 627              		.loc 1 36 12 discriminator 1
 628 02fc 97000000 		call	_ZN3SemdlEPv
 628      E7800000 
 629              	.LVL63:
  37:src/sem.cpp   **** 
 630              		.loc 1 37 1 discriminator 1
 631 0304 83308100 		ld	ra,8(sp)
 632              		.cfi_restore 1
 633 0308 03340100 		ld	s0,0(sp)
 634              		.cfi_restore 8
 635              		.cfi_def_cfa 2, 16
 636 030c 13010101 		addi	sp,sp,16
 637              		.cfi_def_cfa_offset 0
 638 0310 67800000 		jr	ra
 639              	.LVL64:
 640              	.L39:
 641 0314 67800000 		ret
 642              		.cfi_endproc
 643              	.LFE53:
 645              		.align	2
 646              		.globl	_ZN3SemdaEPv
 648              	_ZN3SemdaEPv:
 649              	.LFB57:
  50:src/sem.cpp   **** 
  51:src/sem.cpp   **** void Sem::operator delete[](void *p) noexcept  { MemoryAllocator::mem_free(p); }
 650              		.loc 1 51 48 is_stmt 1
 651              		.cfi_startproc
 652              		.cfi_personality 0x9b,DW.ref.__gxx_personality_v0
 653              		.cfi_lsda 0x1b,.LLSDA57
 654              	.LVL65:
 655 0318 130101FF 		addi	sp,sp,-16
GAS LISTING /tmp/ccJMlntf.s 			page 16


 656              		.cfi_def_cfa_offset 16
 657 031c 23341100 		sd	ra,8(sp)
 658 0320 23308100 		sd	s0,0(sp)
 659              		.cfi_offset 1, -8
 660              		.cfi_offset 8, -16
 661 0324 13040101 		addi	s0,sp,16
 662              		.cfi_def_cfa 8, 0
 663              		.loc 1 51 50
 664              		.loc 1 51 75 is_stmt 0
 665 0328 97000000 		call	_ZN15MemoryAllocator8mem_freeEPv@plt
 665      E7800000 
 666              	.LVL66:
 667              		.loc 1 51 80
 668 0330 83308100 		ld	ra,8(sp)
 669              		.cfi_restore 1
 670 0334 03340100 		ld	s0,0(sp)
 671              		.cfi_restore 8
 672              		.cfi_def_cfa 2, 16
 673 0338 13010101 		addi	sp,sp,16
 674              		.cfi_def_cfa_offset 0
 675 033c 67800000 		jr	ra
 676              		.cfi_endproc
 677              	.LFE57:
 678              		.section	.gcc_except_table
 679              	.LLSDA57:
 680 0004 FF       		.byte	0xff
 681 0005 FF       		.byte	0xff
 682 0006 03       		.byte	0x3
 683 0007 00       		.byte	0
 684              		.text
 686              	.Letext0:
 687              		.file 5 "src/../h/../lib/hw.h"
 688              		.file 6 "src/../h/syscall_c.h"
 689              		.file 7 "src/../h/memoryAllocator.h"
 690              		.file 8 "src/../h/scheduler.h"
 4550              		.align	3
 4553              	DW.ref.__gxx_personality_v0:
 4554 0000 00000000 		.dword	__gxx_personality_v0
 4554      00000000 
 4555              		.ident	"GCC: (Ubuntu 9.4.0-1ubuntu1~20.04) 9.4.0"
 4556              		.section	.note.GNU-stack,"",@progbits
GAS LISTING /tmp/ccJMlntf.s 			page 17

