GAS LISTING /tmp/ccLQ74S7.s 			page 1


   1              		.file	"supervisorTrapHandler.cpp"
   2              		.option pic
   3              		.option norelax
   4              		.text
   5              	.Ltext0:
   6              		.section	.rodata.str1.8,"aMS",@progbits,1
   7              		.align	3
   8              	.LC0:
   9 0000 53455043 		.string	"SEPC: "
   9      3A2000
  10 0007 00       		.align	3
  11              	.LC1:
  12 0008 53434155 		.string	"SCAUSE: "
  12      53453A20 
  12      00
  13              		.text
  14              		.align	2
  15              		.globl	handleSupervisorTrap
  17              	handleSupervisorTrap:
  18              	.LFB49:
  19              		.file 1 "src/supervisorTrapHandler.cpp"
   1:src/supervisorTrapHandler.cpp **** #include "../h/memoryAllocator.h"
   2:src/supervisorTrapHandler.cpp **** #include "../h/pcb.h"
   3:src/supervisorTrapHandler.cpp **** #include "../h/syscall_c.h"
   4:src/supervisorTrapHandler.cpp **** #include "../h/sem.h"
   5:src/supervisorTrapHandler.cpp **** #include "../lib/console.h"
   6:src/supervisorTrapHandler.cpp **** #include "../h/riscv.h"
   7:src/supervisorTrapHandler.cpp **** #include "../test/printing.hpp"
   8:src/supervisorTrapHandler.cpp **** 
   9:src/supervisorTrapHandler.cpp **** extern "C" void handleSupervisorTrap() {
  20              		.loc 1 9 40
  21              		.cfi_startproc
  22 0000 130101FB 		addi	sp,sp,-80
  23              		.cfi_def_cfa_offset 80
  24 0004 23341104 		sd	ra,72(sp)
  25 0008 23308104 		sd	s0,64(sp)
  26 000c 233C9102 		sd	s1,56(sp)
  27 0010 23382103 		sd	s2,48(sp)
  28 0014 23343103 		sd	s3,40(sp)
  29              		.cfi_offset 1, -8
  30              		.cfi_offset 8, -16
  31              		.cfi_offset 9, -24
  32              		.cfi_offset 18, -32
  33              		.cfi_offset 19, -40
  34 0018 13040105 		addi	s0,sp,80
  35              		.cfi_def_cfa 8, 0
  10:src/supervisorTrapHandler.cpp **** 
  11:src/supervisorTrapHandler.cpp ****     uint64 scause = Riscv::r_scause();
  36              		.loc 1 11 5
  37              	.LBB46:
  38              	.LBB47:
  39              		.file 2 "src/../h/../h/riscv.h"
   1:src/../h/../h/riscv.h **** #ifndef PROJEKAT_RISCV_H
   2:src/../h/../h/riscv.h **** #define PROJEKAT_RISCV_H
   3:src/../h/../h/riscv.h **** 
   4:src/../h/../h/riscv.h **** #include "../lib/hw.h"
   5:src/../h/../h/riscv.h **** 
GAS LISTING /tmp/ccLQ74S7.s 			page 2


   6:src/../h/../h/riscv.h **** class Riscv
   7:src/../h/../h/riscv.h **** {
   8:src/../h/../h/riscv.h **** public:
   9:src/../h/../h/riscv.h **** 
  10:src/../h/../h/riscv.h ****     // pop sstatus.spp and sstatus.spie bits (has to be a non inline function)
  11:src/../h/../h/riscv.h ****     static void popSppSpie();
  12:src/../h/../h/riscv.h **** 
  13:src/../h/../h/riscv.h ****     // push x3..x31 registers onto stack
  14:src/../h/../h/riscv.h ****     static void pushRegisters();
  15:src/../h/../h/riscv.h **** 
  16:src/../h/../h/riscv.h ****     // pop x3..x31 registers onto stack
  17:src/../h/../h/riscv.h ****     static void popRegisters();
  18:src/../h/../h/riscv.h **** 
  19:src/../h/../h/riscv.h ****     // read register scause
  20:src/../h/../h/riscv.h ****     static uint64 r_scause();
  21:src/../h/../h/riscv.h **** 
  22:src/../h/../h/riscv.h ****     // write register scause
  23:src/../h/../h/riscv.h ****     static void w_scause(uint64 scause);
  24:src/../h/../h/riscv.h **** 
  25:src/../h/../h/riscv.h ****     // read register sepc
  26:src/../h/../h/riscv.h ****     static uint64 r_sepc();
  27:src/../h/../h/riscv.h **** 
  28:src/../h/../h/riscv.h ****     // write register sepc
  29:src/../h/../h/riscv.h ****     static void w_sepc(uint64 sepc);
  30:src/../h/../h/riscv.h **** 
  31:src/../h/../h/riscv.h ****     // read register stvec
  32:src/../h/../h/riscv.h ****     static uint64 r_stvec();
  33:src/../h/../h/riscv.h **** 
  34:src/../h/../h/riscv.h ****     // write register stvec
  35:src/../h/../h/riscv.h ****     static void w_stvec(uint64 stvec);
  36:src/../h/../h/riscv.h **** 
  37:src/../h/../h/riscv.h ****     // read register stval
  38:src/../h/../h/riscv.h ****     static uint64 r_stval();
  39:src/../h/../h/riscv.h **** 
  40:src/../h/../h/riscv.h ****     // write register stval
  41:src/../h/../h/riscv.h ****     static void w_stval(uint64 stval);
  42:src/../h/../h/riscv.h **** 
  43:src/../h/../h/riscv.h ****     enum BitMaskSip
  44:src/../h/../h/riscv.h ****     {
  45:src/../h/../h/riscv.h ****         SIP_SSIE = (1 << 1),
  46:src/../h/../h/riscv.h ****         SIP_STIE = (1 << 5),
  47:src/../h/../h/riscv.h ****         SIP_SEIE = (1 << 9),
  48:src/../h/../h/riscv.h ****     };
  49:src/../h/../h/riscv.h **** 
  50:src/../h/../h/riscv.h ****     // mask set register sip
  51:src/../h/../h/riscv.h ****     static void ms_sip(uint64 mask);
  52:src/../h/../h/riscv.h **** 
  53:src/../h/../h/riscv.h ****     // mask clear register sip
  54:src/../h/../h/riscv.h ****     static void mc_sip(uint64 mask);
  55:src/../h/../h/riscv.h **** 
  56:src/../h/../h/riscv.h ****     // read register sip
  57:src/../h/../h/riscv.h ****     static uint64 r_sip();
  58:src/../h/../h/riscv.h **** 
  59:src/../h/../h/riscv.h ****     // write register sip
  60:src/../h/../h/riscv.h ****     static void w_sip(uint64 sip);
  61:src/../h/../h/riscv.h **** 
  62:src/../h/../h/riscv.h ****     enum BitMaskSstatus
GAS LISTING /tmp/ccLQ74S7.s 			page 3


  63:src/../h/../h/riscv.h ****     {
  64:src/../h/../h/riscv.h ****         SSTATUS_SIE = (1 << 1),
  65:src/../h/../h/riscv.h ****         SSTATUS_SPIE = (1 << 5),
  66:src/../h/../h/riscv.h ****         SSTATUS_SPP = (1 << 8),
  67:src/../h/../h/riscv.h ****     };
  68:src/../h/../h/riscv.h **** 
  69:src/../h/../h/riscv.h ****     // mask set register sstatus
  70:src/../h/../h/riscv.h ****     static void ms_sstatus(uint64 mask);
  71:src/../h/../h/riscv.h **** 
  72:src/../h/../h/riscv.h ****     // mask clear register sstatus
  73:src/../h/../h/riscv.h ****     static void mc_sstatus(uint64 mask);
  74:src/../h/../h/riscv.h **** 
  75:src/../h/../h/riscv.h ****     // read register sstatus
  76:src/../h/../h/riscv.h ****     static uint64 r_sstatus();
  77:src/../h/../h/riscv.h **** 
  78:src/../h/../h/riscv.h ****     // write register sstatus
  79:src/../h/../h/riscv.h ****     static void w_sstatus(uint64 sstatus);
  80:src/../h/../h/riscv.h **** 
  81:src/../h/../h/riscv.h **** private:
  82:src/../h/../h/riscv.h **** 
  83:src/../h/../h/riscv.h **** };
  84:src/../h/../h/riscv.h **** 
  85:src/../h/../h/riscv.h **** inline uint64 Riscv::r_scause()
  86:src/../h/../h/riscv.h **** {
  87:src/../h/../h/riscv.h ****     uint64 volatile scause;
  40              		.loc 2 87 5
  88:src/../h/../h/riscv.h ****     __asm__ volatile ("csrr %[scause], scause" : [scause] "=r"(scause));
  41              		.loc 2 88 5
  42              		.loc 2 88 72 is_stmt 0
  43              	#APP
  44              	# 88 "src/../h/../h/riscv.h" 1
  89              	    return scause;
  45              		csrr a5, scause
  46              	# 0 "" 2
  47              	#NO_APP
  48 0020 2334F4FC 		sd	a5,-56(s0)
  49              		.loc 2 89 5 is_stmt 1
  50              		.loc 2 89 12 is_stmt 0
  51 0024 833484FC 		ld	s1,-56(s0)
  52              	.LVL0:
  53              	.LBE47:
  54              	.LBE46:
  12:src/supervisorTrapHandler.cpp ****     uint64 sepc = Riscv::r_sepc();
  55              		.loc 1 12 5 is_stmt 1
  56              	.LBB48:
  57              	.LBB49:
  90:src/../h/../h/riscv.h **** }
  91:src/../h/../h/riscv.h **** 
  92:src/../h/../h/riscv.h **** inline void Riscv::w_scause(uint64 scause)
  93:src/../h/../h/riscv.h **** {
  94:src/../h/../h/riscv.h ****     __asm__ volatile ("csrw scause, %[scause]" : : [scause] "r"(scause));
  95:src/../h/../h/riscv.h **** }
  96:src/../h/../h/riscv.h **** 
  97:src/../h/../h/riscv.h **** inline uint64 Riscv::r_sepc()
  98:src/../h/../h/riscv.h **** {
  99:src/../h/../h/riscv.h ****     uint64 volatile sepc;
  58              		.loc 2 99 5
GAS LISTING /tmp/ccLQ74S7.s 			page 4


 100:src/../h/../h/riscv.h ****     __asm__ volatile ("csrr %[sepc], sepc" : [sepc] "=r"(sepc));
  59              		.loc 2 100 5
  60              		.loc 2 100 64 is_stmt 0
  61              	#APP
  62              	# 100 "src/../h/../h/riscv.h" 1
 101              	    return sepc;
  63              		csrr a5, sepc
  64              	# 0 "" 2
  65              	#NO_APP
  66 002c 2330F4FC 		sd	a5,-64(s0)
  67              		.loc 2 101 5 is_stmt 1
  68              		.loc 2 101 12 is_stmt 0
  69 0030 033904FC 		ld	s2,-64(s0)
  70              	.LVL1:
  71              	.LBE49:
  72              	.LBE48:
  13:src/supervisorTrapHandler.cpp ****     uint64 sstatus = Riscv::r_sstatus();
  73              		.loc 1 13 5 is_stmt 1
  74              	.LBB50:
  75              	.LBB51:
 102:src/../h/../h/riscv.h **** }
 103:src/../h/../h/riscv.h **** 
 104:src/../h/../h/riscv.h **** inline void Riscv::w_sepc(uint64 sepc)
 105:src/../h/../h/riscv.h **** {
 106:src/../h/../h/riscv.h ****     __asm__ volatile ("csrw sepc, %[sepc]" : : [sepc] "r"(sepc));
 107:src/../h/../h/riscv.h **** }
 108:src/../h/../h/riscv.h **** 
 109:src/../h/../h/riscv.h **** inline uint64 Riscv::r_stvec()
 110:src/../h/../h/riscv.h **** {
 111:src/../h/../h/riscv.h ****     uint64 volatile stvec;
 112:src/../h/../h/riscv.h ****     __asm__ volatile ("csrr %[stvec], stvec" : [stvec] "=r"(stvec));
 113:src/../h/../h/riscv.h ****     return stvec;
 114:src/../h/../h/riscv.h **** }
 115:src/../h/../h/riscv.h **** 
 116:src/../h/../h/riscv.h **** inline void Riscv::w_stvec(uint64 stvec)
 117:src/../h/../h/riscv.h **** {
 118:src/../h/../h/riscv.h ****     __asm__ volatile ("csrw stvec, %[stvec]" : : [stvec] "r"(stvec));
 119:src/../h/../h/riscv.h **** }
 120:src/../h/../h/riscv.h **** 
 121:src/../h/../h/riscv.h **** inline uint64 Riscv::r_stval()
 122:src/../h/../h/riscv.h **** {
 123:src/../h/../h/riscv.h ****     uint64 volatile stval;
 124:src/../h/../h/riscv.h ****     __asm__ volatile ("csrr %[stval], stval" : [stval] "=r"(stval));
 125:src/../h/../h/riscv.h ****     return stval;
 126:src/../h/../h/riscv.h **** }
 127:src/../h/../h/riscv.h **** 
 128:src/../h/../h/riscv.h **** inline void Riscv::w_stval(uint64 stval)
 129:src/../h/../h/riscv.h **** {
 130:src/../h/../h/riscv.h ****     __asm__ volatile ("csrw stval, %[stval]" : : [stval] "r"(stval));
 131:src/../h/../h/riscv.h **** }
 132:src/../h/../h/riscv.h **** 
 133:src/../h/../h/riscv.h **** inline void Riscv::ms_sip(uint64 mask)
 134:src/../h/../h/riscv.h **** {
 135:src/../h/../h/riscv.h ****     __asm__ volatile ("csrs sip, %[mask]" : : [mask] "r"(mask));
 136:src/../h/../h/riscv.h **** }
 137:src/../h/../h/riscv.h **** 
 138:src/../h/../h/riscv.h **** inline void Riscv::mc_sip(uint64 mask)
GAS LISTING /tmp/ccLQ74S7.s 			page 5


 139:src/../h/../h/riscv.h **** {
 140:src/../h/../h/riscv.h ****     __asm__ volatile ("csrc sip, %[mask]" : : [mask] "r"(mask));
 141:src/../h/../h/riscv.h **** }
 142:src/../h/../h/riscv.h **** 
 143:src/../h/../h/riscv.h **** inline uint64 Riscv::r_sip()
 144:src/../h/../h/riscv.h **** {
 145:src/../h/../h/riscv.h ****     uint64 volatile sip;
 146:src/../h/../h/riscv.h ****     __asm__ volatile ("csrr %[sip], sip" : [sip] "=r"(sip));
 147:src/../h/../h/riscv.h ****     return sip;
 148:src/../h/../h/riscv.h **** }
 149:src/../h/../h/riscv.h **** 
 150:src/../h/../h/riscv.h **** inline void Riscv::w_sip(uint64 sip)
 151:src/../h/../h/riscv.h **** {
 152:src/../h/../h/riscv.h ****     __asm__ volatile ("csrw sip, %[sip]" : : [sip] "r"(sip));
 153:src/../h/../h/riscv.h **** }
 154:src/../h/../h/riscv.h **** 
 155:src/../h/../h/riscv.h **** inline void Riscv::ms_sstatus(uint64 mask)
 156:src/../h/../h/riscv.h **** {
 157:src/../h/../h/riscv.h ****     __asm__ volatile ("csrs sstatus, %[mask]" : : [mask] "r"(mask));
 158:src/../h/../h/riscv.h **** }
 159:src/../h/../h/riscv.h **** 
 160:src/../h/../h/riscv.h **** inline void Riscv::mc_sstatus(uint64 mask)
 161:src/../h/../h/riscv.h **** {
 162:src/../h/../h/riscv.h ****     __asm__ volatile ("csrc sstatus, %[mask]" : : [mask] "r"(mask));
 163:src/../h/../h/riscv.h **** }
 164:src/../h/../h/riscv.h **** 
 165:src/../h/../h/riscv.h **** inline uint64 Riscv::r_sstatus()
 166:src/../h/../h/riscv.h **** {
 167:src/../h/../h/riscv.h ****     uint64 volatile sstatus;
  76              		.loc 2 167 5
 168:src/../h/../h/riscv.h ****     __asm__ volatile ("csrr %[sstatus], sstatus" : [sstatus] "=r"(sstatus));
  77              		.loc 2 168 5
  78              		.loc 2 168 76 is_stmt 0
  79              	#APP
  80              	# 168 "src/../h/../h/riscv.h" 1
 169              	    return sstatus;
  81              		csrr a5, sstatus
  82              	# 0 "" 2
  83              	#NO_APP
  84 0038 233CF4FA 		sd	a5,-72(s0)
  85              		.loc 2 169 5 is_stmt 1
  86              		.loc 2 169 12 is_stmt 0
  87 003c 833984FB 		ld	s3,-72(s0)
  88              	.LVL2:
  89              	.LBE51:
  90              	.LBE50:
  14:src/supervisorTrapHandler.cpp **** 
  15:src/supervisorTrapHandler.cpp ****     if(scause == 9 || scause == 8) {
  91              		.loc 1 15 5 is_stmt 1
  92              	.LBB52:
  93              		.loc 1 15 20 is_stmt 0
  94 0040 138784FF 		addi	a4,s1,-8
  95              		.loc 1 15 5
  96 0044 93071000 		li	a5,1
  97 0048 63FCE704 		bleu	a4,a5,.L32
  16:src/supervisorTrapHandler.cpp ****         uint64 code;
  17:src/supervisorTrapHandler.cpp ****         __asm__ volatile("mv %0, a0" : "=r" (code));
GAS LISTING /tmp/ccLQ74S7.s 			page 6


  18:src/supervisorTrapHandler.cpp **** 
  19:src/supervisorTrapHandler.cpp ****         switch (code) {
  20:src/supervisorTrapHandler.cpp ****             case MALLOC_CODE: { //mem_alloc
  21:src/supervisorTrapHandler.cpp ****                 size_t size;
  22:src/supervisorTrapHandler.cpp ****                 __asm__ volatile("mv %0, a1" : "=r" (size));
  23:src/supervisorTrapHandler.cpp **** 
  24:src/supervisorTrapHandler.cpp ****                 MemoryAllocator::mem_alloc(size);
  25:src/supervisorTrapHandler.cpp ****             }break;
  26:src/supervisorTrapHandler.cpp **** 
  27:src/supervisorTrapHandler.cpp ****             case MFREE_CODE: { //mem_free
  28:src/supervisorTrapHandler.cpp ****                 void *ptr;
  29:src/supervisorTrapHandler.cpp ****                 __asm__ volatile("mv %0, a1" : "=r" (ptr));
  30:src/supervisorTrapHandler.cpp **** 
  31:src/supervisorTrapHandler.cpp ****                 MemoryAllocator::mem_free(ptr);
  32:src/supervisorTrapHandler.cpp ****             }break;
  33:src/supervisorTrapHandler.cpp **** 
  34:src/supervisorTrapHandler.cpp ****             case TCREATE_CODE: { //thread_create
  35:src/supervisorTrapHandler.cpp ****                 thread_t* handle;
  36:src/supervisorTrapHandler.cpp ****                 void (*start_routine)(void *);
  37:src/supervisorTrapHandler.cpp ****                 void *arg;
  38:src/supervisorTrapHandler.cpp ****                 uint64 *stack;
  39:src/supervisorTrapHandler.cpp **** 
  40:src/supervisorTrapHandler.cpp ****                 __asm__ volatile("mv %0, a1" : "=r" (handle));
  41:src/supervisorTrapHandler.cpp ****                 __asm__ volatile("mv %0, a2" : "=r" (start_routine));
  42:src/supervisorTrapHandler.cpp ****                 __asm__ volatile("mv %0, a3" : "=r" (arg));
  43:src/supervisorTrapHandler.cpp ****                 __asm__ volatile("mv %0, a7" : "=r" (stack));
  44:src/supervisorTrapHandler.cpp **** 
  45:src/supervisorTrapHandler.cpp ****                 *handle = PCB::createProcess(start_routine, stack, arg, true);
  46:src/supervisorTrapHandler.cpp ****             }break;
  47:src/supervisorTrapHandler.cpp **** 
  48:src/supervisorTrapHandler.cpp ****             case TDISPATCH_CODE: { //thread_dispatch
  49:src/supervisorTrapHandler.cpp ****                 PCB::yield();
  50:src/supervisorTrapHandler.cpp ****             }break;
  51:src/supervisorTrapHandler.cpp **** 
  52:src/supervisorTrapHandler.cpp ****             case TEXIT_CODE: { //thread_exit
  53:src/supervisorTrapHandler.cpp ****                 PCB::running->setFinished(true);
  54:src/supervisorTrapHandler.cpp ****                 PCB::yield();
  55:src/supervisorTrapHandler.cpp ****             } break;
  56:src/supervisorTrapHandler.cpp **** 
  57:src/supervisorTrapHandler.cpp ****             case SOPEN_CODE: { //sem_open
  58:src/supervisorTrapHandler.cpp ****                 sem_t* handle;
  59:src/supervisorTrapHandler.cpp ****                 uint32 init;
  60:src/supervisorTrapHandler.cpp **** 
  61:src/supervisorTrapHandler.cpp ****                 __asm__ volatile("mv %0, a1" : "=r" (handle));
  62:src/supervisorTrapHandler.cpp ****                 __asm__ volatile("mv %0, a2" : "=r" (init));
  63:src/supervisorTrapHandler.cpp **** 
  64:src/supervisorTrapHandler.cpp ****                 *handle = Sem::createSemaphore(init);
  65:src/supervisorTrapHandler.cpp ****             } break;
  66:src/supervisorTrapHandler.cpp **** 
  67:src/supervisorTrapHandler.cpp ****             case SCLOSE_CODE: { //sem_close
  68:src/supervisorTrapHandler.cpp ****                 sem_t handle;
  69:src/supervisorTrapHandler.cpp **** 
  70:src/supervisorTrapHandler.cpp ****                 __asm__ volatile("mv %0, a1" : "=r" (handle));
  71:src/supervisorTrapHandler.cpp **** 
  72:src/supervisorTrapHandler.cpp ****                 Sem::deactivateSemaphore(handle);
  73:src/supervisorTrapHandler.cpp ****             } break;
  74:src/supervisorTrapHandler.cpp **** 
GAS LISTING /tmp/ccLQ74S7.s 			page 7


  75:src/supervisorTrapHandler.cpp ****             case SDELETE_CODE: { //sem_close
  76:src/supervisorTrapHandler.cpp ****                 sem_t handle;
  77:src/supervisorTrapHandler.cpp **** 
  78:src/supervisorTrapHandler.cpp ****                 __asm__ volatile("mv %0, a1" : "=r" (handle));
  79:src/supervisorTrapHandler.cpp **** 
  80:src/supervisorTrapHandler.cpp ****                 Sem::deleteSemaphore(handle);
  81:src/supervisorTrapHandler.cpp ****             } break;
  82:src/supervisorTrapHandler.cpp **** 
  83:src/supervisorTrapHandler.cpp ****             case SWAIT_CODE: { //sem_wait
  84:src/supervisorTrapHandler.cpp ****                 sem_t handle; int ret = -1;
  85:src/supervisorTrapHandler.cpp **** 
  86:src/supervisorTrapHandler.cpp ****                 __asm__ volatile("mv %0, a1" : "=r" (handle));
  87:src/supervisorTrapHandler.cpp **** 
  88:src/supervisorTrapHandler.cpp ****                 if(handle->isActive()) {
  89:src/supervisorTrapHandler.cpp ****                     handle->wait();
  90:src/supervisorTrapHandler.cpp ****                     ret = 0;
  91:src/supervisorTrapHandler.cpp ****                 }
  92:src/supervisorTrapHandler.cpp **** 
  93:src/supervisorTrapHandler.cpp ****                 __asm__ volatile("mv a0, %0" : : "r" (ret));
  94:src/supervisorTrapHandler.cpp ****             } break;
  95:src/supervisorTrapHandler.cpp **** 
  96:src/supervisorTrapHandler.cpp ****             case SSIGNAL_CODE: { //sem_signal
  97:src/supervisorTrapHandler.cpp ****                 sem_t handle; int ret = -1;
  98:src/supervisorTrapHandler.cpp **** 
  99:src/supervisorTrapHandler.cpp ****                 __asm__ volatile("mv %0, a1" : "=r" (handle));
 100:src/supervisorTrapHandler.cpp **** 
 101:src/supervisorTrapHandler.cpp ****                 if(handle->isActive()) {
 102:src/supervisorTrapHandler.cpp ****                     handle->signal();
 103:src/supervisorTrapHandler.cpp ****                     ret = 0;
 104:src/supervisorTrapHandler.cpp ****                 }
 105:src/supervisorTrapHandler.cpp **** 
 106:src/supervisorTrapHandler.cpp ****                 __asm__ volatile("mv a0, %0" : : "r" (ret));
 107:src/supervisorTrapHandler.cpp ****             } break;
 108:src/supervisorTrapHandler.cpp **** 
 109:src/supervisorTrapHandler.cpp ****             case CGETC_CODE: { //getc
 110:src/supervisorTrapHandler.cpp ****                 char c = __getc();
 111:src/supervisorTrapHandler.cpp **** 
 112:src/supervisorTrapHandler.cpp ****                 __asm__ volatile("mv a0, %0" : : "r" (c));
 113:src/supervisorTrapHandler.cpp ****             } break;
 114:src/supervisorTrapHandler.cpp **** 
 115:src/supervisorTrapHandler.cpp ****             case CPUTC_CODE: { //putc
 116:src/supervisorTrapHandler.cpp ****                 char c;
 117:src/supervisorTrapHandler.cpp **** 
 118:src/supervisorTrapHandler.cpp ****                 __asm__ volatile("mv %0, a1" : "=r" (c));
 119:src/supervisorTrapHandler.cpp **** 
 120:src/supervisorTrapHandler.cpp ****                 __putc(c);
 121:src/supervisorTrapHandler.cpp ****             } break;
 122:src/supervisorTrapHandler.cpp **** 
 123:src/supervisorTrapHandler.cpp ****             case TALLOC_CODE: { //thread_alloc
 124:src/supervisorTrapHandler.cpp ****                 thread_t* handle;
 125:src/supervisorTrapHandler.cpp ****                 void (*start_routine)(void *);
 126:src/supervisorTrapHandler.cpp ****                 void *arg;
 127:src/supervisorTrapHandler.cpp ****                 uint64 *stack;
 128:src/supervisorTrapHandler.cpp **** 
 129:src/supervisorTrapHandler.cpp ****                 __asm__ volatile("mv %0, a1" : "=r" (handle));
 130:src/supervisorTrapHandler.cpp ****                 __asm__ volatile("mv %0, a2" : "=r" (start_routine));
 131:src/supervisorTrapHandler.cpp ****                 __asm__ volatile("mv %0, a3" : "=r" (arg));
GAS LISTING /tmp/ccLQ74S7.s 			page 8


 132:src/supervisorTrapHandler.cpp ****                 __asm__ volatile("mv %0, a7" : "=r" (stack));
 133:src/supervisorTrapHandler.cpp **** 
 134:src/supervisorTrapHandler.cpp ****                 *handle = PCB::createProcess(start_routine, stack, arg, false);
 135:src/supervisorTrapHandler.cpp ****             } break;
 136:src/supervisorTrapHandler.cpp **** 
 137:src/supervisorTrapHandler.cpp ****             case TSCHEDULER_CODE: { //thred_scheduler
 138:src/supervisorTrapHandler.cpp ****                 thread_t handle;
 139:src/supervisorTrapHandler.cpp ****                 __asm__ volatile("mv %0, a1" : "=r" (handle));
 140:src/supervisorTrapHandler.cpp **** 
 141:src/supervisorTrapHandler.cpp ****                 Scheduler::put(handle);
 142:src/supervisorTrapHandler.cpp ****             } break;
 143:src/supervisorTrapHandler.cpp **** 
 144:src/supervisorTrapHandler.cpp ****             case MUSER_CODE: { //to user mod
 145:src/supervisorTrapHandler.cpp ****                 Riscv::mc_sstatus(Riscv::SSTATUS_SPP); //skok se desava iz korisnickog rezima
 146:src/supervisorTrapHandler.cpp ****             } break;
 147:src/supervisorTrapHandler.cpp **** 
 148:src/supervisorTrapHandler.cpp ****             case MSUPERVISOR_CODE: { //to supervisor mod
 149:src/supervisorTrapHandler.cpp ****                 Riscv::ms_sstatus(Riscv::SSTATUS_SPP); //skok se desava iz sistemskog rezima
 150:src/supervisorTrapHandler.cpp ****             } break;
 151:src/supervisorTrapHandler.cpp **** 
 152:src/supervisorTrapHandler.cpp ****             default:
 153:src/supervisorTrapHandler.cpp ****                 break;
 154:src/supervisorTrapHandler.cpp ****         }
 155:src/supervisorTrapHandler.cpp **** 
 156:src/supervisorTrapHandler.cpp ****         Riscv::w_sepc(sepc+4); //prelazak na narednu instrukciju
 157:src/supervisorTrapHandler.cpp ****     }
 158:src/supervisorTrapHandler.cpp **** 
 159:src/supervisorTrapHandler.cpp ****     else if(scause == (1UL << 63 | 9)) { //spoljasnji hardverski prekid
  98              		.loc 1 159 10 is_stmt 1
  99 004c 9307F0FF 		li	a5,-1
 100 0050 9397F703 		slli	a5,a5,63
 101 0054 93879700 		addi	a5,a5,9
 102 0058 638AF422 		beq	s1,a5,.L33
 160:src/supervisorTrapHandler.cpp ****         console_handler();
 161:src/supervisorTrapHandler.cpp ****     }
 162:src/supervisorTrapHandler.cpp **** 
 163:src/supervisorTrapHandler.cpp ****     else if(scause == (1UL << 63 | 1)) { //prekid od tajmera
 103              		.loc 1 163 10
 104 005c 9307F0FF 		li	a5,-1
 105 0060 9397F703 		slli	a5,a5,63
 106 0064 93871700 		addi	a5,a5,1
 107 0068 6398F424 		bne	s1,a5,.L25
 164:src/supervisorTrapHandler.cpp ****         PCB::timeSliceCnt++;
 108              		.loc 1 164 9
 109              		.loc 1 164 26 is_stmt 0
 110 006c 17070000 		la	a4,_ZN3PCB12timeSliceCntE
 110      03370700 
 111 0074 83370700 		ld	a5,0(a4)
 112 0078 93871700 		addi	a5,a5,1
 113 007c 2330F700 		sd	a5,0(a4)
 165:src/supervisorTrapHandler.cpp **** 
 166:src/supervisorTrapHandler.cpp ****         if(PCB::timeSliceCnt >= PCB::running->timeSlice) {
 114              		.loc 1 166 9 is_stmt 1
 115              		.loc 1 166 47 is_stmt 0
 116 0080 17070000 		la	a4,_ZN3PCB7runningE
 116      03370700 
 117 0088 03370700 		ld	a4,0(a4)
GAS LISTING /tmp/ccLQ74S7.s 			page 9


 118 008c 03370700 		ld	a4,0(a4)
 119              		.loc 1 166 9
 120 0090 63F4E720 		bgeu	a5,a4,.L34
 121              	.L26:
 167:src/supervisorTrapHandler.cpp ****             PCB::yield();
 168:src/supervisorTrapHandler.cpp ****             PCB::timeSliceCnt = 0;
 169:src/supervisorTrapHandler.cpp ****             Riscv::w_sepc(sepc);
 170:src/supervisorTrapHandler.cpp ****             Riscv::w_sstatus(sstatus);
 171:src/supervisorTrapHandler.cpp ****         }
 172:src/supervisorTrapHandler.cpp **** 
 173:src/supervisorTrapHandler.cpp ****         Riscv::mc_sip(Riscv::SIP_SSIE);
 122              		.loc 1 173 9 is_stmt 1
 123              	.LVL3:
 124              	.LBB53:
 125              	.LBB54:
 140:src/../h/../h/riscv.h **** }
 126              		.loc 2 140 5
 140:src/../h/../h/riscv.h **** }
 127              		.loc 2 140 64 is_stmt 0
 128 0094 93072000 		li	a5,2
 129              	#APP
 130              	# 140 "src/../h/../h/riscv.h" 1
 141:src/../h/../h/riscv.h **** 
 131              		csrc sip, a5
 132              	# 0 "" 2
 133              		.loc 2 141 1
 134              	#NO_APP
 135 009c 6F000004 		j	.L1
 136              	.LVL4:
 137              	.L32:
 138              	.LBE54:
 139              	.LBE53:
 140              	.LBB55:
  16:src/supervisorTrapHandler.cpp ****         __asm__ volatile("mv %0, a0" : "=r" (code));
 141              		.loc 1 16 9 is_stmt 1
  17:src/supervisorTrapHandler.cpp **** 
 142              		.loc 1 17 9
  17:src/supervisorTrapHandler.cpp **** 
 143              		.loc 1 17 52 is_stmt 0
 144              	#APP
 145              	# 17 "src/supervisorTrapHandler.cpp" 1
 146              		mv a5, a0
 147              	# 0 "" 2
 148              	.LVL5:
  19:src/supervisorTrapHandler.cpp ****             case MALLOC_CODE: { //mem_alloc
 149              		.loc 1 19 9 is_stmt 1
 150              	#NO_APP
 151 00a4 13072005 		li	a4,82
 152 00a8 6366F702 		bgtu	a5,a4,.L3
 153 00ac 93972700 		slli	a5,a5,2
 154              	.LVL6:
 155 00b0 17070000 		lla	a4,.L5
 155      13070700 
 156 00b8 B387E700 		add	a5,a5,a4
 157 00bc 83A70700 		lw	a5,0(a5)
 158 00c0 B387E700 		add	a5,a5,a4
 159 00c4 67800700 		jr	a5
GAS LISTING /tmp/ccLQ74S7.s 			page 10


 160              		.section	.rodata
 161              		.align	2
 162              		.align	2
 163              	.L5:
 164 0000 00000000 		.word	.L3-.L5
 165 0004 00000000 		.word	.L20-.L5
 166 0008 00000000 		.word	.L19-.L5
 167 000c 00000000 		.word	.L3-.L5
 168 0010 00000000 		.word	.L3-.L5
 169 0014 00000000 		.word	.L3-.L5
 170 0018 00000000 		.word	.L3-.L5
 171 001c 00000000 		.word	.L3-.L5
 172 0020 00000000 		.word	.L3-.L5
 173 0024 00000000 		.word	.L3-.L5
 174 0028 00000000 		.word	.L3-.L5
 175 002c 00000000 		.word	.L3-.L5
 176 0030 00000000 		.word	.L3-.L5
 177 0034 00000000 		.word	.L3-.L5
 178 0038 00000000 		.word	.L3-.L5
 179 003c 00000000 		.word	.L3-.L5
 180 0040 00000000 		.word	.L3-.L5
 181 0044 00000000 		.word	.L18-.L5
 182 0048 00000000 		.word	.L17-.L5
 183 004c 00000000 		.word	.L16-.L5
 184 0050 00000000 		.word	.L15-.L5
 185 0054 00000000 		.word	.L14-.L5
 186 0058 00000000 		.word	.L3-.L5
 187 005c 00000000 		.word	.L3-.L5
 188 0060 00000000 		.word	.L3-.L5
 189 0064 00000000 		.word	.L3-.L5
 190 0068 00000000 		.word	.L3-.L5
 191 006c 00000000 		.word	.L3-.L5
 192 0070 00000000 		.word	.L3-.L5
 193 0074 00000000 		.word	.L3-.L5
 194 0078 00000000 		.word	.L3-.L5
 195 007c 00000000 		.word	.L3-.L5
 196 0080 00000000 		.word	.L3-.L5
 197 0084 00000000 		.word	.L13-.L5
 198 0088 00000000 		.word	.L12-.L5
 199 008c 00000000 		.word	.L11-.L5
 200 0090 00000000 		.word	.L10-.L5
 201 0094 00000000 		.word	.L9-.L5
 202 0098 00000000 		.word	.L3-.L5
 203 009c 00000000 		.word	.L3-.L5
 204 00a0 00000000 		.word	.L3-.L5
 205 00a4 00000000 		.word	.L3-.L5
 206 00a8 00000000 		.word	.L3-.L5
 207 00ac 00000000 		.word	.L3-.L5
 208 00b0 00000000 		.word	.L3-.L5
 209 00b4 00000000 		.word	.L3-.L5
 210 00b8 00000000 		.word	.L3-.L5
 211 00bc 00000000 		.word	.L3-.L5
 212 00c0 00000000 		.word	.L3-.L5
 213 00c4 00000000 		.word	.L3-.L5
 214 00c8 00000000 		.word	.L3-.L5
 215 00cc 00000000 		.word	.L3-.L5
 216 00d0 00000000 		.word	.L3-.L5
GAS LISTING /tmp/ccLQ74S7.s 			page 11


 217 00d4 00000000 		.word	.L3-.L5
 218 00d8 00000000 		.word	.L3-.L5
 219 00dc 00000000 		.word	.L3-.L5
 220 00e0 00000000 		.word	.L3-.L5
 221 00e4 00000000 		.word	.L3-.L5
 222 00e8 00000000 		.word	.L3-.L5
 223 00ec 00000000 		.word	.L3-.L5
 224 00f0 00000000 		.word	.L3-.L5
 225 00f4 00000000 		.word	.L3-.L5
 226 00f8 00000000 		.word	.L3-.L5
 227 00fc 00000000 		.word	.L3-.L5
 228 0100 00000000 		.word	.L3-.L5
 229 0104 00000000 		.word	.L8-.L5
 230 0108 00000000 		.word	.L7-.L5
 231 010c 00000000 		.word	.L3-.L5
 232 0110 00000000 		.word	.L3-.L5
 233 0114 00000000 		.word	.L3-.L5
 234 0118 00000000 		.word	.L3-.L5
 235 011c 00000000 		.word	.L3-.L5
 236 0120 00000000 		.word	.L3-.L5
 237 0124 00000000 		.word	.L3-.L5
 238 0128 00000000 		.word	.L3-.L5
 239 012c 00000000 		.word	.L3-.L5
 240 0130 00000000 		.word	.L3-.L5
 241 0134 00000000 		.word	.L3-.L5
 242 0138 00000000 		.word	.L3-.L5
 243 013c 00000000 		.word	.L3-.L5
 244 0140 00000000 		.word	.L3-.L5
 245 0144 00000000 		.word	.L6-.L5
 246 0148 00000000 		.word	.L4-.L5
 247              		.text
 248              	.L20:
 249              	.LBB56:
  20:src/supervisorTrapHandler.cpp ****                 size_t size;
 250              		.loc 1 20 13
  20:src/supervisorTrapHandler.cpp ****                 size_t size;
 251              		.loc 1 20 31
 252              	.LBB57:
  21:src/supervisorTrapHandler.cpp ****                 __asm__ volatile("mv %0, a1" : "=r" (size));
 253              		.loc 1 21 17
  22:src/supervisorTrapHandler.cpp **** 
 254              		.loc 1 22 17
  22:src/supervisorTrapHandler.cpp **** 
 255              		.loc 1 22 60 is_stmt 0
 256              	#APP
 257              	# 22 "src/supervisorTrapHandler.cpp" 1
 258              		mv a0, a1
 259              	# 0 "" 2
 260              	.LVL7:
  24:src/supervisorTrapHandler.cpp ****             }break;
 261              		.loc 1 24 17 is_stmt 1
  24:src/supervisorTrapHandler.cpp ****             }break;
 262              		.loc 1 24 43 is_stmt 0
 263              	#NO_APP
 264 00cc 97000000 		call	_ZN15MemoryAllocator9mem_allocEm@plt
 264      E7800000 
 265              	.LVL8:
GAS LISTING /tmp/ccLQ74S7.s 			page 12


 266              	.LBE57:
  25:src/supervisorTrapHandler.cpp **** 
 267              		.loc 1 25 14 is_stmt 1
 268              	.L3:
 269              	.LBE56:
 156:src/supervisorTrapHandler.cpp ****     }
 270              		.loc 1 156 9
 156:src/supervisorTrapHandler.cpp ****     }
 271              		.loc 1 156 22 is_stmt 0
 272 00d4 13094900 		addi	s2,s2,4
 273              	.LVL9:
 274              	.LBB91:
 275              	.LBB92:
 106:src/../h/../h/riscv.h **** }
 276              		.loc 2 106 5 is_stmt 1
 106:src/../h/../h/riscv.h **** }
 277              		.loc 2 106 65 is_stmt 0
 278              	#APP
 279              	# 106 "src/../h/../h/riscv.h" 1
 280              		csrw sepc, s2
 281              	# 0 "" 2
 282              	.LVL10:
 283              	#NO_APP
 284              	.L1:
 285              	.LBE92:
 286              	.LBE91:
 287              	.LBE55:
 288              	.LBE52:
 174:src/supervisorTrapHandler.cpp ****     }
 175:src/supervisorTrapHandler.cpp **** 
 176:src/supervisorTrapHandler.cpp ****     else {
 177:src/supervisorTrapHandler.cpp ****         __putc('\n');
 178:src/supervisorTrapHandler.cpp ****         printString("SEPC: ");
 179:src/supervisorTrapHandler.cpp ****         printInt(sepc);
 180:src/supervisorTrapHandler.cpp ****         __putc('\n');
 181:src/supervisorTrapHandler.cpp ****         printString("SCAUSE: ");
 182:src/supervisorTrapHandler.cpp ****         printInt(scause);
 183:src/supervisorTrapHandler.cpp ****         __putc('\n');
 184:src/supervisorTrapHandler.cpp ****     }
 185:src/supervisorTrapHandler.cpp **** }
 289              		.loc 1 185 1
 290 00dc 83308104 		ld	ra,72(sp)
 291              		.cfi_remember_state
 292              		.cfi_restore 1
 293 00e0 03340104 		ld	s0,64(sp)
 294              		.cfi_restore 8
 295              		.cfi_def_cfa 2, 80
 296 00e4 83348103 		ld	s1,56(sp)
 297              		.cfi_restore 9
 298 00e8 03390103 		ld	s2,48(sp)
 299              		.cfi_restore 18
 300 00ec 83398102 		ld	s3,40(sp)
 301              		.cfi_restore 19
 302              	.LVL11:
 303 00f0 13010105 		addi	sp,sp,80
 304              		.cfi_def_cfa_offset 0
 305 00f4 67800000 		jr	ra
GAS LISTING /tmp/ccLQ74S7.s 			page 13


 306              	.LVL12:
 307              	.L19:
 308              		.cfi_restore_state
 309              	.LBB99:
 310              	.LBB94:
 311              	.LBB93:
  27:src/supervisorTrapHandler.cpp ****                 void *ptr;
 312              		.loc 1 27 13 is_stmt 1
  27:src/supervisorTrapHandler.cpp ****                 void *ptr;
 313              		.loc 1 27 30
 314              	.LBB58:
  28:src/supervisorTrapHandler.cpp ****                 __asm__ volatile("mv %0, a1" : "=r" (ptr));
 315              		.loc 1 28 17
  29:src/supervisorTrapHandler.cpp **** 
 316              		.loc 1 29 17
  29:src/supervisorTrapHandler.cpp **** 
 317              		.loc 1 29 59 is_stmt 0
 318              	#APP
 319              	# 29 "src/supervisorTrapHandler.cpp" 1
 320              		mv a0, a1
 321              	# 0 "" 2
 322              	.LVL13:
  31:src/supervisorTrapHandler.cpp ****             }break;
 323              		.loc 1 31 17 is_stmt 1
  31:src/supervisorTrapHandler.cpp ****             }break;
 324              		.loc 1 31 42 is_stmt 0
 325              	#NO_APP
 326 00fc 97000000 		call	_ZN15MemoryAllocator8mem_freeEPv@plt
 326      E7800000 
 327              	.LVL14:
 328              	.LBE58:
  32:src/supervisorTrapHandler.cpp **** 
 329              		.loc 1 32 14 is_stmt 1
 330 0104 6FF01FFD 		j	.L3
 331              	.L18:
  34:src/supervisorTrapHandler.cpp ****                 thread_t* handle;
 332              		.loc 1 34 13
  34:src/supervisorTrapHandler.cpp ****                 thread_t* handle;
 333              		.loc 1 34 32
 334              	.LBB59:
  35:src/supervisorTrapHandler.cpp ****                 void (*start_routine)(void *);
 335              		.loc 1 35 17
  36:src/supervisorTrapHandler.cpp ****                 void *arg;
 336              		.loc 1 36 17
  37:src/supervisorTrapHandler.cpp ****                 uint64 *stack;
 337              		.loc 1 37 17
  38:src/supervisorTrapHandler.cpp **** 
 338              		.loc 1 38 17
  40:src/supervisorTrapHandler.cpp ****                 __asm__ volatile("mv %0, a2" : "=r" (start_routine));
 339              		.loc 1 40 17
  40:src/supervisorTrapHandler.cpp ****                 __asm__ volatile("mv %0, a2" : "=r" (start_routine));
 340              		.loc 1 40 62 is_stmt 0
 341              	#APP
 342              	# 40 "src/supervisorTrapHandler.cpp" 1
 343              		mv s1, a1
 344              	# 0 "" 2
 345              	.LVL15:
GAS LISTING /tmp/ccLQ74S7.s 			page 14


  41:src/supervisorTrapHandler.cpp ****                 __asm__ volatile("mv %0, a3" : "=r" (arg));
 346              		.loc 1 41 17 is_stmt 1
  41:src/supervisorTrapHandler.cpp ****                 __asm__ volatile("mv %0, a3" : "=r" (arg));
 347              		.loc 1 41 69 is_stmt 0
 348              	# 41 "src/supervisorTrapHandler.cpp" 1
 349              		mv a0, a2
 350              	# 0 "" 2
 351              	.LVL16:
  42:src/supervisorTrapHandler.cpp ****                 __asm__ volatile("mv %0, a7" : "=r" (stack));
 352              		.loc 1 42 17 is_stmt 1
  42:src/supervisorTrapHandler.cpp ****                 __asm__ volatile("mv %0, a7" : "=r" (stack));
 353              		.loc 1 42 59 is_stmt 0
 354              	# 42 "src/supervisorTrapHandler.cpp" 1
 355              		mv a2, a3
 356              	# 0 "" 2
 357              	.LVL17:
  43:src/supervisorTrapHandler.cpp **** 
 358              		.loc 1 43 17 is_stmt 1
  43:src/supervisorTrapHandler.cpp **** 
 359              		.loc 1 43 61 is_stmt 0
 360              	# 43 "src/supervisorTrapHandler.cpp" 1
 361              		mv a1, a7
 362              	# 0 "" 2
 363              	.LVL18:
  45:src/supervisorTrapHandler.cpp ****             }break;
 364              		.loc 1 45 17 is_stmt 1
  45:src/supervisorTrapHandler.cpp ****             }break;
 365              		.loc 1 45 45 is_stmt 0
 366              	#NO_APP
 367 0118 93061000 		li	a3,1
 368 011c 97000000 		call	_ZN3PCB13createProcessEPFvPvEPmS0_b@plt
 368      E7800000 
 369              	.LVL19:
  45:src/supervisorTrapHandler.cpp ****             }break;
 370              		.loc 1 45 25
 371 0124 23B0A400 		sd	a0,0(s1)
 372              	.LBE59:
  46:src/supervisorTrapHandler.cpp **** 
 373              		.loc 1 46 14 is_stmt 1
 374 0128 6FF0DFFA 		j	.L3
 375              	.LVL20:
 376              	.L16:
  48:src/supervisorTrapHandler.cpp ****                 PCB::yield();
 377              		.loc 1 48 13
  48:src/supervisorTrapHandler.cpp ****                 PCB::yield();
 378              		.loc 1 48 34
  49:src/supervisorTrapHandler.cpp ****             }break;
 379              		.loc 1 49 17
  49:src/supervisorTrapHandler.cpp ****             }break;
 380              		.loc 1 49 27 is_stmt 0
 381 012c 97000000 		call	_ZN3PCB5yieldEv@plt
 381      E7800000 
 382              	.LVL21:
  50:src/supervisorTrapHandler.cpp **** 
 383              		.loc 1 50 14 is_stmt 1
 384 0134 6FF01FFA 		j	.L3
 385              	.L17:
GAS LISTING /tmp/ccLQ74S7.s 			page 15


  52:src/supervisorTrapHandler.cpp ****                 PCB::running->setFinished(true);
 386              		.loc 1 52 13
  52:src/supervisorTrapHandler.cpp ****                 PCB::running->setFinished(true);
 387              		.loc 1 52 30
  53:src/supervisorTrapHandler.cpp ****                 PCB::yield();
 388              		.loc 1 53 17
  53:src/supervisorTrapHandler.cpp ****                 PCB::yield();
 389              		.loc 1 53 42 is_stmt 0
 390 0138 97070000 		la	a5,_ZN3PCB7runningE
 390      83B70700 
 391 0140 83B70700 		ld	a5,0(a5)
 392              	.LVL22:
 393              	.LBB60:
 394              	.LBB61:
 395              		.file 3 "src/../h/pcb.h"
   1:src/../h/pcb.h **** #ifndef PROJEKAT_PCB_H
   2:src/../h/pcb.h **** #define PROJEKAT_PCB_H
   3:src/../h/pcb.h **** 
   4:src/../h/pcb.h **** #include "syscall_c.h"
   5:src/../h/pcb.h **** #include "scheduler.h"
   6:src/../h/pcb.h **** #include "../h/memoryAllocator.h"
   7:src/../h/pcb.h **** #include "../h/riscv.h"
   8:src/../h/pcb.h **** 
   9:src/../h/pcb.h **** extern void userMain();
  10:src/../h/pcb.h **** 
  11:src/../h/pcb.h **** class PCB
  12:src/../h/pcb.h **** {
  13:src/../h/pcb.h **** public:
  14:src/../h/pcb.h ****     ~PCB() { delete[] stack; }
  15:src/../h/pcb.h **** 
  16:src/../h/pcb.h ****     bool isFinished() const { return finished; }
  17:src/../h/pcb.h **** 
  18:src/../h/pcb.h ****     void setFinished(bool value) { finished = value; }
 396              		.loc 3 18 36 is_stmt 1
 397              		.loc 3 18 45 is_stmt 0
 398 0144 13071000 		li	a4,1
 399 0148 2388E702 		sb	a4,48(a5)
 400              	.LVL23:
 401              	.LBE61:
 402              	.LBE60:
  54:src/supervisorTrapHandler.cpp ****             } break;
 403              		.loc 1 54 17 is_stmt 1
  54:src/supervisorTrapHandler.cpp ****             } break;
 404              		.loc 1 54 27 is_stmt 0
 405 014c 97000000 		call	_ZN3PCB5yieldEv@plt
 405      E7800000 
 406              	.LVL24:
  55:src/supervisorTrapHandler.cpp **** 
 407              		.loc 1 55 15 is_stmt 1
 408 0154 6FF01FF8 		j	.L3
 409              	.L13:
  57:src/supervisorTrapHandler.cpp ****                 sem_t* handle;
 410              		.loc 1 57 13
  57:src/supervisorTrapHandler.cpp ****                 sem_t* handle;
 411              		.loc 1 57 30
 412              	.LBB62:
  58:src/supervisorTrapHandler.cpp ****                 uint32 init;
GAS LISTING /tmp/ccLQ74S7.s 			page 16


 413              		.loc 1 58 17
  59:src/supervisorTrapHandler.cpp **** 
 414              		.loc 1 59 17
  61:src/supervisorTrapHandler.cpp ****                 __asm__ volatile("mv %0, a2" : "=r" (init));
 415              		.loc 1 61 17
  61:src/supervisorTrapHandler.cpp ****                 __asm__ volatile("mv %0, a2" : "=r" (init));
 416              		.loc 1 61 62 is_stmt 0
 417              	#APP
 418              	# 61 "src/supervisorTrapHandler.cpp" 1
 419              		mv s1, a1
 420              	# 0 "" 2
 421              	.LVL25:
  62:src/supervisorTrapHandler.cpp **** 
 422              		.loc 1 62 17 is_stmt 1
  62:src/supervisorTrapHandler.cpp **** 
 423              		.loc 1 62 60 is_stmt 0
 424              	# 62 "src/supervisorTrapHandler.cpp" 1
 425              		mv a0, a2
 426              	# 0 "" 2
 427              	.LVL26:
  64:src/supervisorTrapHandler.cpp ****             } break;
 428              		.loc 1 64 17 is_stmt 1
  64:src/supervisorTrapHandler.cpp ****             } break;
 429              		.loc 1 64 47 is_stmt 0
 430              	#NO_APP
 431 0160 1B050500 		sext.w	a0,a0
 432 0164 97000000 		call	_ZN3Sem15createSemaphoreEj@plt
 432      E7800000 
 433              	.LVL27:
  64:src/supervisorTrapHandler.cpp ****             } break;
 434              		.loc 1 64 25
 435 016c 23B0A400 		sd	a0,0(s1)
 436              	.LBE62:
  65:src/supervisorTrapHandler.cpp **** 
 437              		.loc 1 65 15 is_stmt 1
 438 0170 6FF05FF6 		j	.L3
 439              	.LVL28:
 440              	.L12:
  67:src/supervisorTrapHandler.cpp ****                 sem_t handle;
 441              		.loc 1 67 13
  67:src/supervisorTrapHandler.cpp ****                 sem_t handle;
 442              		.loc 1 67 31
 443              	.LBB63:
  68:src/supervisorTrapHandler.cpp **** 
 444              		.loc 1 68 17
  70:src/supervisorTrapHandler.cpp **** 
 445              		.loc 1 70 17
  70:src/supervisorTrapHandler.cpp **** 
 446              		.loc 1 70 62 is_stmt 0
 447              	#APP
 448              	# 70 "src/supervisorTrapHandler.cpp" 1
 449              		mv a0, a1
 450              	# 0 "" 2
 451              	.LVL29:
  72:src/supervisorTrapHandler.cpp ****             } break;
 452              		.loc 1 72 17 is_stmt 1
  72:src/supervisorTrapHandler.cpp ****             } break;
GAS LISTING /tmp/ccLQ74S7.s 			page 17


 453              		.loc 1 72 41 is_stmt 0
 454              	#NO_APP
 455 0178 97000000 		call	_ZN3Sem19deactivateSemaphoreEPS_@plt
 455      E7800000 
 456              	.LVL30:
 457              	.LBE63:
  73:src/supervisorTrapHandler.cpp **** 
 458              		.loc 1 73 15 is_stmt 1
 459 0180 6FF05FF5 		j	.L3
 460              	.L9:
  75:src/supervisorTrapHandler.cpp ****                 sem_t handle;
 461              		.loc 1 75 13
  75:src/supervisorTrapHandler.cpp ****                 sem_t handle;
 462              		.loc 1 75 32
 463              	.LBB64:
  76:src/supervisorTrapHandler.cpp **** 
 464              		.loc 1 76 17
  78:src/supervisorTrapHandler.cpp **** 
 465              		.loc 1 78 17
  78:src/supervisorTrapHandler.cpp **** 
 466              		.loc 1 78 62 is_stmt 0
 467              	#APP
 468              	# 78 "src/supervisorTrapHandler.cpp" 1
 469              		mv a0, a1
 470              	# 0 "" 2
 471              	.LVL31:
  80:src/supervisorTrapHandler.cpp ****             } break;
 472              		.loc 1 80 17 is_stmt 1
  80:src/supervisorTrapHandler.cpp ****             } break;
 473              		.loc 1 80 37 is_stmt 0
 474              	#NO_APP
 475 0188 97000000 		call	_ZN3Sem15deleteSemaphoreEPS_@plt
 475      E7800000 
 476              	.LVL32:
 477              	.LBE64:
  81:src/supervisorTrapHandler.cpp **** 
 478              		.loc 1 81 15 is_stmt 1
 479 0190 6FF05FF4 		j	.L3
 480              	.L11:
  83:src/supervisorTrapHandler.cpp ****                 sem_t handle; int ret = -1;
 481              		.loc 1 83 13
  83:src/supervisorTrapHandler.cpp ****                 sem_t handle; int ret = -1;
 482              		.loc 1 83 30
 483              	.LBB65:
  84:src/supervisorTrapHandler.cpp **** 
 484              		.loc 1 84 17
  84:src/supervisorTrapHandler.cpp **** 
 485              		.loc 1 84 31
 486              	.LVL33:
  86:src/supervisorTrapHandler.cpp **** 
 487              		.loc 1 86 17
  86:src/supervisorTrapHandler.cpp **** 
 488              		.loc 1 86 62 is_stmt 0
 489              	#APP
 490              	# 86 "src/supervisorTrapHandler.cpp" 1
 491              		mv a0, a1
 492              	# 0 "" 2
GAS LISTING /tmp/ccLQ74S7.s 			page 18


 493              	.LVL34:
  88:src/supervisorTrapHandler.cpp ****                     handle->wait();
 494              		.loc 1 88 17 is_stmt 1
 495              	#NO_APP
 496              	.LBB66:
 497              	.LBB67:
 498              		.file 4 "src/../h/sem.h"
   1:src/../h/sem.h **** #ifndef PROJEKAT_SEM_H
   2:src/../h/sem.h **** #define PROJEKAT_SEM_H
   3:src/../h/sem.h **** 
   4:src/../h/sem.h **** #include "pcb.h"
   5:src/../h/sem.h **** #include "syscall_c.h"
   6:src/../h/sem.h **** #include "list.h"
   7:src/../h/sem.h **** 
   8:src/../h/sem.h **** class Sem {
   9:src/../h/sem.h **** private:
  10:src/../h/sem.h ****     int val;
  11:src/../h/sem.h ****     bool active;
  12:src/../h/sem.h ****     List<PCB> blocked;
  13:src/../h/sem.h **** 
  14:src/../h/sem.h ****     Sem(uint32 init = 1) : val(init), active(true) {}
  15:src/../h/sem.h **** 
  16:src/../h/sem.h **** protected:
  17:src/../h/sem.h ****     void block();
  18:src/../h/sem.h **** 
  19:src/../h/sem.h ****     void unblock();
  20:src/../h/sem.h **** 
  21:src/../h/sem.h ****     void setActive(bool val) { active = val; }
  22:src/../h/sem.h **** 
  23:src/../h/sem.h **** public:
  24:src/../h/sem.h ****     void wait() { if(--val < 0) block(); }
  25:src/../h/sem.h **** 
  26:src/../h/sem.h ****     void signal() { if(++val <= 0) unblock(); }
  27:src/../h/sem.h **** 
  28:src/../h/sem.h ****     static Sem* createSemaphore(uint32 init);
  29:src/../h/sem.h **** 
  30:src/../h/sem.h ****     static int deactivateSemaphore(sem_t handle);
  31:src/../h/sem.h **** 
  32:src/../h/sem.h ****     static void deleteSemaphore(sem_t handle);
  33:src/../h/sem.h **** 
  34:src/../h/sem.h ****     bool isActive() { return active; }
 499              		.loc 4 34 23
 500              		.loc 4 34 30 is_stmt 0
 501 0198 83474500 		lbu	a5,4(a0)
 502              	.LVL35:
 503              	.LBE67:
 504              	.LBE66:
  88:src/supervisorTrapHandler.cpp ****                     handle->wait();
 505              		.loc 1 88 17
 506 019c 63880702 		beqz	a5,.L27
  89:src/supervisorTrapHandler.cpp ****                     ret = 0;
 507              		.loc 1 89 21 is_stmt 1
 508              	.LVL36:
 509              	.LBB68:
 510              	.LBB69:
  24:src/../h/sem.h **** 
 511              		.loc 4 24 19
GAS LISTING /tmp/ccLQ74S7.s 			page 19


  24:src/../h/sem.h **** 
 512              		.loc 4 24 24 is_stmt 0
 513 01a0 83270500 		lw	a5,0(a0)
  24:src/../h/sem.h **** 
 514              		.loc 4 24 22
 515 01a4 9B87F7FF 		addiw	a5,a5,-1
  24:src/../h/sem.h **** 
 516              		.loc 4 24 28
 517 01a8 2320F500 		sw	a5,0(a0)
  24:src/../h/sem.h **** 
 518              		.loc 4 24 19
 519 01ac 13970702 		slli	a4,a5,32
 520 01b0 63460700 		bltz	a4,.L35
 521              	.LBE69:
 522              	.LBE68:
  90:src/supervisorTrapHandler.cpp ****                 }
 523              		.loc 1 90 25
 524 01b4 93070000 		li	a5,0
 525 01b8 6F008001 		j	.L21
 526              	.L35:
 527              	.LBB72:
 528              	.LBB70:
  24:src/../h/sem.h **** 
 529              		.loc 4 24 33 is_stmt 1
  24:src/../h/sem.h **** 
 530              		.loc 4 24 38 is_stmt 0
 531 01bc 97000000 		call	_ZN3Sem5blockEv@plt
 531      E7800000 
 532              	.LVL37:
 533              	.LBE70:
 534              	.LBE72:
  90:src/supervisorTrapHandler.cpp ****                 }
 535              		.loc 1 90 25
 536 01c4 93070000 		li	a5,0
 537              	.LBB73:
 538              	.LBB71:
 539 01c8 6F008000 		j	.L21
 540              	.LVL38:
 541              	.L27:
 542              	.LBE71:
 543              	.LBE73:
  84:src/supervisorTrapHandler.cpp **** 
 544              		.loc 1 84 35
 545 01cc 9307F0FF 		li	a5,-1
 546              	.LVL39:
 547              	.L21:
  93:src/supervisorTrapHandler.cpp ****             } break;
 548              		.loc 1 93 17 is_stmt 1
  93:src/supervisorTrapHandler.cpp ****             } break;
 549              		.loc 1 93 60 is_stmt 0
 550              	#APP
 551              	# 93 "src/supervisorTrapHandler.cpp" 1
 552              		mv a0, a5
 553              	# 0 "" 2
 554              	#NO_APP
 555              	.LBE65:
  94:src/supervisorTrapHandler.cpp **** 
GAS LISTING /tmp/ccLQ74S7.s 			page 20


 556              		.loc 1 94 15 is_stmt 1
 557 01d4 6FF01FF0 		j	.L3
 558              	.LVL40:
 559              	.L10:
  96:src/supervisorTrapHandler.cpp ****                 sem_t handle; int ret = -1;
 560              		.loc 1 96 13
  96:src/supervisorTrapHandler.cpp ****                 sem_t handle; int ret = -1;
 561              		.loc 1 96 32
 562              	.LBB74:
  97:src/supervisorTrapHandler.cpp **** 
 563              		.loc 1 97 17
  97:src/supervisorTrapHandler.cpp **** 
 564              		.loc 1 97 31
  99:src/supervisorTrapHandler.cpp **** 
 565              		.loc 1 99 17
  99:src/supervisorTrapHandler.cpp **** 
 566              		.loc 1 99 62 is_stmt 0
 567              	#APP
 568              	# 99 "src/supervisorTrapHandler.cpp" 1
 569              		mv a0, a1
 570              	# 0 "" 2
 571              	.LVL41:
 101:src/supervisorTrapHandler.cpp ****                     handle->signal();
 572              		.loc 1 101 17 is_stmt 1
 573              	#NO_APP
 574              	.LBB75:
 575              	.LBB76:
 576              		.loc 4 34 23
 577              		.loc 4 34 30 is_stmt 0
 578 01dc 83474500 		lbu	a5,4(a0)
 579              	.LVL42:
 580              	.LBE76:
 581              	.LBE75:
 101:src/supervisorTrapHandler.cpp ****                     handle->signal();
 582              		.loc 1 101 17
 583 01e0 63880702 		beqz	a5,.L29
 102:src/supervisorTrapHandler.cpp ****                     ret = 0;
 584              		.loc 1 102 21 is_stmt 1
 585              	.LVL43:
 586              	.LBB77:
 587              	.LBB78:
  26:src/../h/sem.h **** 
 588              		.loc 4 26 21
  26:src/../h/sem.h **** 
 589              		.loc 4 26 26 is_stmt 0
 590 01e4 83270500 		lw	a5,0(a0)
  26:src/../h/sem.h **** 
 591              		.loc 4 26 24
 592 01e8 9B871700 		addiw	a5,a5,1
 593 01ec 1B870700 		sext.w	a4,a5
  26:src/../h/sem.h **** 
 594              		.loc 4 26 30
 595 01f0 2320F500 		sw	a5,0(a0)
  26:src/../h/sem.h **** 
 596              		.loc 4 26 21
 597 01f4 6356E000 		blez	a4,.L36
 598              	.LBE78:
GAS LISTING /tmp/ccLQ74S7.s 			page 21


 599              	.LBE77:
 103:src/supervisorTrapHandler.cpp ****                 }
 600              		.loc 1 103 25
 601 01f8 93070000 		li	a5,0
 602 01fc 6F008001 		j	.L22
 603              	.L36:
 604              	.LBB81:
 605              	.LBB79:
  26:src/../h/sem.h **** 
 606              		.loc 4 26 36 is_stmt 1
  26:src/../h/sem.h **** 
 607              		.loc 4 26 43 is_stmt 0
 608 0200 97000000 		call	_ZN3Sem7unblockEv@plt
 608      E7800000 
 609              	.LVL44:
 610              	.LBE79:
 611              	.LBE81:
 103:src/supervisorTrapHandler.cpp ****                 }
 612              		.loc 1 103 25
 613 0208 93070000 		li	a5,0
 614              	.LBB82:
 615              	.LBB80:
 616 020c 6F008000 		j	.L22
 617              	.LVL45:
 618              	.L29:
 619              	.LBE80:
 620              	.LBE82:
  97:src/supervisorTrapHandler.cpp **** 
 621              		.loc 1 97 35
 622 0210 9307F0FF 		li	a5,-1
 623              	.LVL46:
 624              	.L22:
 106:src/supervisorTrapHandler.cpp ****             } break;
 625              		.loc 1 106 17 is_stmt 1
 106:src/supervisorTrapHandler.cpp ****             } break;
 626              		.loc 1 106 60 is_stmt 0
 627              	#APP
 628              	# 106 "src/supervisorTrapHandler.cpp" 1
 629              		mv a0, a5
 630              	# 0 "" 2
 631              	#NO_APP
 632              	.LBE74:
 107:src/supervisorTrapHandler.cpp **** 
 633              		.loc 1 107 15 is_stmt 1
 634 0218 6FF0DFEB 		j	.L3
 635              	.LVL47:
 636              	.L8:
 109:src/supervisorTrapHandler.cpp ****                 char c = __getc();
 637              		.loc 1 109 13
 109:src/supervisorTrapHandler.cpp ****                 char c = __getc();
 638              		.loc 1 109 30
 639              	.LBB83:
 110:src/supervisorTrapHandler.cpp **** 
 640              		.loc 1 110 17
 110:src/supervisorTrapHandler.cpp **** 
 641              		.loc 1 110 32 is_stmt 0
 642 021c 97000000 		call	__getc@plt
GAS LISTING /tmp/ccLQ74S7.s 			page 22


 642      E7800000 
 643              	.LVL48:
 112:src/supervisorTrapHandler.cpp ****             } break;
 644              		.loc 1 112 17 is_stmt 1
 112:src/supervisorTrapHandler.cpp ****             } break;
 645              		.loc 1 112 58 is_stmt 0
 646              	#APP
 647              	# 112 "src/supervisorTrapHandler.cpp" 1
 648              		mv a0, a0
 649              	# 0 "" 2
 650              	#NO_APP
 651              	.LBE83:
 113:src/supervisorTrapHandler.cpp **** 
 652              		.loc 1 113 15 is_stmt 1
 653 0228 6FF0DFEA 		j	.L3
 654              	.LVL49:
 655              	.L7:
 115:src/supervisorTrapHandler.cpp ****                 char c;
 656              		.loc 1 115 13
 115:src/supervisorTrapHandler.cpp ****                 char c;
 657              		.loc 1 115 30
 658              	.LBB84:
 116:src/supervisorTrapHandler.cpp **** 
 659              		.loc 1 116 17
 118:src/supervisorTrapHandler.cpp **** 
 660              		.loc 1 118 17
 118:src/supervisorTrapHandler.cpp **** 
 661              		.loc 1 118 57 is_stmt 0
 662              	#APP
 663              	# 118 "src/supervisorTrapHandler.cpp" 1
 664              		mv a0, a1
 665              	# 0 "" 2
 666              	.LVL50:
 120:src/supervisorTrapHandler.cpp ****             } break;
 667              		.loc 1 120 17 is_stmt 1
 120:src/supervisorTrapHandler.cpp ****             } break;
 668              		.loc 1 120 23 is_stmt 0
 669              	#NO_APP
 670 0230 1375F50F 		andi	a0,a0,0xff
 671 0234 97000000 		call	__putc@plt
 671      E7800000 
 672              	.LVL51:
 673              	.LBE84:
 121:src/supervisorTrapHandler.cpp **** 
 674              		.loc 1 121 15 is_stmt 1
 675 023c 6FF09FE9 		j	.L3
 676              	.L15:
 123:src/supervisorTrapHandler.cpp ****                 thread_t* handle;
 677              		.loc 1 123 13
 123:src/supervisorTrapHandler.cpp ****                 thread_t* handle;
 678              		.loc 1 123 31
 679              	.LBB85:
 124:src/supervisorTrapHandler.cpp ****                 void (*start_routine)(void *);
 680              		.loc 1 124 17
 125:src/supervisorTrapHandler.cpp ****                 void *arg;
 681              		.loc 1 125 17
 126:src/supervisorTrapHandler.cpp ****                 uint64 *stack;
GAS LISTING /tmp/ccLQ74S7.s 			page 23


 682              		.loc 1 126 17
 127:src/supervisorTrapHandler.cpp **** 
 683              		.loc 1 127 17
 129:src/supervisorTrapHandler.cpp ****                 __asm__ volatile("mv %0, a2" : "=r" (start_routine));
 684              		.loc 1 129 17
 129:src/supervisorTrapHandler.cpp ****                 __asm__ volatile("mv %0, a2" : "=r" (start_routine));
 685              		.loc 1 129 62 is_stmt 0
 686              	#APP
 687              	# 129 "src/supervisorTrapHandler.cpp" 1
 688              		mv s1, a1
 689              	# 0 "" 2
 690              	.LVL52:
 130:src/supervisorTrapHandler.cpp ****                 __asm__ volatile("mv %0, a3" : "=r" (arg));
 691              		.loc 1 130 17 is_stmt 1
 130:src/supervisorTrapHandler.cpp ****                 __asm__ volatile("mv %0, a3" : "=r" (arg));
 692              		.loc 1 130 69 is_stmt 0
 693              	# 130 "src/supervisorTrapHandler.cpp" 1
 694              		mv a0, a2
 695              	# 0 "" 2
 696              	.LVL53:
 131:src/supervisorTrapHandler.cpp ****                 __asm__ volatile("mv %0, a7" : "=r" (stack));
 697              		.loc 1 131 17 is_stmt 1
 131:src/supervisorTrapHandler.cpp ****                 __asm__ volatile("mv %0, a7" : "=r" (stack));
 698              		.loc 1 131 59 is_stmt 0
 699              	# 131 "src/supervisorTrapHandler.cpp" 1
 700              		mv a2, a3
 701              	# 0 "" 2
 702              	.LVL54:
 132:src/supervisorTrapHandler.cpp **** 
 703              		.loc 1 132 17 is_stmt 1
 132:src/supervisorTrapHandler.cpp **** 
 704              		.loc 1 132 61 is_stmt 0
 705              	# 132 "src/supervisorTrapHandler.cpp" 1
 706              		mv a1, a7
 707              	# 0 "" 2
 708              	.LVL55:
 134:src/supervisorTrapHandler.cpp ****             } break;
 709              		.loc 1 134 17 is_stmt 1
 134:src/supervisorTrapHandler.cpp ****             } break;
 710              		.loc 1 134 45 is_stmt 0
 711              	#NO_APP
 712 0250 93060000 		li	a3,0
 713 0254 97000000 		call	_ZN3PCB13createProcessEPFvPvEPmS0_b@plt
 713      E7800000 
 714              	.LVL56:
 134:src/supervisorTrapHandler.cpp ****             } break;
 715              		.loc 1 134 25
 716 025c 23B0A400 		sd	a0,0(s1)
 717              	.LBE85:
 135:src/supervisorTrapHandler.cpp **** 
 718              		.loc 1 135 15 is_stmt 1
 719 0260 6FF05FE7 		j	.L3
 720              	.LVL57:
 721              	.L14:
 137:src/supervisorTrapHandler.cpp ****                 thread_t handle;
 722              		.loc 1 137 13
 137:src/supervisorTrapHandler.cpp ****                 thread_t handle;
GAS LISTING /tmp/ccLQ74S7.s 			page 24


 723              		.loc 1 137 35
 724              	.LBB86:
 138:src/supervisorTrapHandler.cpp ****                 __asm__ volatile("mv %0, a1" : "=r" (handle));
 725              		.loc 1 138 17
 139:src/supervisorTrapHandler.cpp **** 
 726              		.loc 1 139 17
 139:src/supervisorTrapHandler.cpp **** 
 727              		.loc 1 139 62 is_stmt 0
 728              	#APP
 729              	# 139 "src/supervisorTrapHandler.cpp" 1
 730              		mv a0, a1
 731              	# 0 "" 2
 732              	.LVL58:
 141:src/supervisorTrapHandler.cpp ****             } break;
 733              		.loc 1 141 17 is_stmt 1
 141:src/supervisorTrapHandler.cpp ****             } break;
 734              		.loc 1 141 31 is_stmt 0
 735              	#NO_APP
 736 0268 97000000 		call	_ZN9Scheduler3putEP3PCB@plt
 736      E7800000 
 737              	.LVL59:
 738              	.LBE86:
 142:src/supervisorTrapHandler.cpp **** 
 739              		.loc 1 142 15 is_stmt 1
 740 0270 6FF05FE6 		j	.L3
 741              	.L6:
 144:src/supervisorTrapHandler.cpp ****                 Riscv::mc_sstatus(Riscv::SSTATUS_SPP); //skok se desava iz korisnickog rezima
 742              		.loc 1 144 13
 144:src/supervisorTrapHandler.cpp ****                 Riscv::mc_sstatus(Riscv::SSTATUS_SPP); //skok se desava iz korisnickog rezima
 743              		.loc 1 144 30
 145:src/supervisorTrapHandler.cpp ****             } break;
 744              		.loc 1 145 17
 745              	.LVL60:
 746              	.LBB87:
 747              	.LBB88:
 162:src/../h/../h/riscv.h **** }
 748              		.loc 2 162 5
 162:src/../h/../h/riscv.h **** }
 749              		.loc 2 162 68 is_stmt 0
 750 0274 93070010 		li	a5,256
 751              	#APP
 752              	# 162 "src/../h/../h/riscv.h" 1
 163:src/../h/../h/riscv.h **** 
 753              		csrc sstatus, a5
 754              	# 0 "" 2
 755              		.loc 2 163 1
 756              	#NO_APP
 757 027c 6FF09FE5 		j	.L3
 758              	.LVL61:
 759              	.L4:
 760              	.LBE88:
 761              	.LBE87:
 148:src/supervisorTrapHandler.cpp ****                 Riscv::ms_sstatus(Riscv::SSTATUS_SPP); //skok se desava iz sistemskog rezima
 762              		.loc 1 148 13 is_stmt 1
 148:src/supervisorTrapHandler.cpp ****                 Riscv::ms_sstatus(Riscv::SSTATUS_SPP); //skok se desava iz sistemskog rezima
 763              		.loc 1 148 36
 149:src/supervisorTrapHandler.cpp ****             } break;
GAS LISTING /tmp/ccLQ74S7.s 			page 25


 764              		.loc 1 149 17
 765              	.LBB89:
 766              	.LBB90:
 157:src/../h/../h/riscv.h **** }
 767              		.loc 2 157 5
 157:src/../h/../h/riscv.h **** }
 768              		.loc 2 157 68 is_stmt 0
 769 0280 93070010 		li	a5,256
 770              	#APP
 771              	# 157 "src/../h/../h/riscv.h" 1
 158:src/../h/../h/riscv.h **** 
 772              		csrs sstatus, a5
 773              	# 0 "" 2
 774              		.loc 2 158 1
 775              	#NO_APP
 776 0288 6FF0DFE4 		j	.L3
 777              	.LVL62:
 778              	.L33:
 779              	.LBE90:
 780              	.LBE89:
 781              	.LBE93:
 782              	.LBE94:
 160:src/supervisorTrapHandler.cpp ****     }
 783              		.loc 1 160 9 is_stmt 1
 160:src/supervisorTrapHandler.cpp ****     }
 784              		.loc 1 160 24 is_stmt 0
 785 028c 97000000 		call	console_handler@plt
 785      E7800000 
 786              	.LVL63:
 787 0294 6FF09FE4 		j	.L1
 788              	.L34:
 167:src/supervisorTrapHandler.cpp ****             PCB::timeSliceCnt = 0;
 789              		.loc 1 167 13 is_stmt 1
 167:src/supervisorTrapHandler.cpp ****             PCB::timeSliceCnt = 0;
 790              		.loc 1 167 23 is_stmt 0
 791 0298 97000000 		call	_ZN3PCB5yieldEv@plt
 791      E7800000 
 792              	.LVL64:
 168:src/supervisorTrapHandler.cpp ****             Riscv::w_sepc(sepc);
 793              		.loc 1 168 13 is_stmt 1
 168:src/supervisorTrapHandler.cpp ****             Riscv::w_sepc(sepc);
 794              		.loc 1 168 31 is_stmt 0
 795 02a0 97070000 		la	a5,_ZN3PCB12timeSliceCntE
 795      83B70700 
 796 02a8 23B00700 		sd	zero,0(a5)
 169:src/supervisorTrapHandler.cpp ****             Riscv::w_sstatus(sstatus);
 797              		.loc 1 169 13 is_stmt 1
 798              	.LVL65:
 799              	.LBB95:
 800              	.LBB96:
 106:src/../h/../h/riscv.h **** }
 801              		.loc 2 106 5
 106:src/../h/../h/riscv.h **** }
 802              		.loc 2 106 65 is_stmt 0
 803              	#APP
 804              	# 106 "src/../h/../h/riscv.h" 1
 805              		csrw sepc, s2
GAS LISTING /tmp/ccLQ74S7.s 			page 26


 806              	# 0 "" 2
 807              	.LVL66:
 808              	#NO_APP
 809              	.LBE96:
 810              	.LBE95:
 170:src/supervisorTrapHandler.cpp ****         }
 811              		.loc 1 170 13 is_stmt 1
 812              	.LBB97:
 813              	.LBB98:
 170:src/../h/../h/riscv.h **** }
 171:src/../h/../h/riscv.h **** 
 172:src/../h/../h/riscv.h **** inline void Riscv::w_sstatus(uint64 sstatus)
 173:src/../h/../h/riscv.h **** {
 174:src/../h/../h/riscv.h ****     __asm__ volatile ("csrw sstatus, %[sstatus]" : : [sstatus] "r"(sstatus));
 814              		.loc 2 174 5
 815              		.loc 2 174 77 is_stmt 0
 816              	#APP
 817              	# 174 "src/../h/../h/riscv.h" 1
 175              	}
 818              		csrw sstatus, s3
 819              	# 0 "" 2
 820              		.loc 2 175 1
 821              	#NO_APP
 822 02b4 6FF01FDE 		j	.L26
 823              	.LVL67:
 824              	.L25:
 825              	.LBE98:
 826              	.LBE97:
 177:src/supervisorTrapHandler.cpp ****         printString("SEPC: ");
 827              		.loc 1 177 9 is_stmt 1
 177:src/supervisorTrapHandler.cpp ****         printString("SEPC: ");
 828              		.loc 1 177 15 is_stmt 0
 829 02b8 1305A000 		li	a0,10
 830 02bc 97000000 		call	__putc@plt
 830      E7800000 
 831              	.LVL68:
 178:src/supervisorTrapHandler.cpp ****         printInt(sepc);
 832              		.loc 1 178 9 is_stmt 1
 178:src/supervisorTrapHandler.cpp ****         printInt(sepc);
 833              		.loc 1 178 20 is_stmt 0
 834 02c4 17050000 		lla	a0,.LC0
 834      13050500 
 835 02cc 97000000 		call	_Z11printStringPKc@plt
 835      E7800000 
 836              	.LVL69:
 179:src/supervisorTrapHandler.cpp ****         __putc('\n');
 837              		.loc 1 179 9 is_stmt 1
 179:src/supervisorTrapHandler.cpp ****         __putc('\n');
 838              		.loc 1 179 17 is_stmt 0
 839 02d4 13060000 		li	a2,0
 840 02d8 9305A000 		li	a1,10
 841 02dc 1B050900 		sext.w	a0,s2
 842 02e0 97000000 		call	_Z8printIntiii@plt
 842      E7800000 
 843              	.LVL70:
 180:src/supervisorTrapHandler.cpp ****         printString("SCAUSE: ");
 844              		.loc 1 180 9 is_stmt 1
GAS LISTING /tmp/ccLQ74S7.s 			page 27


 180:src/supervisorTrapHandler.cpp ****         printString("SCAUSE: ");
 845              		.loc 1 180 15 is_stmt 0
 846 02e8 1305A000 		li	a0,10
 847 02ec 97000000 		call	__putc@plt
 847      E7800000 
 848              	.LVL71:
 181:src/supervisorTrapHandler.cpp ****         printInt(scause);
 849              		.loc 1 181 9 is_stmt 1
 181:src/supervisorTrapHandler.cpp ****         printInt(scause);
 850              		.loc 1 181 20 is_stmt 0
 851 02f4 17050000 		lla	a0,.LC1
 851      13050500 
 852 02fc 97000000 		call	_Z11printStringPKc@plt
 852      E7800000 
 853              	.LVL72:
 182:src/supervisorTrapHandler.cpp ****         __putc('\n');
 854              		.loc 1 182 9 is_stmt 1
 182:src/supervisorTrapHandler.cpp ****         __putc('\n');
 855              		.loc 1 182 17 is_stmt 0
 856 0304 13060000 		li	a2,0
 857 0308 9305A000 		li	a1,10
 858 030c 1B850400 		sext.w	a0,s1
 859 0310 97000000 		call	_Z8printIntiii@plt
 859      E7800000 
 860              	.LVL73:
 183:src/supervisorTrapHandler.cpp ****     }
 861              		.loc 1 183 9 is_stmt 1
 183:src/supervisorTrapHandler.cpp ****     }
 862              		.loc 1 183 15 is_stmt 0
 863 0318 1305A000 		li	a0,10
 864 031c 97000000 		call	__putc@plt
 864      E7800000 
 865              	.LVL74:
 866              	.LBE99:
 867              		.loc 1 185 1
 868 0324 6FF09FDB 		j	.L1
 869              		.cfi_endproc
 870              	.LFE49:
 872              	.Letext0:
 873              		.file 5 "src/../h/../lib/hw.h"
 874              		.file 6 "src/../h/memoryAllocator.h"
 875              		.file 7 "src/../h/syscall_c.h"
 876              		.file 8 "src/../h/scheduler.h"
 877              		.file 9 "src/../h/list.h"
 878              		.file 10 "src/../lib/console.h"
 879              		.file 11 "src/../test/printing.hpp"
GAS LISTING /tmp/ccLQ74S7.s 			page 28


DEFINED SYMBOLS
                            *ABS*:0000000000000000 supervisorTrapHandler.cpp
     /tmp/ccLQ74S7.s:17     .text:0000000000000000 handleSupervisorTrap
     /tmp/ccLQ74S7.s:21     .text:0000000000000000 .L0 
     /tmp/ccLQ74S7.s:22     .text:0000000000000000 .L0 
     /tmp/ccLQ74S7.s:23     .text:0000000000000004 .L0 
     /tmp/ccLQ74S7.s:29     .text:0000000000000018 .L0 
     /tmp/ccLQ74S7.s:30     .text:0000000000000018 .L0 
     /tmp/ccLQ74S7.s:31     .text:0000000000000018 .L0 
     /tmp/ccLQ74S7.s:32     .text:0000000000000018 .L0 
     /tmp/ccLQ74S7.s:33     .text:0000000000000018 .L0 
     /tmp/ccLQ74S7.s:35     .text:000000000000001c .L0 
     /tmp/ccLQ74S7.s:40     .text:000000000000001c .L0 
     /tmp/ccLQ74S7.s:41     .text:000000000000001c .L0 
     /tmp/ccLQ74S7.s:42     .text:000000000000001c .L0 
src/../h/../h/riscv.h:88     .text:000000000000001c .L0 
     /tmp/ccLQ74S7.s:50     .text:0000000000000024 .L0 
     /tmp/ccLQ74S7.s:51     .text:0000000000000024 .L0 
     /tmp/ccLQ74S7.s:58     .text:0000000000000028 .L0 
     /tmp/ccLQ74S7.s:59     .text:0000000000000028 .L0 
     /tmp/ccLQ74S7.s:60     .text:0000000000000028 .L0 
src/../h/../h/riscv.h:100    .text:0000000000000028 .L0 
     /tmp/ccLQ74S7.s:68     .text:0000000000000030 .L0 
     /tmp/ccLQ74S7.s:69     .text:0000000000000030 .L0 
     /tmp/ccLQ74S7.s:76     .text:0000000000000034 .L0 
     /tmp/ccLQ74S7.s:77     .text:0000000000000034 .L0 
     /tmp/ccLQ74S7.s:78     .text:0000000000000034 .L0 
src/../h/../h/riscv.h:168    .text:0000000000000034 .L0 
     /tmp/ccLQ74S7.s:86     .text:000000000000003c .L0 
     /tmp/ccLQ74S7.s:87     .text:000000000000003c .L0 
     /tmp/ccLQ74S7.s:93     .text:0000000000000040 .L0 
     /tmp/ccLQ74S7.s:94     .text:0000000000000040 .L0 
     /tmp/ccLQ74S7.s:96     .text:0000000000000044 .L0 
     /tmp/ccLQ74S7.s:99     .text:000000000000004c .L0 
     /tmp/ccLQ74S7.s:104    .text:000000000000005c .L0 
     /tmp/ccLQ74S7.s:109    .text:000000000000006c .L0 
     /tmp/ccLQ74S7.s:110    .text:000000000000006c .L0 
     /tmp/ccLQ74S7.s:115    .text:0000000000000080 .L0 
     /tmp/ccLQ74S7.s:116    .text:0000000000000080 .L0 
     /tmp/ccLQ74S7.s:120    .text:0000000000000090 .L0 
     /tmp/ccLQ74S7.s:126    .text:0000000000000094 .L0 
     /tmp/ccLQ74S7.s:127    .text:0000000000000094 .L0 
     /tmp/ccLQ74S7.s:128    .text:0000000000000094 .L0 
     /tmp/ccLQ74S7.s:135    .text:000000000000009c .L0 
     /tmp/ccLQ74S7.s:142    .text:00000000000000a0 .L0 
     /tmp/ccLQ74S7.s:143    .text:00000000000000a0 .L0 
src/supervisorTrapHandler.cpp:17     .text:00000000000000a0 .L0 
     /tmp/ccLQ74S7.s:151    .text:00000000000000a4 .L0 
     /tmp/ccLQ74S7.s:251    .text:00000000000000c8 .L0 
     /tmp/ccLQ74S7.s:253    .text:00000000000000c8 .L0 
     /tmp/ccLQ74S7.s:254    .text:00000000000000c8 .L0 
     /tmp/ccLQ74S7.s:255    .text:00000000000000c8 .L0 
src/supervisorTrapHandler.cpp:22     .text:00000000000000c8 .L0 
     /tmp/ccLQ74S7.s:262    .text:00000000000000cc .L0 
     /tmp/ccLQ74S7.s:264    .text:00000000000000cc .L0 
     /tmp/ccLQ74S7.s:270    .text:00000000000000d4 .L0 
     /tmp/ccLQ74S7.s:271    .text:00000000000000d4 .L0 
GAS LISTING /tmp/ccLQ74S7.s 			page 29


     /tmp/ccLQ74S7.s:272    .text:00000000000000d4 .L0 
     /tmp/ccLQ74S7.s:277    .text:00000000000000d8 .L0 
src/../h/../h/riscv.h:106    .text:00000000000000d8 .L0 
     /tmp/ccLQ74S7.s:290    .text:00000000000000dc .L0 
     /tmp/ccLQ74S7.s:291    .text:00000000000000e0 .L0 
     /tmp/ccLQ74S7.s:292    .text:00000000000000e0 .L0 
     /tmp/ccLQ74S7.s:294    .text:00000000000000e4 .L0 
     /tmp/ccLQ74S7.s:295    .text:00000000000000e4 .L0 
     /tmp/ccLQ74S7.s:297    .text:00000000000000e8 .L0 
     /tmp/ccLQ74S7.s:299    .text:00000000000000ec .L0 
     /tmp/ccLQ74S7.s:301    .text:00000000000000f0 .L0 
     /tmp/ccLQ74S7.s:304    .text:00000000000000f4 .L0 
     /tmp/ccLQ74S7.s:308    .text:00000000000000f8 .L0 
     /tmp/ccLQ74S7.s:313    .text:00000000000000f8 .L0 
     /tmp/ccLQ74S7.s:315    .text:00000000000000f8 .L0 
     /tmp/ccLQ74S7.s:316    .text:00000000000000f8 .L0 
     /tmp/ccLQ74S7.s:317    .text:00000000000000f8 .L0 
src/supervisorTrapHandler.cpp:29     .text:00000000000000f8 .L0 
     /tmp/ccLQ74S7.s:324    .text:00000000000000fc .L0 
     /tmp/ccLQ74S7.s:326    .text:00000000000000fc .L0 
     /tmp/ccLQ74S7.s:330    .text:0000000000000104 .L0 
     /tmp/ccLQ74S7.s:333    .text:0000000000000108 .L0 
     /tmp/ccLQ74S7.s:335    .text:0000000000000108 .L0 
     /tmp/ccLQ74S7.s:336    .text:0000000000000108 .L0 
     /tmp/ccLQ74S7.s:337    .text:0000000000000108 .L0 
     /tmp/ccLQ74S7.s:338    .text:0000000000000108 .L0 
     /tmp/ccLQ74S7.s:339    .text:0000000000000108 .L0 
     /tmp/ccLQ74S7.s:340    .text:0000000000000108 .L0 
src/supervisorTrapHandler.cpp:40     .text:0000000000000108 .L0 
     /tmp/ccLQ74S7.s:347    .text:000000000000010c .L0 
src/supervisorTrapHandler.cpp:41     .text:000000000000010c .L0 
     /tmp/ccLQ74S7.s:353    .text:0000000000000110 .L0 
src/supervisorTrapHandler.cpp:42     .text:0000000000000110 .L0 
     /tmp/ccLQ74S7.s:359    .text:0000000000000114 .L0 
src/supervisorTrapHandler.cpp:43     .text:0000000000000114 .L0 
     /tmp/ccLQ74S7.s:365    .text:0000000000000118 .L0 
     /tmp/ccLQ74S7.s:367    .text:0000000000000118 .L0 
     /tmp/ccLQ74S7.s:371    .text:0000000000000124 .L0 
     /tmp/ccLQ74S7.s:374    .text:0000000000000128 .L0 
     /tmp/ccLQ74S7.s:378    .text:000000000000012c .L0 
     /tmp/ccLQ74S7.s:379    .text:000000000000012c .L0 
     /tmp/ccLQ74S7.s:380    .text:000000000000012c .L0 
     /tmp/ccLQ74S7.s:381    .text:000000000000012c .L0 
     /tmp/ccLQ74S7.s:384    .text:0000000000000134 .L0 
     /tmp/ccLQ74S7.s:387    .text:0000000000000138 .L0 
     /tmp/ccLQ74S7.s:388    .text:0000000000000138 .L0 
     /tmp/ccLQ74S7.s:389    .text:0000000000000138 .L0 
     /tmp/ccLQ74S7.s:390    .text:0000000000000138 .L0 
     /tmp/ccLQ74S7.s:397    .text:0000000000000144 .L0 
     /tmp/ccLQ74S7.s:398    .text:0000000000000144 .L0 
     /tmp/ccLQ74S7.s:404    .text:000000000000014c .L0 
     /tmp/ccLQ74S7.s:405    .text:000000000000014c .L0 
     /tmp/ccLQ74S7.s:408    .text:0000000000000154 .L0 
     /tmp/ccLQ74S7.s:411    .text:0000000000000158 .L0 
     /tmp/ccLQ74S7.s:413    .text:0000000000000158 .L0 
     /tmp/ccLQ74S7.s:414    .text:0000000000000158 .L0 
     /tmp/ccLQ74S7.s:415    .text:0000000000000158 .L0 
GAS LISTING /tmp/ccLQ74S7.s 			page 30


     /tmp/ccLQ74S7.s:416    .text:0000000000000158 .L0 
src/supervisorTrapHandler.cpp:61     .text:0000000000000158 .L0 
     /tmp/ccLQ74S7.s:423    .text:000000000000015c .L0 
src/supervisorTrapHandler.cpp:62     .text:000000000000015c .L0 
     /tmp/ccLQ74S7.s:429    .text:0000000000000160 .L0 
     /tmp/ccLQ74S7.s:431    .text:0000000000000160 .L0 
     /tmp/ccLQ74S7.s:435    .text:000000000000016c .L0 
     /tmp/ccLQ74S7.s:438    .text:0000000000000170 .L0 
     /tmp/ccLQ74S7.s:442    .text:0000000000000174 .L0 
     /tmp/ccLQ74S7.s:444    .text:0000000000000174 .L0 
     /tmp/ccLQ74S7.s:445    .text:0000000000000174 .L0 
     /tmp/ccLQ74S7.s:446    .text:0000000000000174 .L0 
src/supervisorTrapHandler.cpp:70     .text:0000000000000174 .L0 
     /tmp/ccLQ74S7.s:453    .text:0000000000000178 .L0 
     /tmp/ccLQ74S7.s:455    .text:0000000000000178 .L0 
     /tmp/ccLQ74S7.s:459    .text:0000000000000180 .L0 
     /tmp/ccLQ74S7.s:462    .text:0000000000000184 .L0 
     /tmp/ccLQ74S7.s:464    .text:0000000000000184 .L0 
     /tmp/ccLQ74S7.s:465    .text:0000000000000184 .L0 
     /tmp/ccLQ74S7.s:466    .text:0000000000000184 .L0 
src/supervisorTrapHandler.cpp:78     .text:0000000000000184 .L0 
     /tmp/ccLQ74S7.s:473    .text:0000000000000188 .L0 
     /tmp/ccLQ74S7.s:475    .text:0000000000000188 .L0 
     /tmp/ccLQ74S7.s:479    .text:0000000000000190 .L0 
     /tmp/ccLQ74S7.s:482    .text:0000000000000194 .L0 
     /tmp/ccLQ74S7.s:484    .text:0000000000000194 .L0 
     /tmp/ccLQ74S7.s:485    .text:0000000000000194 .L0 
     /tmp/ccLQ74S7.s:487    .text:0000000000000194 .L0 
     /tmp/ccLQ74S7.s:488    .text:0000000000000194 .L0 
src/supervisorTrapHandler.cpp:86     .text:0000000000000194 .L0 
     /tmp/ccLQ74S7.s:499    .text:0000000000000198 .L0 
     /tmp/ccLQ74S7.s:500    .text:0000000000000198 .L0 
     /tmp/ccLQ74S7.s:501    .text:0000000000000198 .L0 
     /tmp/ccLQ74S7.s:506    .text:000000000000019c .L0 
     /tmp/ccLQ74S7.s:511    .text:00000000000001a0 .L0 
     /tmp/ccLQ74S7.s:512    .text:00000000000001a0 .L0 
     /tmp/ccLQ74S7.s:513    .text:00000000000001a0 .L0 
     /tmp/ccLQ74S7.s:515    .text:00000000000001a4 .L0 
     /tmp/ccLQ74S7.s:517    .text:00000000000001a8 .L0 
     /tmp/ccLQ74S7.s:519    .text:00000000000001ac .L0 
     /tmp/ccLQ74S7.s:524    .text:00000000000001b4 .L0 
     /tmp/ccLQ74S7.s:530    .text:00000000000001bc .L0 
     /tmp/ccLQ74S7.s:531    .text:00000000000001bc .L0 
     /tmp/ccLQ74S7.s:536    .text:00000000000001c4 .L0 
     /tmp/ccLQ74S7.s:545    .text:00000000000001cc .L0 
     /tmp/ccLQ74S7.s:549    .text:00000000000001d0 .L0 
src/supervisorTrapHandler.cpp:93     .text:00000000000001d0 .L0 
     /tmp/ccLQ74S7.s:557    .text:00000000000001d4 .L0 
     /tmp/ccLQ74S7.s:561    .text:00000000000001d8 .L0 
     /tmp/ccLQ74S7.s:563    .text:00000000000001d8 .L0 
     /tmp/ccLQ74S7.s:564    .text:00000000000001d8 .L0 
     /tmp/ccLQ74S7.s:565    .text:00000000000001d8 .L0 
     /tmp/ccLQ74S7.s:566    .text:00000000000001d8 .L0 
src/supervisorTrapHandler.cpp:99     .text:00000000000001d8 .L0 
     /tmp/ccLQ74S7.s:576    .text:00000000000001dc .L0 
     /tmp/ccLQ74S7.s:577    .text:00000000000001dc .L0 
     /tmp/ccLQ74S7.s:578    .text:00000000000001dc .L0 
GAS LISTING /tmp/ccLQ74S7.s 			page 31


     /tmp/ccLQ74S7.s:583    .text:00000000000001e0 .L0 
     /tmp/ccLQ74S7.s:588    .text:00000000000001e4 .L0 
     /tmp/ccLQ74S7.s:589    .text:00000000000001e4 .L0 
     /tmp/ccLQ74S7.s:590    .text:00000000000001e4 .L0 
     /tmp/ccLQ74S7.s:592    .text:00000000000001e8 .L0 
     /tmp/ccLQ74S7.s:595    .text:00000000000001f0 .L0 
     /tmp/ccLQ74S7.s:597    .text:00000000000001f4 .L0 
     /tmp/ccLQ74S7.s:601    .text:00000000000001f8 .L0 
     /tmp/ccLQ74S7.s:607    .text:0000000000000200 .L0 
     /tmp/ccLQ74S7.s:608    .text:0000000000000200 .L0 
     /tmp/ccLQ74S7.s:613    .text:0000000000000208 .L0 
     /tmp/ccLQ74S7.s:622    .text:0000000000000210 .L0 
     /tmp/ccLQ74S7.s:626    .text:0000000000000214 .L0 
src/supervisorTrapHandler.cpp:106    .text:0000000000000214 .L0 
     /tmp/ccLQ74S7.s:634    .text:0000000000000218 .L0 
     /tmp/ccLQ74S7.s:638    .text:000000000000021c .L0 
     /tmp/ccLQ74S7.s:640    .text:000000000000021c .L0 
     /tmp/ccLQ74S7.s:641    .text:000000000000021c .L0 
     /tmp/ccLQ74S7.s:642    .text:000000000000021c .L0 
     /tmp/ccLQ74S7.s:645    .text:0000000000000224 .L0 
src/supervisorTrapHandler.cpp:112    .text:0000000000000224 .L0 
     /tmp/ccLQ74S7.s:653    .text:0000000000000228 .L0 
     /tmp/ccLQ74S7.s:657    .text:000000000000022c .L0 
     /tmp/ccLQ74S7.s:659    .text:000000000000022c .L0 
     /tmp/ccLQ74S7.s:660    .text:000000000000022c .L0 
     /tmp/ccLQ74S7.s:661    .text:000000000000022c .L0 
src/supervisorTrapHandler.cpp:118    .text:000000000000022c .L0 
     /tmp/ccLQ74S7.s:668    .text:0000000000000230 .L0 
     /tmp/ccLQ74S7.s:670    .text:0000000000000230 .L0 
     /tmp/ccLQ74S7.s:675    .text:000000000000023c .L0 
     /tmp/ccLQ74S7.s:678    .text:0000000000000240 .L0 
     /tmp/ccLQ74S7.s:680    .text:0000000000000240 .L0 
     /tmp/ccLQ74S7.s:681    .text:0000000000000240 .L0 
     /tmp/ccLQ74S7.s:682    .text:0000000000000240 .L0 
     /tmp/ccLQ74S7.s:683    .text:0000000000000240 .L0 
     /tmp/ccLQ74S7.s:684    .text:0000000000000240 .L0 
     /tmp/ccLQ74S7.s:685    .text:0000000000000240 .L0 
src/supervisorTrapHandler.cpp:129    .text:0000000000000240 .L0 
     /tmp/ccLQ74S7.s:692    .text:0000000000000244 .L0 
src/supervisorTrapHandler.cpp:130    .text:0000000000000244 .L0 
     /tmp/ccLQ74S7.s:698    .text:0000000000000248 .L0 
src/supervisorTrapHandler.cpp:131    .text:0000000000000248 .L0 
     /tmp/ccLQ74S7.s:704    .text:000000000000024c .L0 
src/supervisorTrapHandler.cpp:132    .text:000000000000024c .L0 
     /tmp/ccLQ74S7.s:710    .text:0000000000000250 .L0 
     /tmp/ccLQ74S7.s:712    .text:0000000000000250 .L0 
     /tmp/ccLQ74S7.s:716    .text:000000000000025c .L0 
     /tmp/ccLQ74S7.s:719    .text:0000000000000260 .L0 
     /tmp/ccLQ74S7.s:723    .text:0000000000000264 .L0 
     /tmp/ccLQ74S7.s:725    .text:0000000000000264 .L0 
     /tmp/ccLQ74S7.s:726    .text:0000000000000264 .L0 
     /tmp/ccLQ74S7.s:727    .text:0000000000000264 .L0 
src/supervisorTrapHandler.cpp:139    .text:0000000000000264 .L0 
     /tmp/ccLQ74S7.s:734    .text:0000000000000268 .L0 
     /tmp/ccLQ74S7.s:736    .text:0000000000000268 .L0 
     /tmp/ccLQ74S7.s:740    .text:0000000000000270 .L0 
     /tmp/ccLQ74S7.s:743    .text:0000000000000274 .L0 
GAS LISTING /tmp/ccLQ74S7.s 			page 32


     /tmp/ccLQ74S7.s:744    .text:0000000000000274 .L0 
     /tmp/ccLQ74S7.s:748    .text:0000000000000274 .L0 
     /tmp/ccLQ74S7.s:749    .text:0000000000000274 .L0 
     /tmp/ccLQ74S7.s:750    .text:0000000000000274 .L0 
     /tmp/ccLQ74S7.s:757    .text:000000000000027c .L0 
     /tmp/ccLQ74S7.s:763    .text:0000000000000280 .L0 
     /tmp/ccLQ74S7.s:764    .text:0000000000000280 .L0 
     /tmp/ccLQ74S7.s:767    .text:0000000000000280 .L0 
     /tmp/ccLQ74S7.s:768    .text:0000000000000280 .L0 
     /tmp/ccLQ74S7.s:769    .text:0000000000000280 .L0 
     /tmp/ccLQ74S7.s:776    .text:0000000000000288 .L0 
     /tmp/ccLQ74S7.s:784    .text:000000000000028c .L0 
     /tmp/ccLQ74S7.s:785    .text:000000000000028c .L0 
     /tmp/ccLQ74S7.s:790    .text:0000000000000298 .L0 
     /tmp/ccLQ74S7.s:791    .text:0000000000000298 .L0 
     /tmp/ccLQ74S7.s:794    .text:00000000000002a0 .L0 
     /tmp/ccLQ74S7.s:795    .text:00000000000002a0 .L0 
     /tmp/ccLQ74S7.s:801    .text:00000000000002ac .L0 
     /tmp/ccLQ74S7.s:802    .text:00000000000002ac .L0 
src/../h/../h/riscv.h:106    .text:00000000000002ac .L0 
     /tmp/ccLQ74S7.s:814    .text:00000000000002b0 .L0 
     /tmp/ccLQ74S7.s:815    .text:00000000000002b0 .L0 
src/../h/../h/riscv.h:174    .text:00000000000002b0 .L0 
     /tmp/ccLQ74S7.s:822    .text:00000000000002b4 .L0 
     /tmp/ccLQ74S7.s:828    .text:00000000000002b8 .L0 
     /tmp/ccLQ74S7.s:829    .text:00000000000002b8 .L0 
     /tmp/ccLQ74S7.s:833    .text:00000000000002c4 .L0 
     /tmp/ccLQ74S7.s:834    .text:00000000000002c4 .L0 
     /tmp/ccLQ74S7.s:838    .text:00000000000002d4 .L0 
     /tmp/ccLQ74S7.s:839    .text:00000000000002d4 .L0 
     /tmp/ccLQ74S7.s:845    .text:00000000000002e8 .L0 
     /tmp/ccLQ74S7.s:846    .text:00000000000002e8 .L0 
     /tmp/ccLQ74S7.s:850    .text:00000000000002f4 .L0 
     /tmp/ccLQ74S7.s:851    .text:00000000000002f4 .L0 
     /tmp/ccLQ74S7.s:855    .text:0000000000000304 .L0 
     /tmp/ccLQ74S7.s:856    .text:0000000000000304 .L0 
     /tmp/ccLQ74S7.s:862    .text:0000000000000318 .L0 
     /tmp/ccLQ74S7.s:863    .text:0000000000000318 .L0 
     /tmp/ccLQ74S7.s:868    .text:0000000000000324 .L0 
     /tmp/ccLQ74S7.s:869    .text:0000000000000328 .L0 
     /tmp/ccLQ74S7.s:880    .text:0000000000000328 .L0 
     /tmp/ccLQ74S7.s:110    .text:000000000000006c .L0 
     /tmp/ccLQ74S7.s:116    .text:0000000000000080 .L0 
     /tmp/ccLQ74S7.s:163    .rodata:0000000000000000 .L5
     /tmp/ccLQ74S7.s:155    .text:00000000000000b0 .L0 
     /tmp/ccLQ74S7.s:390    .text:0000000000000138 .L0 
     /tmp/ccLQ74S7.s:795    .text:00000000000002a0 .L0 
     /tmp/ccLQ74S7.s:8      .rodata.str1.8:0000000000000000 .LC0
     /tmp/ccLQ74S7.s:834    .text:00000000000002c4 .L0 
     /tmp/ccLQ74S7.s:11     .rodata.str1.8:0000000000000008 .LC1
     /tmp/ccLQ74S7.s:851    .text:00000000000002f4 .L0 
     /tmp/ccLQ74S7.s:137    .text:00000000000000a0 .L32
     /tmp/ccLQ74S7.s:778    .text:000000000000028c .L33
     /tmp/ccLQ74S7.s:824    .text:00000000000002b8 .L25
     /tmp/ccLQ74S7.s:788    .text:0000000000000298 .L34
     /tmp/ccLQ74S7.s:284    .text:00000000000000dc .L1
     /tmp/ccLQ74S7.s:268    .text:00000000000000d4 .L3
GAS LISTING /tmp/ccLQ74S7.s 			page 33


     /tmp/ccLQ74S7.s:541    .text:00000000000001cc .L27
     /tmp/ccLQ74S7.s:526    .text:00000000000001bc .L35
     /tmp/ccLQ74S7.s:547    .text:00000000000001d0 .L21
     /tmp/ccLQ74S7.s:618    .text:0000000000000210 .L29
     /tmp/ccLQ74S7.s:603    .text:0000000000000200 .L36
     /tmp/ccLQ74S7.s:624    .text:0000000000000214 .L22
     /tmp/ccLQ74S7.s:121    .text:0000000000000094 .L26
     /tmp/ccLQ74S7.s:248    .text:00000000000000c8 .L20
     /tmp/ccLQ74S7.s:307    .text:00000000000000f8 .L19
     /tmp/ccLQ74S7.s:331    .text:0000000000000108 .L18
     /tmp/ccLQ74S7.s:385    .text:0000000000000138 .L17
     /tmp/ccLQ74S7.s:376    .text:000000000000012c .L16
     /tmp/ccLQ74S7.s:676    .text:0000000000000240 .L15
     /tmp/ccLQ74S7.s:721    .text:0000000000000264 .L14
     /tmp/ccLQ74S7.s:409    .text:0000000000000158 .L13
     /tmp/ccLQ74S7.s:440    .text:0000000000000174 .L12
     /tmp/ccLQ74S7.s:480    .text:0000000000000194 .L11
     /tmp/ccLQ74S7.s:559    .text:00000000000001d8 .L10
     /tmp/ccLQ74S7.s:460    .text:0000000000000184 .L9
     /tmp/ccLQ74S7.s:636    .text:000000000000021c .L8
     /tmp/ccLQ74S7.s:655    .text:000000000000022c .L7
     /tmp/ccLQ74S7.s:741    .text:0000000000000274 .L6
     /tmp/ccLQ74S7.s:759    .text:0000000000000280 .L4
     /tmp/ccLQ74S7.s:3049   .debug_abbrev:0000000000000000 .Ldebug_abbrev0
     /tmp/ccLQ74S7.s:4885   .debug_str:00000000000009de .LASF204
     /tmp/ccLQ74S7.s:4687   .debug_str:0000000000000452 .LASF205
     /tmp/ccLQ74S7.s:4741   .debug_str:00000000000005db .LASF206
     /tmp/ccLQ74S7.s:5      .text:0000000000000000 .Ltext0
     /tmp/ccLQ74S7.s:872    .text:0000000000000328 .Letext0
     /tmp/ccLQ74S7.s:4537   .debug_line:0000000000000000 .Ldebug_line0
     /tmp/ccLQ74S7.s:4691   .debug_str:0000000000000476 .LASF0
     /tmp/ccLQ74S7.s:4725   .debug_str:000000000000057d .LASF1
     /tmp/ccLQ74S7.s:4821   .debug_str:0000000000000849 .LASF2
     /tmp/ccLQ74S7.s:4665   .debug_str:00000000000003c0 .LASF3
     /tmp/ccLQ74S7.s:4829   .debug_str:0000000000000886 .LASF4
     /tmp/ccLQ74S7.s:4703   .debug_str:00000000000004da .LASF5
     /tmp/ccLQ74S7.s:4547   .debug_str:000000000000002d .LASF6
     /tmp/ccLQ74S7.s:4791   .debug_str:000000000000075d .LASF7
     /tmp/ccLQ74S7.s:4713   .debug_str:0000000000000532 .LASF8
     /tmp/ccLQ74S7.s:4663   .debug_str:00000000000003b0 .LASF9
     /tmp/ccLQ74S7.s:4671   .debug_str:00000000000003e3 .LASF10
     /tmp/ccLQ74S7.s:4589   .debug_str:000000000000018e .LASF11
     /tmp/ccLQ74S7.s:4653   .debug_str:0000000000000371 .LASF12
     /tmp/ccLQ74S7.s:4603   .debug_str:00000000000001ee .LASF13
     /tmp/ccLQ74S7.s:4587   .debug_str:000000000000017e .LASF14
     /tmp/ccLQ74S7.s:4863   .debug_str:0000000000000961 .LASF15
     /tmp/ccLQ74S7.s:4633   .debug_str:00000000000002e0 .LASF16
     /tmp/ccLQ74S7.s:4853   .debug_str:0000000000000914 .LASF17
     /tmp/ccLQ74S7.s:4785   .debug_str:0000000000000734 .LASF26
     /tmp/ccLQ74S7.s:4661   .debug_str:00000000000003a4 .LASF21
     /tmp/ccLQ74S7.s:4723   .debug_str:0000000000000578 .LASF18
     /tmp/ccLQ74S7.s:4591   .debug_str:000000000000019d .LASF19
     /tmp/ccLQ74S7.s:4563   .debug_str:00000000000000c8 .LASF20
     /tmp/ccLQ74S7.s:4765   .debug_str:0000000000000696 .LASF22
     /tmp/ccLQ74S7.s:4539   .debug_str:0000000000000000 .LASF23
     /tmp/ccLQ74S7.s:4875   .debug_str:00000000000009a9 .LASF24
     /tmp/ccLQ74S7.s:4847   .debug_str:00000000000008f7 .LASF207
GAS LISTING /tmp/ccLQ74S7.s 			page 34


     /tmp/ccLQ74S7.s:4609   .debug_str:0000000000000232 .LASF208
     /tmp/ccLQ74S7.s:4699   .debug_str:00000000000004ba .LASF76
     /tmp/ccLQ74S7.s:4783   .debug_str:0000000000000702 .LASF78
     /tmp/ccLQ74S7.s:4811   .debug_str:00000000000007f7 .LASF25
     /tmp/ccLQ74S7.s:4561   .debug_str:00000000000000af .LASF28
     /tmp/ccLQ74S7.s:4753   .debug_str:0000000000000645 .LASF48
     /tmp/ccLQ74S7.s:4551   .debug_str:000000000000003f .LASF50
     /tmp/ccLQ74S7.s:4869   .debug_str:000000000000097f .LASF27
     /tmp/ccLQ74S7.s:4755   .debug_str:000000000000064f .LASF29
     /tmp/ccLQ74S7.s:4743   .debug_str:00000000000005f5 .LASF30
     /tmp/ccLQ74S7.s:4707   .debug_str:00000000000004f8 .LASF31
     /tmp/ccLQ74S7.s:4655   .debug_str:0000000000000380 .LASF32
     /tmp/ccLQ74S7.s:4871   .debug_str:0000000000000988 .LASF33
     /tmp/ccLQ74S7.s:4849   .debug_str:0000000000000900 .LASF34
     /tmp/ccLQ74S7.s:4751   .debug_str:0000000000000636 .LASF35
     /tmp/ccLQ74S7.s:4731   .debug_str:00000000000005a6 .LASF36
     /tmp/ccLQ74S7.s:4969   .debug_str:0000000000000cd7 .LASF37
     /tmp/ccLQ74S7.s:4941   .debug_str:0000000000000c15 .LASF38
     /tmp/ccLQ74S7.s:4705   .debug_str:00000000000004ec .LASF39
     /tmp/ccLQ74S7.s:4867   .debug_str:0000000000000974 .LASF40
     /tmp/ccLQ74S7.s:4841   .debug_str:00000000000008c4 .LASF41
     /tmp/ccLQ74S7.s:4645   .debug_str:000000000000033b .LASF42
     /tmp/ccLQ74S7.s:4879   .debug_str:00000000000009be .LASF43
     /tmp/ccLQ74S7.s:4919   .debug_str:0000000000000b8b .LASF44
     /tmp/ccLQ74S7.s:4961   .debug_str:0000000000000cae .LASF45
     /tmp/ccLQ74S7.s:4557   .debug_str:000000000000008b .LASF46
     /tmp/ccLQ74S7.s:4923   .debug_str:0000000000000b9b .LASF47
     /tmp/ccLQ74S7.s:4597   .debug_str:00000000000001c9 .LASF209
     /tmp/ccLQ74S7.s:4931   .debug_str:0000000000000bcc .LASF49
     /tmp/ccLQ74S7.s:4957   .debug_str:0000000000000c8f .LASF51
     /tmp/ccLQ74S7.s:4675   .debug_str:0000000000000408 .LASF54
     /tmp/ccLQ74S7.s:4939   .debug_str:0000000000000bfe .LASF56
     /tmp/ccLQ74S7.s:4577   .debug_str:0000000000000142 .LASF52
     /tmp/ccLQ74S7.s:4673   .debug_str:00000000000003f1 .LASF53
     /tmp/ccLQ74S7.s:4823   .debug_str:0000000000000857 .LASF55
     /tmp/ccLQ74S7.s:4773   .debug_str:00000000000006b6 .LASF57
     /tmp/ccLQ74S7.s:4745   .debug_str:00000000000005fa .LASF58
     /tmp/ccLQ74S7.s:4953   .debug_str:0000000000000c65 .LASF59
     /tmp/ccLQ74S7.s:4567   .debug_str:00000000000000f5 .LASF60
     /tmp/ccLQ74S7.s:4697   .debug_str:0000000000000496 .LASF61
     /tmp/ccLQ74S7.s:4781   .debug_str:00000000000006fd .LASF210
     /tmp/ccLQ74S7.s:4727   .debug_str:0000000000000590 .LASF67
     /tmp/ccLQ74S7.s:4729   .debug_str:0000000000000596 .LASF69
     /tmp/ccLQ74S7.s:4891   .debug_str:0000000000000ab9 .LASF62
     /tmp/ccLQ74S7.s:4639   .debug_str:0000000000000308 .LASF63
     /tmp/ccLQ74S7.s:4881   .debug_str:00000000000009c9 .LASF64
     /tmp/ccLQ74S7.s:4827   .debug_str:0000000000000879 .LASF65
     /tmp/ccLQ74S7.s:4899   .debug_str:0000000000000afb .LASF66
     /tmp/ccLQ74S7.s:4617   .debug_str:000000000000026e .LASF68
     /tmp/ccLQ74S7.s:4559   .debug_str:000000000000009c .LASF70
     /tmp/ccLQ74S7.s:4949   .debug_str:0000000000000c40 .LASF211
     /tmp/ccLQ74S7.s:4541   .debug_str:0000000000000010 .LASF71
     /tmp/ccLQ74S7.s:4615   .debug_str:0000000000000268 .LASF72
     /tmp/ccLQ74S7.s:4903   .debug_str:0000000000000b18 .LASF73
     /tmp/ccLQ74S7.s:4851   .debug_str:000000000000090b .LASF74
     /tmp/ccLQ74S7.s:4777   .debug_str:00000000000006d7 .LASF75
     /tmp/ccLQ74S7.s:4951   .debug_str:0000000000000c57 .LASF77
GAS LISTING /tmp/ccLQ74S7.s 			page 35


     /tmp/ccLQ74S7.s:4565   .debug_str:00000000000000cd .LASF79
     /tmp/ccLQ74S7.s:4635   .debug_str:00000000000002f6 .LASF80
     /tmp/ccLQ74S7.s:4641   .debug_str:0000000000000320 .LASF81
     /tmp/ccLQ74S7.s:4579   .debug_str:000000000000014e .LASF82
     /tmp/ccLQ74S7.s:4623   .debug_str:0000000000000296 .LASF83
     /tmp/ccLQ74S7.s:4543   .debug_str:0000000000000015 .LASF84
     /tmp/ccLQ74S7.s:4963   .debug_str:0000000000000cb9 .LASF85
     /tmp/ccLQ74S7.s:4959   .debug_str:0000000000000c9b .LASF109
     /tmp/ccLQ74S7.s:4789   .debug_str:0000000000000750 .LASF110
     /tmp/ccLQ74S7.s:4947   .debug_str:0000000000000c3a .LASF86
     /tmp/ccLQ74S7.s:4619   .debug_str:0000000000000277 .LASF87
     /tmp/ccLQ74S7.s:4581   .debug_str:000000000000015e .LASF212
     /tmp/ccLQ74S7.s:4689   .debug_str:0000000000000470 .LASF88
     /tmp/ccLQ74S7.s:4651   .debug_str:0000000000000361 .LASF89
     /tmp/ccLQ74S7.s:4545   .debug_str:0000000000000025 .LASF90
     /tmp/ccLQ74S7.s:4887   .debug_str:0000000000000aa2 .LASF91
     /tmp/ccLQ74S7.s:4583   .debug_str:000000000000016a .LASF92
     /tmp/ccLQ74S7.s:4631   .debug_str:00000000000002cc .LASF93
     /tmp/ccLQ74S7.s:4893   .debug_str:0000000000000ac5 .LASF94
     /tmp/ccLQ74S7.s:4761   .debug_str:000000000000067f .LASF95
     /tmp/ccLQ74S7.s:4865   .debug_str:000000000000096d .LASF96
     /tmp/ccLQ74S7.s:4859   .debug_str:0000000000000936 .LASF97
     /tmp/ccLQ74S7.s:4817   .debug_str:0000000000000826 .LASF98
     /tmp/ccLQ74S7.s:4747   .debug_str:0000000000000605 .LASF99
     /tmp/ccLQ74S7.s:4973   .debug_str:0000000000000cf1 .LASF100
     /tmp/ccLQ74S7.s:4709   .debug_str:0000000000000504 .LASF101
     /tmp/ccLQ74S7.s:4935   .debug_str:0000000000000be5 .LASF102
     /tmp/ccLQ74S7.s:4605   .debug_str:00000000000001fe .LASF103
     /tmp/ccLQ74S7.s:4839   .debug_str:00000000000008bb .LASF104
     /tmp/ccLQ74S7.s:4901   .debug_str:0000000000000b05 .LASF105
     /tmp/ccLQ74S7.s:4721   .debug_str:000000000000056c .LASF106
     /tmp/ccLQ74S7.s:4775   .debug_str:00000000000006cb .LASF107
     /tmp/ccLQ74S7.s:4711   .debug_str:0000000000000525 .LASF108
     /tmp/ccLQ74S7.s:4647   .debug_str:0000000000000348 .LASF111
     /tmp/ccLQ74S7.s:4757   .debug_str:0000000000000670 .LASF112
     /tmp/ccLQ74S7.s:4873   .debug_str:0000000000000995 .LASF113
     /tmp/ccLQ74S7.s:4955   .debug_str:0000000000000c7b .LASF213
     /tmp/ccLQ74S7.s:4553   .debug_str:0000000000000060 .LASF214
     /tmp/ccLQ74S7.s:4585   .debug_str:0000000000000174 .LASF114
     /tmp/ccLQ74S7.s:4911   .debug_str:0000000000000b49 .LASF215
     /tmp/ccLQ74S7.s:4857   .debug_str:0000000000000931 .LASF115
     /tmp/ccLQ74S7.s:4769   .debug_str:00000000000006aa .LASF116
     /tmp/ccLQ74S7.s:4759   .debug_str:000000000000067a .LASF117
     /tmp/ccLQ74S7.s:4943   .debug_str:0000000000000c20 .LASF118
     /tmp/ccLQ74S7.s:4573   .debug_str:0000000000000123 .LASF119
     /tmp/ccLQ74S7.s:4611   .debug_str:0000000000000252 .LASF216
     /tmp/ccLQ74S7.s:4607   .debug_str:000000000000021b .LASF217
     /tmp/ccLQ74S7.s:4813   .debug_str:0000000000000803 .LASF120
     /tmp/ccLQ74S7.s:4799   .debug_str:00000000000007a1 .LASF121
     /tmp/ccLQ74S7.s:4719   .debug_str:0000000000000563 .LASF122
     /tmp/ccLQ74S7.s:4897   .debug_str:0000000000000ade .LASF123
     /tmp/ccLQ74S7.s:4737   .debug_str:00000000000005cc .LASF124
     /tmp/ccLQ74S7.s:4815   .debug_str:000000000000080a .LASF125
     /tmp/ccLQ74S7.s:4787   .debug_str:0000000000000744 .LASF126
     /tmp/ccLQ74S7.s:4779   .debug_str:00000000000006df .LASF127
     /tmp/ccLQ74S7.s:4971   .debug_str:0000000000000ce7 .LASF128
     /tmp/ccLQ74S7.s:4569   .debug_str:0000000000000103 .LASF129
GAS LISTING /tmp/ccLQ74S7.s 			page 36


     /tmp/ccLQ74S7.s:4845   .debug_str:00000000000008ec .LASF130
     /tmp/ccLQ74S7.s:4595   .debug_str:00000000000001ac .LASF131
     /tmp/ccLQ74S7.s:4807   .debug_str:00000000000007e7 .LASF132
     /tmp/ccLQ74S7.s:4861   .debug_str:0000000000000947 .LASF133
     /tmp/ccLQ74S7.s:4819   .debug_str:0000000000000836 .LASF134
     /tmp/ccLQ74S7.s:4555   .debug_str:0000000000000078 .LASF135
     /tmp/ccLQ74S7.s:4933   .debug_str:0000000000000bd1 .LASF136
     /tmp/ccLQ74S7.s:4599   .debug_str:00000000000001d1 .LASF137
     /tmp/ccLQ74S7.s:4927   .debug_str:0000000000000bbc .LASF138
     /tmp/ccLQ74S7.s:4717   .debug_str:0000000000000558 .LASF142
     /tmp/ccLQ74S7.s:4601   .debug_str:00000000000001e5 .LASF139
     /tmp/ccLQ74S7.s:4627   .debug_str:00000000000002b0 .LASF140
     /tmp/ccLQ74S7.s:4937   .debug_str:0000000000000bf5 .LASF141
     /tmp/ccLQ74S7.s:4915   .debug_str:0000000000000b62 .LASF143
     /tmp/ccLQ74S7.s:4649   .debug_str:0000000000000355 .LASF144
     /tmp/ccLQ74S7.s:4883   .debug_str:00000000000009d1 .LASF145
     /tmp/ccLQ74S7.s:4613   .debug_str:000000000000025c .LASF146
     /tmp/ccLQ74S7.s:4679   .debug_str:0000000000000428 .LASF147
     /tmp/ccLQ74S7.s:4925   .debug_str:0000000000000ba4 .LASF148
     /tmp/ccLQ74S7.s:4837   .debug_str:00000000000008ad .LASF149
     /tmp/ccLQ74S7.s:4843   .debug_str:00000000000008d1 .LASF150
     /tmp/ccLQ74S7.s:4693   .debug_str:0000000000000483 .LASF151
     /tmp/ccLQ74S7.s:4917   .debug_str:0000000000000b71 .LASF152
     /tmp/ccLQ74S7.s:4909   .debug_str:0000000000000b40 .LASF153
     /tmp/ccLQ74S7.s:4905   .debug_str:0000000000000b20 .LASF157
     /tmp/ccLQ74S7.s:4965   .debug_str:0000000000000cc6 .LASF154
     /tmp/ccLQ74S7.s:4677   .debug_str:0000000000000413 .LASF155
     /tmp/ccLQ74S7.s:4801   .debug_str:00000000000007b9 .LASF156
     /tmp/ccLQ74S7.s:4803   .debug_str:00000000000007c0 .LASF158
     /tmp/ccLQ74S7.s:4771   .debug_str:00000000000006af .LASF159
     /tmp/ccLQ74S7.s:4715   .debug_str:0000000000000545 .LASF160
     /tmp/ccLQ74S7.s:4763   .debug_str:000000000000068e .LASF161
     /tmp/ccLQ74S7.s:4895   .debug_str:0000000000000aca .LASF162
     /tmp/ccLQ74S7.s:4767   .debug_str:00000000000006a2 .LASF163
     /tmp/ccLQ74S7.s:4657   .debug_str:000000000000038b .LASF164
     /tmp/ccLQ74S7.s:4733   .debug_str:00000000000005b2 .LASF165
     /tmp/ccLQ74S7.s:4805   .debug_str:00000000000007d3 .LASF166
     /tmp/ccLQ74S7.s:4967   .debug_str:0000000000000ccf .LASF167
     /tmp/ccLQ74S7.s:4913   .debug_str:0000000000000b4e .LASF168
     /tmp/ccLQ74S7.s:4809   .debug_str:00000000000007f0 .LASF169
     /tmp/ccLQ74S7.s:4833   .debug_str:0000000000000893 .LASF170
     /tmp/ccLQ74S7.s:4835   .debug_str:00000000000008a6 .LASF171
     /tmp/ccLQ74S7.s:4629   .debug_str:00000000000002b9 .LASF172
     /tmp/ccLQ74S7.s:4831   .debug_str:000000000000088d .LASF173
     /tmp/ccLQ74S7.s:4685   .debug_str:0000000000000440 .LASF174
     /tmp/ccLQ74S7.s:4695   .debug_str:0000000000000490 .LASF175
     /tmp/ccLQ74S7.s:4735   .debug_str:00000000000005ba .LASF176
     /tmp/ccLQ74S7.s:4549   .debug_str:0000000000000034 .LASF177
     /tmp/ccLQ74S7.s:4825   .debug_str:0000000000000861 .LASF178
     /tmp/ccLQ74S7.s:4907   .debug_str:0000000000000b35 .LASF179
     /tmp/ccLQ74S7.s:4621   .debug_str:000000000000027e .LASF180
     /tmp/ccLQ74S7.s:4929   .debug_str:0000000000000bc2 .LASF181
     /tmp/ccLQ74S7.s:4701   .debug_str:00000000000004c4 .LASF182
     /tmp/ccLQ74S7.s:4593   .debug_str:00000000000001a2 .LASF183
     /tmp/ccLQ74S7.s:4749   .debug_str:0000000000000620 .LASF184
     /tmp/ccLQ74S7.s:4797   .debug_str:000000000000078c .LASF185
     /tmp/ccLQ74S7.s:18     .text:0000000000000000 .LFB49
GAS LISTING /tmp/ccLQ74S7.s 			page 37


     /tmp/ccLQ74S7.s:870    .text:0000000000000328 .LFE49
     /tmp/ccLQ74S7.s:4855   .debug_str:000000000000092a .LASF186
     /tmp/ccLQ74S7.s:4185   .debug_loc:0000000000000000 .LLST0
     /tmp/ccLQ74S7.s:4889   .debug_str:0000000000000ab4 .LASF187
     /tmp/ccLQ74S7.s:4208   .debug_loc:000000000000006f .LLST1
     /tmp/ccLQ74S7.s:4575   .debug_str:000000000000013a .LASF188
     /tmp/ccLQ74S7.s:4225   .debug_loc:00000000000000ba .LLST2
     /tmp/ccLQ74S7.s:4513   .debug_ranges:0000000000000000 .Ldebug_ranges0
     /tmp/ccLQ74S7.s:4637   .debug_str:0000000000000303 .LASF189
     /tmp/ccLQ74S7.s:4236   .debug_loc:00000000000000f0 .LLST4
     /tmp/ccLQ74S7.s:252    .text:00000000000000c8 .LBB57
     /tmp/ccLQ74S7.s:266    .text:00000000000000d4 .LBE57
     /tmp/ccLQ74S7.s:4243   .debug_loc:0000000000000113 .LLST5
     /tmp/ccLQ74S7.s:265    .text:00000000000000d4 .LVL8
     /tmp/ccLQ74S7.s:314    .text:00000000000000f8 .LBB58
     /tmp/ccLQ74S7.s:328    .text:0000000000000104 .LBE58
     /tmp/ccLQ74S7.s:4250   .debug_loc:0000000000000136 .LLST6
     /tmp/ccLQ74S7.s:327    .text:0000000000000104 .LVL14
     /tmp/ccLQ74S7.s:334    .text:0000000000000108 .LBB59
     /tmp/ccLQ74S7.s:372    .text:0000000000000128 .LBE59
     /tmp/ccLQ74S7.s:4945   .debug_str:0000000000000c33 .LASF190
     /tmp/ccLQ74S7.s:4257   .debug_loc:0000000000000159 .LLST7
     /tmp/ccLQ74S7.s:4625   .debug_str:00000000000002a2 .LASF191
     /tmp/ccLQ74S7.s:4264   .debug_loc:000000000000017c .LLST8
     /tmp/ccLQ74S7.s:4271   .debug_loc:000000000000019f .LLST9
     /tmp/ccLQ74S7.s:4278   .debug_loc:00000000000001c2 .LLST10
     /tmp/ccLQ74S7.s:369    .text:0000000000000124 .LVL19
     /tmp/ccLQ74S7.s:412    .text:0000000000000158 .LBB62
     /tmp/ccLQ74S7.s:436    .text:0000000000000170 .LBE62
     /tmp/ccLQ74S7.s:4285   .debug_loc:00000000000001e5 .LLST13
     /tmp/ccLQ74S7.s:4571   .debug_str:000000000000011e .LASF192
     /tmp/ccLQ74S7.s:4292   .debug_loc:0000000000000208 .LLST14
     /tmp/ccLQ74S7.s:433    .text:000000000000016c .LVL27
     /tmp/ccLQ74S7.s:443    .text:0000000000000174 .LBB63
     /tmp/ccLQ74S7.s:457    .text:0000000000000180 .LBE63
     /tmp/ccLQ74S7.s:4299   .debug_loc:000000000000022b .LLST15
     /tmp/ccLQ74S7.s:456    .text:0000000000000180 .LVL30
     /tmp/ccLQ74S7.s:463    .text:0000000000000184 .LBB64
     /tmp/ccLQ74S7.s:477    .text:0000000000000190 .LBE64
     /tmp/ccLQ74S7.s:4306   .debug_loc:000000000000024e .LLST16
     /tmp/ccLQ74S7.s:476    .text:0000000000000190 .LVL32
     /tmp/ccLQ74S7.s:483    .text:0000000000000194 .LBB65
     /tmp/ccLQ74S7.s:555    .text:00000000000001d4 .LBE65
     /tmp/ccLQ74S7.s:4313   .debug_loc:0000000000000271 .LLST17
     /tmp/ccLQ74S7.s:4324   .debug_loc:00000000000002a7 .LLST18
     /tmp/ccLQ74S7.s:496    .text:0000000000000198 .LBB66
     /tmp/ccLQ74S7.s:504    .text:000000000000019c .LBE66
     /tmp/ccLQ74S7.s:4337   .debug_loc:00000000000002df .LLST19
     /tmp/ccLQ74S7.s:509    .text:00000000000001a0 .LBB68
     /tmp/ccLQ74S7.s:4344   .debug_loc:0000000000000302 .LLST20
     /tmp/ccLQ74S7.s:532    .text:00000000000001c4 .LVL37
     /tmp/ccLQ74S7.s:562    .text:00000000000001d8 .LBB74
     /tmp/ccLQ74S7.s:632    .text:0000000000000218 .LBE74
     /tmp/ccLQ74S7.s:4351   .debug_loc:0000000000000325 .LLST21
     /tmp/ccLQ74S7.s:4362   .debug_loc:000000000000035b .LLST22
     /tmp/ccLQ74S7.s:574    .text:00000000000001dc .LBB75
     /tmp/ccLQ74S7.s:581    .text:00000000000001e0 .LBE75
GAS LISTING /tmp/ccLQ74S7.s 			page 38


     /tmp/ccLQ74S7.s:4375   .debug_loc:0000000000000393 .LLST23
     /tmp/ccLQ74S7.s:586    .text:00000000000001e4 .LBB77
     /tmp/ccLQ74S7.s:4382   .debug_loc:00000000000003b6 .LLST24
     /tmp/ccLQ74S7.s:609    .text:0000000000000208 .LVL44
     /tmp/ccLQ74S7.s:639    .text:000000000000021c .LBB83
     /tmp/ccLQ74S7.s:651    .text:0000000000000228 .LBE83
     /tmp/ccLQ74S7.s:4389   .debug_loc:00000000000003d9 .LLST25
     /tmp/ccLQ74S7.s:643    .text:0000000000000224 .LVL48
     /tmp/ccLQ74S7.s:658    .text:000000000000022c .LBB84
     /tmp/ccLQ74S7.s:673    .text:000000000000023c .LBE84
     /tmp/ccLQ74S7.s:4396   .debug_loc:00000000000003fc .LLST26
     /tmp/ccLQ74S7.s:672    .text:000000000000023c .LVL51
     /tmp/ccLQ74S7.s:679    .text:0000000000000240 .LBB85
     /tmp/ccLQ74S7.s:717    .text:0000000000000260 .LBE85
     /tmp/ccLQ74S7.s:4403   .debug_loc:000000000000041f .LLST27
     /tmp/ccLQ74S7.s:4410   .debug_loc:0000000000000442 .LLST28
     /tmp/ccLQ74S7.s:4417   .debug_loc:0000000000000465 .LLST29
     /tmp/ccLQ74S7.s:4424   .debug_loc:0000000000000488 .LLST30
     /tmp/ccLQ74S7.s:714    .text:000000000000025c .LVL56
     /tmp/ccLQ74S7.s:724    .text:0000000000000264 .LBB86
     /tmp/ccLQ74S7.s:738    .text:0000000000000270 .LBE86
     /tmp/ccLQ74S7.s:4431   .debug_loc:00000000000004ab .LLST31
     /tmp/ccLQ74S7.s:737    .text:0000000000000270 .LVL59
     /tmp/ccLQ74S7.s:393    .text:0000000000000144 .LBB60
     /tmp/ccLQ74S7.s:402    .text:000000000000014c .LBE60
     /tmp/ccLQ74S7.s:4438   .debug_loc:00000000000004ce .LLST11
     /tmp/ccLQ74S7.s:4446   .debug_loc:00000000000004f2 .LLST12
     /tmp/ccLQ74S7.s:746    .text:0000000000000274 .LBB87
     /tmp/ccLQ74S7.s:761    .text:0000000000000280 .LBE87
     /tmp/ccLQ74S7.s:4453   .debug_loc:0000000000000515 .LLST32
     /tmp/ccLQ74S7.s:765    .text:0000000000000280 .LBB89
     /tmp/ccLQ74S7.s:780    .text:000000000000028c .LBE89
     /tmp/ccLQ74S7.s:4462   .debug_loc:000000000000053b .LLST33
     /tmp/ccLQ74S7.s:274    .text:00000000000000d8 .LBB91
     /tmp/ccLQ74S7.s:286    .text:00000000000000dc .LBE91
     /tmp/ccLQ74S7.s:4471   .debug_loc:0000000000000561 .LLST34
     /tmp/ccLQ74S7.s:382    .text:0000000000000134 .LVL21
     /tmp/ccLQ74S7.s:406    .text:0000000000000154 .LVL24
     /tmp/ccLQ74S7.s:37     .text:000000000000001c .LBB46
     /tmp/ccLQ74S7.s:54     .text:0000000000000028 .LBE46
     /tmp/ccLQ74S7.s:56     .text:0000000000000028 .LBB48
     /tmp/ccLQ74S7.s:72     .text:0000000000000034 .LBE48
     /tmp/ccLQ74S7.s:74     .text:0000000000000034 .LBB50
     /tmp/ccLQ74S7.s:90     .text:0000000000000040 .LBE50
     /tmp/ccLQ74S7.s:124    .text:0000000000000094 .LBB53
     /tmp/ccLQ74S7.s:139    .text:00000000000000a0 .LBE53
     /tmp/ccLQ74S7.s:4478   .debug_loc:0000000000000584 .LLST3
     /tmp/ccLQ74S7.s:799    .text:00000000000002ac .LBB95
     /tmp/ccLQ74S7.s:810    .text:00000000000002b0 .LBE95
     /tmp/ccLQ74S7.s:4486   .debug_loc:00000000000005a8 .LLST35
     /tmp/ccLQ74S7.s:812    .text:00000000000002b0 .LBB97
     /tmp/ccLQ74S7.s:826    .text:00000000000002b8 .LBE97
     /tmp/ccLQ74S7.s:4493   .debug_loc:00000000000005cb .LLST36
     /tmp/ccLQ74S7.s:786    .text:0000000000000294 .LVL63
     /tmp/ccLQ74S7.s:792    .text:00000000000002a0 .LVL64
     /tmp/ccLQ74S7.s:831    .text:00000000000002c4 .LVL68
     /tmp/ccLQ74S7.s:836    .text:00000000000002d4 .LVL69
GAS LISTING /tmp/ccLQ74S7.s 			page 39


     /tmp/ccLQ74S7.s:843    .text:00000000000002e8 .LVL70
     /tmp/ccLQ74S7.s:848    .text:00000000000002f4 .LVL71
     /tmp/ccLQ74S7.s:853    .text:0000000000000304 .LVL72
     /tmp/ccLQ74S7.s:860    .text:0000000000000318 .LVL73
     /tmp/ccLQ74S7.s:865    .text:0000000000000324 .LVL74
     /tmp/ccLQ74S7.s:4877   .debug_str:00000000000009b9 .LASF193
     /tmp/ccLQ74S7.s:4659   .debug_str:000000000000039f .LASF194
     /tmp/ccLQ74S7.s:4681   .debug_str:0000000000000433 .LASF195
     /tmp/ccLQ74S7.s:4921   .debug_str:0000000000000b96 .LASF196
     /tmp/ccLQ74S7.s:4683   .debug_str:0000000000000439 .LASF197
     /tmp/ccLQ74S7.s:4739   .debug_str:00000000000005d4 .LASF198
     /tmp/ccLQ74S7.s:4667   .debug_str:00000000000003c7 .LASF199
     /tmp/ccLQ74S7.s:4795   .debug_str:0000000000000779 .LASF200
     /tmp/ccLQ74S7.s:4669   .debug_str:00000000000003d7 .LASF201
     /tmp/ccLQ74S7.s:4643   .debug_str:000000000000032c .LASF202
     /tmp/ccLQ74S7.s:4793   .debug_str:0000000000000770 .LASF203
     /tmp/ccLQ74S7.s:52     .text:0000000000000028 .LVL0
     /tmp/ccLQ74S7.s:306    .text:00000000000000f8 .LVL12
     /tmp/ccLQ74S7.s:345    .text:000000000000010c .LVL15
     /tmp/ccLQ74S7.s:375    .text:000000000000012c .LVL20
     /tmp/ccLQ74S7.s:421    .text:000000000000015c .LVL25
     /tmp/ccLQ74S7.s:439    .text:0000000000000174 .LVL28
     /tmp/ccLQ74S7.s:690    .text:0000000000000244 .LVL52
     /tmp/ccLQ74S7.s:720    .text:0000000000000264 .LVL57
     /tmp/ccLQ74S7.s:70     .text:0000000000000034 .LVL1
     /tmp/ccLQ74S7.s:273    .text:00000000000000d8 .LVL9
     /tmp/ccLQ74S7.s:282    .text:00000000000000dc .LVL10
     /tmp/ccLQ74S7.s:88     .text:0000000000000040 .LVL2
     /tmp/ccLQ74S7.s:302    .text:00000000000000f0 .LVL11
     /tmp/ccLQ74S7.s:148    .text:00000000000000a4 .LVL5
     /tmp/ccLQ74S7.s:154    .text:00000000000000b0 .LVL6
     /tmp/ccLQ74S7.s:260    .text:00000000000000cc .LVL7
     /tmp/ccLQ74S7.s:322    .text:00000000000000fc .LVL13
     /tmp/ccLQ74S7.s:351    .text:0000000000000110 .LVL16
     /tmp/ccLQ74S7.s:357    .text:0000000000000114 .LVL17
     /tmp/ccLQ74S7.s:363    .text:0000000000000118 .LVL18
     /tmp/ccLQ74S7.s:427    .text:0000000000000160 .LVL26
     /tmp/ccLQ74S7.s:451    .text:0000000000000178 .LVL29
     /tmp/ccLQ74S7.s:471    .text:0000000000000188 .LVL31
     /tmp/ccLQ74S7.s:493    .text:0000000000000198 .LVL34
     /tmp/ccLQ74S7.s:540    .text:00000000000001cc .LVL38
     /tmp/ccLQ74S7.s:546    .text:00000000000001d0 .LVL39
     /tmp/ccLQ74S7.s:486    .text:0000000000000194 .LVL33
     /tmp/ccLQ74S7.s:558    .text:00000000000001d8 .LVL40
     /tmp/ccLQ74S7.s:502    .text:000000000000019c .LVL35
     /tmp/ccLQ74S7.s:508    .text:00000000000001a0 .LVL36
     /tmp/ccLQ74S7.s:571    .text:00000000000001dc .LVL41
     /tmp/ccLQ74S7.s:617    .text:0000000000000210 .LVL45
     /tmp/ccLQ74S7.s:623    .text:0000000000000214 .LVL46
     /tmp/ccLQ74S7.s:635    .text:000000000000021c .LVL47
     /tmp/ccLQ74S7.s:579    .text:00000000000001e0 .LVL42
     /tmp/ccLQ74S7.s:585    .text:00000000000001e4 .LVL43
     /tmp/ccLQ74S7.s:654    .text:000000000000022c .LVL49
     /tmp/ccLQ74S7.s:666    .text:0000000000000230 .LVL50
     /tmp/ccLQ74S7.s:696    .text:0000000000000248 .LVL53
     /tmp/ccLQ74S7.s:702    .text:000000000000024c .LVL54
     /tmp/ccLQ74S7.s:708    .text:0000000000000250 .LVL55
GAS LISTING /tmp/ccLQ74S7.s 			page 40


     /tmp/ccLQ74S7.s:732    .text:0000000000000268 .LVL58
     /tmp/ccLQ74S7.s:392    .text:0000000000000144 .LVL22
     /tmp/ccLQ74S7.s:400    .text:000000000000014c .LVL23
     /tmp/ccLQ74S7.s:745    .text:0000000000000274 .LVL60
     /tmp/ccLQ74S7.s:758    .text:0000000000000280 .LVL61
     /tmp/ccLQ74S7.s:777    .text:000000000000028c .LVL62
     /tmp/ccLQ74S7.s:123    .text:0000000000000094 .LVL3
     /tmp/ccLQ74S7.s:136    .text:00000000000000a0 .LVL4
     /tmp/ccLQ74S7.s:798    .text:00000000000002ac .LVL65
     /tmp/ccLQ74S7.s:807    .text:00000000000002b0 .LVL66
     /tmp/ccLQ74S7.s:823    .text:00000000000002b8 .LVL67
     /tmp/ccLQ74S7.s:881    .debug_info:0000000000000000 .Ldebug_info0
     /tmp/ccLQ74S7.s:140    .text:00000000000000a0 .LBB55
     /tmp/ccLQ74S7.s:287    .text:00000000000000dc .LBE55
     /tmp/ccLQ74S7.s:310    .text:00000000000000f8 .LBB94
     /tmp/ccLQ74S7.s:782    .text:000000000000028c .LBE94
     /tmp/ccLQ74S7.s:522    .text:00000000000001b4 .LBE68
     /tmp/ccLQ74S7.s:527    .text:00000000000001bc .LBB72
     /tmp/ccLQ74S7.s:534    .text:00000000000001c4 .LBE72
     /tmp/ccLQ74S7.s:537    .text:00000000000001c8 .LBB73
     /tmp/ccLQ74S7.s:543    .text:00000000000001cc .LBE73
     /tmp/ccLQ74S7.s:599    .text:00000000000001f8 .LBE77
     /tmp/ccLQ74S7.s:604    .text:0000000000000200 .LBB81
     /tmp/ccLQ74S7.s:611    .text:0000000000000208 .LBE81
     /tmp/ccLQ74S7.s:614    .text:000000000000020c .LBB82
     /tmp/ccLQ74S7.s:620    .text:0000000000000210 .LBE82

UNDEFINED SYMBOLS
_ZN3PCB12timeSliceCntE
_ZN3PCB7runningE
_ZN15MemoryAllocator9mem_allocEm
_ZN15MemoryAllocator8mem_freeEPv
_ZN3PCB13createProcessEPFvPvEPmS0_b
_ZN3PCB5yieldEv
_ZN3Sem15createSemaphoreEj
_ZN3Sem19deactivateSemaphoreEPS_
_ZN3Sem15deleteSemaphoreEPS_
_ZN3Sem5blockEv
_ZN3Sem7unblockEv
__getc
__putc
_ZN9Scheduler3putEP3PCB
console_handler
_Z11printStringPKc
_Z8printIntiii
