GAS LISTING /tmp/cco9o7EU.s 			page 1


   1              		.file	"supervisorTrapHandler.cpp"
   2              		.option pic
   3              		.option norelax
   4              		.text
   5              	.Ltext0:
   6              		.align	2
   7              		.globl	handleSupervisorTrap
   9              	handleSupervisorTrap:
  10              	.LFB47:
  11              		.file 1 "src/supervisorTrapHandler.cpp"
   1:src/supervisorTrapHandler.cpp **** #include "../h/memoryAllocator.h"
   2:src/supervisorTrapHandler.cpp **** #include "../h/pcb.h"
   3:src/supervisorTrapHandler.cpp **** #include "../h/syscall_c.h"
   4:src/supervisorTrapHandler.cpp **** #include "../h/sem.h"
   5:src/supervisorTrapHandler.cpp **** #include "../lib/console.h"
   6:src/supervisorTrapHandler.cpp **** #include "../h/riscv.h"
   7:src/supervisorTrapHandler.cpp **** 
   8:src/supervisorTrapHandler.cpp **** extern "C" void handleSupervisorTrap() {
  12              		.loc 1 8 40
  13              		.cfi_startproc
  14 0000 130101FD 		addi	sp,sp,-48
  15              		.cfi_def_cfa_offset 48
  16 0004 23341102 		sd	ra,40(sp)
  17 0008 23308102 		sd	s0,32(sp)
  18 000c 233C9100 		sd	s1,24(sp)
  19              		.cfi_offset 1, -8
  20              		.cfi_offset 8, -16
  21              		.cfi_offset 9, -24
  22 0010 13040103 		addi	s0,sp,48
  23              		.cfi_def_cfa 8, 0
   9:src/supervisorTrapHandler.cpp ****     uint64 scause = Riscv::r_scause();
  24              		.loc 1 9 5
  25              	.LBB29:
  26              	.LBB30:
  27              		.file 2 "src/../h/riscv.h"
   1:src/../h/riscv.h **** #ifndef PROJEKAT_RISCV_H
   2:src/../h/riscv.h **** #define PROJEKAT_RISCV_H
   3:src/../h/riscv.h **** 
   4:src/../h/riscv.h **** #include "../lib/hw.h"
   5:src/../h/riscv.h **** 
   6:src/../h/riscv.h **** class Riscv
   7:src/../h/riscv.h **** {
   8:src/../h/riscv.h **** public:
   9:src/../h/riscv.h **** 
  10:src/../h/riscv.h ****     // pop sstatus.spp and sstatus.spie bits (has to be a non inline function)
  11:src/../h/riscv.h ****     static void popSppSpie();
  12:src/../h/riscv.h **** 
  13:src/../h/riscv.h ****     // push x3..x31 registers onto stack
  14:src/../h/riscv.h ****     static void pushRegisters();
  15:src/../h/riscv.h **** 
  16:src/../h/riscv.h ****     // pop x3..x31 registers onto stack
  17:src/../h/riscv.h ****     static void popRegisters();
  18:src/../h/riscv.h **** 
  19:src/../h/riscv.h ****     // read register scause
  20:src/../h/riscv.h ****     static uint64 r_scause();
  21:src/../h/riscv.h **** 
  22:src/../h/riscv.h ****     // write register scause
GAS LISTING /tmp/cco9o7EU.s 			page 2


  23:src/../h/riscv.h ****     static void w_scause(uint64 scause);
  24:src/../h/riscv.h **** 
  25:src/../h/riscv.h ****     // read register sepc
  26:src/../h/riscv.h ****     static uint64 r_sepc();
  27:src/../h/riscv.h **** 
  28:src/../h/riscv.h ****     // write register sepc
  29:src/../h/riscv.h ****     static void w_sepc(uint64 sepc);
  30:src/../h/riscv.h **** 
  31:src/../h/riscv.h ****     // read register stvec
  32:src/../h/riscv.h ****     static uint64 r_stvec();
  33:src/../h/riscv.h **** 
  34:src/../h/riscv.h ****     // write register stvec
  35:src/../h/riscv.h ****     static void w_stvec(uint64 stvec);
  36:src/../h/riscv.h **** 
  37:src/../h/riscv.h ****     // read register stval
  38:src/../h/riscv.h ****     static uint64 r_stval();
  39:src/../h/riscv.h **** 
  40:src/../h/riscv.h ****     // write register stval
  41:src/../h/riscv.h ****     static void w_stval(uint64 stval);
  42:src/../h/riscv.h **** 
  43:src/../h/riscv.h ****     enum BitMaskSip
  44:src/../h/riscv.h ****     {
  45:src/../h/riscv.h ****         SIP_SSIE = (1 << 1),
  46:src/../h/riscv.h ****         SIP_STIE = (1 << 5),
  47:src/../h/riscv.h ****         SIP_SEIE = (1 << 9),
  48:src/../h/riscv.h ****     };
  49:src/../h/riscv.h **** 
  50:src/../h/riscv.h ****     // mask set register sip
  51:src/../h/riscv.h ****     static void ms_sip(uint64 mask);
  52:src/../h/riscv.h **** 
  53:src/../h/riscv.h ****     // mask clear register sip
  54:src/../h/riscv.h ****     static void mc_sip(uint64 mask);
  55:src/../h/riscv.h **** 
  56:src/../h/riscv.h ****     // read register sip
  57:src/../h/riscv.h ****     static uint64 r_sip();
  58:src/../h/riscv.h **** 
  59:src/../h/riscv.h ****     // write register sip
  60:src/../h/riscv.h ****     static void w_sip(uint64 sip);
  61:src/../h/riscv.h **** 
  62:src/../h/riscv.h ****     enum BitMaskSstatus
  63:src/../h/riscv.h ****     {
  64:src/../h/riscv.h ****         SSTATUS_SIE = (1 << 1),
  65:src/../h/riscv.h ****         SSTATUS_SPIE = (1 << 5),
  66:src/../h/riscv.h ****         SSTATUS_SPP = (1 << 8),
  67:src/../h/riscv.h ****     };
  68:src/../h/riscv.h **** 
  69:src/../h/riscv.h ****     // mask set register sstatus
  70:src/../h/riscv.h ****     static void ms_sstatus(uint64 mask);
  71:src/../h/riscv.h **** 
  72:src/../h/riscv.h ****     // mask clear register sstatus
  73:src/../h/riscv.h ****     static void mc_sstatus(uint64 mask);
  74:src/../h/riscv.h **** 
  75:src/../h/riscv.h ****     // read register sstatus
  76:src/../h/riscv.h ****     static uint64 r_sstatus();
  77:src/../h/riscv.h **** 
  78:src/../h/riscv.h ****     // write register sstatus
  79:src/../h/riscv.h ****     static void w_sstatus(uint64 sstatus);
GAS LISTING /tmp/cco9o7EU.s 			page 3


  80:src/../h/riscv.h **** 
  81:src/../h/riscv.h **** private:
  82:src/../h/riscv.h **** 
  83:src/../h/riscv.h **** };
  84:src/../h/riscv.h **** 
  85:src/../h/riscv.h **** inline uint64 Riscv::r_scause()
  86:src/../h/riscv.h **** {
  87:src/../h/riscv.h ****     uint64 volatile scause;
  28              		.loc 2 87 5
  88:src/../h/riscv.h ****     __asm__ volatile ("csrr %[scause], scause" : [scause] "=r"(scause));
  29              		.loc 2 88 5
  30              		.loc 2 88 72 is_stmt 0
  31              	#APP
  32              	# 88 "src/../h/riscv.h" 1
  89              	    return scause;
  33              		csrr a5, scause
  34              	# 0 "" 2
  35              	#NO_APP
  36 0018 233CF4FC 		sd	a5,-40(s0)
  37              		.loc 2 89 5 is_stmt 1
  38              		.loc 2 89 12 is_stmt 0
  39 001c 033784FD 		ld	a4,-40(s0)
  40              	.LVL0:
  41              	.LBE30:
  42              	.LBE29:
  10:src/supervisorTrapHandler.cpp **** 
  11:src/supervisorTrapHandler.cpp ****     if(scause == 9) {
  43              		.loc 1 11 5 is_stmt 1
  44              	.LBB31:
  45 0020 93079000 		li	a5,9
  46 0024 6304F702 		beq	a4,a5,.L25
  12:src/supervisorTrapHandler.cpp ****         uint64 code;
  13:src/supervisorTrapHandler.cpp ****         __asm__ volatile("mv %0, x10" : "=r" (code));
  14:src/supervisorTrapHandler.cpp ****         switch (code) {
  15:src/supervisorTrapHandler.cpp ****             case MALLOC_CODE: { //mem_alloc
  16:src/supervisorTrapHandler.cpp ****                 size_t size;
  17:src/supervisorTrapHandler.cpp ****                 __asm__ volatile("mv %0, x11" : "=r" (size));
  18:src/supervisorTrapHandler.cpp ****                 MemoryAllocator::mem_alloc(size);
  19:src/supervisorTrapHandler.cpp ****                 /* VRATI POKAZIVAC IDIOTE*/
  20:src/supervisorTrapHandler.cpp ****             }break;
  21:src/supervisorTrapHandler.cpp **** 
  22:src/supervisorTrapHandler.cpp ****             case MFREE_CODE: { //mem_free
  23:src/supervisorTrapHandler.cpp ****                 void *ptr;
  24:src/supervisorTrapHandler.cpp ****                 __asm__ volatile("mv %0, x11" : "=r" (ptr));
  25:src/supervisorTrapHandler.cpp ****                 MemoryAllocator::mem_free(ptr);
  26:src/supervisorTrapHandler.cpp ****             }break;
  27:src/supervisorTrapHandler.cpp **** 
  28:src/supervisorTrapHandler.cpp ****             case TCREATE_CODE: { //thread_create
  29:src/supervisorTrapHandler.cpp ****                 PCB** handle;
  30:src/supervisorTrapHandler.cpp ****                 void (*start_routine)(void *);
  31:src/supervisorTrapHandler.cpp ****                 void *arg;
  32:src/supervisorTrapHandler.cpp ****                 uint64 *stack;
  33:src/supervisorTrapHandler.cpp ****                 //int ret = -1;
  34:src/supervisorTrapHandler.cpp **** 
  35:src/supervisorTrapHandler.cpp ****                 __asm__ volatile("mv %0, x11" : "=r" (handle));
  36:src/supervisorTrapHandler.cpp ****                 __asm__ volatile("mv %0, x12" : "=r" (start_routine));
  37:src/supervisorTrapHandler.cpp ****                 __asm__ volatile("mv %0, x13" : "=r" (arg));
GAS LISTING /tmp/cco9o7EU.s 			page 4


  38:src/supervisorTrapHandler.cpp ****                 __asm__ volatile("mv %0, x17" : "=r" (stack));
  39:src/supervisorTrapHandler.cpp **** 
  40:src/supervisorTrapHandler.cpp ****                 *handle = PCB::createProcess(start_routine, stack, arg, true);
  41:src/supervisorTrapHandler.cpp ****             }break;
  42:src/supervisorTrapHandler.cpp **** 
  43:src/supervisorTrapHandler.cpp ****             case TDISPATCH_CODE: { //thread_dispatch
  44:src/supervisorTrapHandler.cpp ****                 PCB::yield(); //mozda treba dispatch
  45:src/supervisorTrapHandler.cpp ****             }break;
  46:src/supervisorTrapHandler.cpp **** 
  47:src/supervisorTrapHandler.cpp ****             case TEXIT_CODE: { //thread_exit
  48:src/supervisorTrapHandler.cpp ****                 PCB::running->setFinished(true);
  49:src/supervisorTrapHandler.cpp ****                 PCB::yield();
  50:src/supervisorTrapHandler.cpp **** 
  51:src/supervisorTrapHandler.cpp ****             } break;
  52:src/supervisorTrapHandler.cpp **** 
  53:src/supervisorTrapHandler.cpp ****             case SOPEN_CODE: {
  54:src/supervisorTrapHandler.cpp ****                 Sem** handle;
  55:src/supervisorTrapHandler.cpp ****                 uint32 init;
  56:src/supervisorTrapHandler.cpp **** 
  57:src/supervisorTrapHandler.cpp ****                 __asm__ volatile("mv %0, x11" : "=r" (handle));
  58:src/supervisorTrapHandler.cpp ****                 __asm__ volatile("mv %0, x12" : "=r" (init));
  59:src/supervisorTrapHandler.cpp **** 
  60:src/supervisorTrapHandler.cpp ****                 *handle = Sem::createSemaphore(init);
  61:src/supervisorTrapHandler.cpp ****             } break;
  62:src/supervisorTrapHandler.cpp **** 
  63:src/supervisorTrapHandler.cpp ****             case SCLOSE_CODE: {
  64:src/supervisorTrapHandler.cpp ****                 Sem* handle;
  65:src/supervisorTrapHandler.cpp **** 
  66:src/supervisorTrapHandler.cpp ****                 __asm__ volatile("mv %0, x11" : "=r" (handle));
  67:src/supervisorTrapHandler.cpp **** 
  68:src/supervisorTrapHandler.cpp ****                 Sem::deleteSemaphore(handle);
  69:src/supervisorTrapHandler.cpp ****             } break;
  70:src/supervisorTrapHandler.cpp **** 
  71:src/supervisorTrapHandler.cpp ****             case SWAIT_CODE: {
  72:src/supervisorTrapHandler.cpp ****                 Sem* handle; int ret = -1;
  73:src/supervisorTrapHandler.cpp **** 
  74:src/supervisorTrapHandler.cpp ****                 __asm__ volatile("mv %0, x11" : "=r" (handle));
  75:src/supervisorTrapHandler.cpp **** 
  76:src/supervisorTrapHandler.cpp ****                 if(handle->isActive()) {
  77:src/supervisorTrapHandler.cpp ****                     handle->wait();
  78:src/supervisorTrapHandler.cpp ****                     ret = 0;
  79:src/supervisorTrapHandler.cpp ****                 }
  80:src/supervisorTrapHandler.cpp **** 
  81:src/supervisorTrapHandler.cpp ****                 __asm__ volatile("mv x10, %0" : : "r" (ret));
  82:src/supervisorTrapHandler.cpp ****             } break;
  83:src/supervisorTrapHandler.cpp **** 
  84:src/supervisorTrapHandler.cpp ****             case SSIGNAL_CODE: {
  85:src/supervisorTrapHandler.cpp ****                 Sem* handle; int ret = -1;
  86:src/supervisorTrapHandler.cpp **** 
  87:src/supervisorTrapHandler.cpp ****                 __asm__ volatile("mv %0, x11" : "=r" (handle));
  88:src/supervisorTrapHandler.cpp **** 
  89:src/supervisorTrapHandler.cpp ****                 if(handle->isActive()) {
  90:src/supervisorTrapHandler.cpp ****                     handle->signal();
  91:src/supervisorTrapHandler.cpp ****                     ret = 0;
  92:src/supervisorTrapHandler.cpp ****                 }
  93:src/supervisorTrapHandler.cpp **** 
  94:src/supervisorTrapHandler.cpp ****                 __asm__ volatile("mv x10, %0" : : "r" (ret));
GAS LISTING /tmp/cco9o7EU.s 			page 5


  95:src/supervisorTrapHandler.cpp ****             }
  96:src/supervisorTrapHandler.cpp **** 
  97:src/supervisorTrapHandler.cpp ****             case CGETC_CODE: {
  98:src/supervisorTrapHandler.cpp ****                 char c = __getc();
  99:src/supervisorTrapHandler.cpp **** 
 100:src/supervisorTrapHandler.cpp ****                 __asm__ volatile("mv x10, %0" : : "r" (c));
 101:src/supervisorTrapHandler.cpp ****             } break;
 102:src/supervisorTrapHandler.cpp **** 
 103:src/supervisorTrapHandler.cpp ****             case CPUTC_CODE: {
 104:src/supervisorTrapHandler.cpp ****                 char c;
 105:src/supervisorTrapHandler.cpp **** 
 106:src/supervisorTrapHandler.cpp ****                 __asm__ volatile("mv %0, x11" : "=r" (c));
 107:src/supervisorTrapHandler.cpp **** 
 108:src/supervisorTrapHandler.cpp ****                 __putc(c);
 109:src/supervisorTrapHandler.cpp ****             } break;
 110:src/supervisorTrapHandler.cpp **** 
 111:src/supervisorTrapHandler.cpp ****             case TALLOC_CODE: {
 112:src/supervisorTrapHandler.cpp ****                 PCB** handle;
 113:src/supervisorTrapHandler.cpp ****                 void (*start_routine)(void *);
 114:src/supervisorTrapHandler.cpp ****                 void *arg;
 115:src/supervisorTrapHandler.cpp ****                 uint64 *stack;
 116:src/supervisorTrapHandler.cpp ****                 //int ret = -1;
 117:src/supervisorTrapHandler.cpp **** 
 118:src/supervisorTrapHandler.cpp ****                 __asm__ volatile("mv %0, x11" : "=r" (handle));
 119:src/supervisorTrapHandler.cpp ****                 __asm__ volatile("mv %0, x12" : "=r" (start_routine));
 120:src/supervisorTrapHandler.cpp ****                 __asm__ volatile("mv %0, x13" : "=r" (arg));
 121:src/supervisorTrapHandler.cpp ****                 __asm__ volatile("mv %0, x17" : "=r" (stack));
 122:src/supervisorTrapHandler.cpp **** 
 123:src/supervisorTrapHandler.cpp ****                 *handle = PCB::createProcess(start_routine, stack, arg, false);
 124:src/supervisorTrapHandler.cpp ****             } break;
 125:src/supervisorTrapHandler.cpp **** 
 126:src/supervisorTrapHandler.cpp ****             case TSCHEDULER_CODE: {
 127:src/supervisorTrapHandler.cpp ****                 thread_t handle;
 128:src/supervisorTrapHandler.cpp ****                 __asm__ volatile("mv %0, x11" : "=r" (handle));
 129:src/supervisorTrapHandler.cpp ****                 Scheduler::put(handle); /* mozda treba proveriti da li je body null*/
 130:src/supervisorTrapHandler.cpp ****             } break;
 131:src/supervisorTrapHandler.cpp **** 
 132:src/supervisorTrapHandler.cpp ****             default:
 133:src/supervisorTrapHandler.cpp ****                 break;
 134:src/supervisorTrapHandler.cpp ****         }
 135:src/supervisorTrapHandler.cpp ****     }
 136:src/supervisorTrapHandler.cpp **** 
 137:src/supervisorTrapHandler.cpp ****     else if(scause == (1UL << 63 | 9)) { //spoljasnji hardverski prekid
  47              		.loc 1 137 10
  48 0028 9307F0FF 		li	a5,-1
  49 002c 9397F703 		slli	a5,a5,63
  50 0030 93879700 		addi	a5,a5,9
  51 0034 630CF71A 		beq	a4,a5,.L26
  52              	.LVL1:
  53              	.L1:
  54              	.LBE31:
 138:src/supervisorTrapHandler.cpp ****         console_handler();
 139:src/supervisorTrapHandler.cpp ****     }
 140:src/supervisorTrapHandler.cpp **** }
  55              		.loc 1 140 1 is_stmt 0
  56 0038 83308102 		ld	ra,40(sp)
  57              		.cfi_remember_state
GAS LISTING /tmp/cco9o7EU.s 			page 6


  58              		.cfi_restore 1
  59 003c 03340102 		ld	s0,32(sp)
  60              		.cfi_restore 8
  61              		.cfi_def_cfa 2, 48
  62 0040 83348101 		ld	s1,24(sp)
  63              		.cfi_restore 9
  64 0044 13010103 		addi	sp,sp,48
  65              		.cfi_def_cfa_offset 0
  66 0048 67800000 		jr	ra
  67              	.LVL2:
  68              	.L25:
  69              		.cfi_restore_state
  70              	.LBB63:
  71              	.LBB32:
  12:src/supervisorTrapHandler.cpp ****         uint64 code;
  72              		.loc 1 12 9 is_stmt 1
  13:src/supervisorTrapHandler.cpp ****         switch (code) {
  73              		.loc 1 13 9
  13:src/supervisorTrapHandler.cpp ****         switch (code) {
  74              		.loc 1 13 53 is_stmt 0
  75              	#APP
  76              	# 13 "src/supervisorTrapHandler.cpp" 1
  77              		mv a5, x10
  78              	# 0 "" 2
  79              	.LVL3:
  14:src/supervisorTrapHandler.cpp ****             case MALLOC_CODE: { //mem_alloc
  80              		.loc 1 14 9 is_stmt 1
  81              	#NO_APP
  82 0050 13072004 		li	a4,66
  83              	.LVL4:
  84 0054 E362F7FE 		bgtu	a5,a4,.L1
  85 0058 93972700 		slli	a5,a5,2
  86              	.LVL5:
  87 005c 17070000 		lla	a4,.L5
  87      13070700 
  88 0064 B387E700 		add	a5,a5,a4
  89 0068 83A70700 		lw	a5,0(a5)
  90 006c B387E700 		add	a5,a5,a4
  91 0070 67800700 		jr	a5
  92              		.section	.rodata
  93              		.align	2
  94              		.align	2
  95              	.L5:
  96 0000 00000000 		.word	.L1-.L5
  97 0004 00000000 		.word	.L17-.L5
  98 0008 00000000 		.word	.L16-.L5
  99 000c 00000000 		.word	.L1-.L5
 100 0010 00000000 		.word	.L1-.L5
 101 0014 00000000 		.word	.L1-.L5
 102 0018 00000000 		.word	.L1-.L5
 103 001c 00000000 		.word	.L1-.L5
 104 0020 00000000 		.word	.L1-.L5
 105 0024 00000000 		.word	.L1-.L5
 106 0028 00000000 		.word	.L1-.L5
 107 002c 00000000 		.word	.L1-.L5
 108 0030 00000000 		.word	.L1-.L5
 109 0034 00000000 		.word	.L1-.L5
GAS LISTING /tmp/cco9o7EU.s 			page 7


 110 0038 00000000 		.word	.L1-.L5
 111 003c 00000000 		.word	.L1-.L5
 112 0040 00000000 		.word	.L1-.L5
 113 0044 00000000 		.word	.L15-.L5
 114 0048 00000000 		.word	.L14-.L5
 115 004c 00000000 		.word	.L13-.L5
 116 0050 00000000 		.word	.L12-.L5
 117 0054 00000000 		.word	.L11-.L5
 118 0058 00000000 		.word	.L1-.L5
 119 005c 00000000 		.word	.L1-.L5
 120 0060 00000000 		.word	.L1-.L5
 121 0064 00000000 		.word	.L1-.L5
 122 0068 00000000 		.word	.L1-.L5
 123 006c 00000000 		.word	.L1-.L5
 124 0070 00000000 		.word	.L1-.L5
 125 0074 00000000 		.word	.L1-.L5
 126 0078 00000000 		.word	.L1-.L5
 127 007c 00000000 		.word	.L1-.L5
 128 0080 00000000 		.word	.L1-.L5
 129 0084 00000000 		.word	.L10-.L5
 130 0088 00000000 		.word	.L9-.L5
 131 008c 00000000 		.word	.L8-.L5
 132 0090 00000000 		.word	.L7-.L5
 133 0094 00000000 		.word	.L1-.L5
 134 0098 00000000 		.word	.L1-.L5
 135 009c 00000000 		.word	.L1-.L5
 136 00a0 00000000 		.word	.L1-.L5
 137 00a4 00000000 		.word	.L1-.L5
 138 00a8 00000000 		.word	.L1-.L5
 139 00ac 00000000 		.word	.L1-.L5
 140 00b0 00000000 		.word	.L1-.L5
 141 00b4 00000000 		.word	.L1-.L5
 142 00b8 00000000 		.word	.L1-.L5
 143 00bc 00000000 		.word	.L1-.L5
 144 00c0 00000000 		.word	.L1-.L5
 145 00c4 00000000 		.word	.L1-.L5
 146 00c8 00000000 		.word	.L1-.L5
 147 00cc 00000000 		.word	.L1-.L5
 148 00d0 00000000 		.word	.L1-.L5
 149 00d4 00000000 		.word	.L1-.L5
 150 00d8 00000000 		.word	.L1-.L5
 151 00dc 00000000 		.word	.L1-.L5
 152 00e0 00000000 		.word	.L1-.L5
 153 00e4 00000000 		.word	.L1-.L5
 154 00e8 00000000 		.word	.L1-.L5
 155 00ec 00000000 		.word	.L1-.L5
 156 00f0 00000000 		.word	.L1-.L5
 157 00f4 00000000 		.word	.L1-.L5
 158 00f8 00000000 		.word	.L1-.L5
 159 00fc 00000000 		.word	.L1-.L5
 160 0100 00000000 		.word	.L1-.L5
 161 0104 00000000 		.word	.L6-.L5
 162 0108 00000000 		.word	.L4-.L5
 163              		.text
 164              	.L17:
 165              	.LBB33:
  15:src/supervisorTrapHandler.cpp ****                 size_t size;
GAS LISTING /tmp/cco9o7EU.s 			page 8


 166              		.loc 1 15 13
  15:src/supervisorTrapHandler.cpp ****                 size_t size;
 167              		.loc 1 15 31
 168              	.LBB34:
  16:src/supervisorTrapHandler.cpp ****                 __asm__ volatile("mv %0, x11" : "=r" (size));
 169              		.loc 1 16 17
  17:src/supervisorTrapHandler.cpp ****                 MemoryAllocator::mem_alloc(size);
 170              		.loc 1 17 17
  17:src/supervisorTrapHandler.cpp ****                 MemoryAllocator::mem_alloc(size);
 171              		.loc 1 17 61 is_stmt 0
 172              	#APP
 173              	# 17 "src/supervisorTrapHandler.cpp" 1
 174              		mv a0, x11
 175              	# 0 "" 2
 176              	.LVL6:
  18:src/supervisorTrapHandler.cpp ****                 /* VRATI POKAZIVAC IDIOTE*/
 177              		.loc 1 18 17 is_stmt 1
  18:src/supervisorTrapHandler.cpp ****                 /* VRATI POKAZIVAC IDIOTE*/
 178              		.loc 1 18 43 is_stmt 0
 179              	#NO_APP
 180 0078 97000000 		call	_ZN15MemoryAllocator9mem_allocEm@plt
 180      E7800000 
 181              	.LVL7:
 182              	.LBE34:
  20:src/supervisorTrapHandler.cpp **** 
 183              		.loc 1 20 14 is_stmt 1
 184 0080 6FF09FFB 		j	.L1
 185              	.L16:
  22:src/supervisorTrapHandler.cpp ****                 void *ptr;
 186              		.loc 1 22 13
  22:src/supervisorTrapHandler.cpp ****                 void *ptr;
 187              		.loc 1 22 30
 188              	.LBB35:
  23:src/supervisorTrapHandler.cpp ****                 __asm__ volatile("mv %0, x11" : "=r" (ptr));
 189              		.loc 1 23 17
  24:src/supervisorTrapHandler.cpp ****                 MemoryAllocator::mem_free(ptr);
 190              		.loc 1 24 17
  24:src/supervisorTrapHandler.cpp ****                 MemoryAllocator::mem_free(ptr);
 191              		.loc 1 24 60 is_stmt 0
 192              	#APP
 193              	# 24 "src/supervisorTrapHandler.cpp" 1
 194              		mv a0, x11
 195              	# 0 "" 2
 196              	.LVL8:
  25:src/supervisorTrapHandler.cpp ****             }break;
 197              		.loc 1 25 17 is_stmt 1
  25:src/supervisorTrapHandler.cpp ****             }break;
 198              		.loc 1 25 42 is_stmt 0
 199              	#NO_APP
 200 0088 97000000 		call	_ZN15MemoryAllocator8mem_freeEPv@plt
 200      E7800000 
 201              	.LVL9:
 202              	.LBE35:
  26:src/supervisorTrapHandler.cpp **** 
 203              		.loc 1 26 14 is_stmt 1
 204 0090 6FF09FFA 		j	.L1
 205              	.L15:
GAS LISTING /tmp/cco9o7EU.s 			page 9


  28:src/supervisorTrapHandler.cpp ****                 PCB** handle;
 206              		.loc 1 28 13
  28:src/supervisorTrapHandler.cpp ****                 PCB** handle;
 207              		.loc 1 28 32
 208              	.LBB36:
  29:src/supervisorTrapHandler.cpp ****                 void (*start_routine)(void *);
 209              		.loc 1 29 17
  30:src/supervisorTrapHandler.cpp ****                 void *arg;
 210              		.loc 1 30 17
  31:src/supervisorTrapHandler.cpp ****                 uint64 *stack;
 211              		.loc 1 31 17
  32:src/supervisorTrapHandler.cpp ****                 //int ret = -1;
 212              		.loc 1 32 17
  35:src/supervisorTrapHandler.cpp ****                 __asm__ volatile("mv %0, x12" : "=r" (start_routine));
 213              		.loc 1 35 17
  35:src/supervisorTrapHandler.cpp ****                 __asm__ volatile("mv %0, x12" : "=r" (start_routine));
 214              		.loc 1 35 63 is_stmt 0
 215              	#APP
 216              	# 35 "src/supervisorTrapHandler.cpp" 1
 217              		mv s1, x11
 218              	# 0 "" 2
 219              	.LVL10:
  36:src/supervisorTrapHandler.cpp ****                 __asm__ volatile("mv %0, x13" : "=r" (arg));
 220              		.loc 1 36 17 is_stmt 1
  36:src/supervisorTrapHandler.cpp ****                 __asm__ volatile("mv %0, x13" : "=r" (arg));
 221              		.loc 1 36 70 is_stmt 0
 222              	# 36 "src/supervisorTrapHandler.cpp" 1
 223              		mv a0, x12
 224              	# 0 "" 2
 225              	.LVL11:
  37:src/supervisorTrapHandler.cpp ****                 __asm__ volatile("mv %0, x17" : "=r" (stack));
 226              		.loc 1 37 17 is_stmt 1
  37:src/supervisorTrapHandler.cpp ****                 __asm__ volatile("mv %0, x17" : "=r" (stack));
 227              		.loc 1 37 60 is_stmt 0
 228              	# 37 "src/supervisorTrapHandler.cpp" 1
 229              		mv a2, x13
 230              	# 0 "" 2
 231              	.LVL12:
  38:src/supervisorTrapHandler.cpp **** 
 232              		.loc 1 38 17 is_stmt 1
  38:src/supervisorTrapHandler.cpp **** 
 233              		.loc 1 38 62 is_stmt 0
 234              	# 38 "src/supervisorTrapHandler.cpp" 1
 235              		mv a1, x17
 236              	# 0 "" 2
 237              	.LVL13:
  40:src/supervisorTrapHandler.cpp ****             }break;
 238              		.loc 1 40 17 is_stmt 1
  40:src/supervisorTrapHandler.cpp ****             }break;
 239              		.loc 1 40 45 is_stmt 0
 240              	#NO_APP
 241 00a4 93061000 		li	a3,1
 242 00a8 97000000 		call	_ZN3PCB13createProcessEPFvPvEPmS0_b@plt
 242      E7800000 
 243              	.LVL14:
  40:src/supervisorTrapHandler.cpp ****             }break;
 244              		.loc 1 40 25
GAS LISTING /tmp/cco9o7EU.s 			page 10


 245 00b0 23B0A400 		sd	a0,0(s1)
 246              	.LBE36:
  41:src/supervisorTrapHandler.cpp **** 
 247              		.loc 1 41 14 is_stmt 1
 248 00b4 6FF05FF8 		j	.L1
 249              	.LVL15:
 250              	.L13:
  43:src/supervisorTrapHandler.cpp ****                 PCB::yield(); //mozda treba dispatch
 251              		.loc 1 43 13
  43:src/supervisorTrapHandler.cpp ****                 PCB::yield(); //mozda treba dispatch
 252              		.loc 1 43 34
  44:src/supervisorTrapHandler.cpp ****             }break;
 253              		.loc 1 44 17
  44:src/supervisorTrapHandler.cpp ****             }break;
 254              		.loc 1 44 27 is_stmt 0
 255 00b8 97000000 		call	_ZN3PCB5yieldEv@plt
 255      E7800000 
 256              	.LVL16:
  45:src/supervisorTrapHandler.cpp **** 
 257              		.loc 1 45 14 is_stmt 1
 258 00c0 6FF09FF7 		j	.L1
 259              	.L14:
  47:src/supervisorTrapHandler.cpp ****                 PCB::running->setFinished(true);
 260              		.loc 1 47 13
  47:src/supervisorTrapHandler.cpp ****                 PCB::running->setFinished(true);
 261              		.loc 1 47 30
  48:src/supervisorTrapHandler.cpp ****                 PCB::yield();
 262              		.loc 1 48 17
  48:src/supervisorTrapHandler.cpp ****                 PCB::yield();
 263              		.loc 1 48 42 is_stmt 0
 264 00c4 97070000 		la	a5,_ZN3PCB7runningE
 264      83B70700 
 265 00cc 83B70700 		ld	a5,0(a5)
 266              	.LVL17:
 267              	.LBB37:
 268              	.LBB38:
 269              		.file 3 "src/../h/pcb.h"
   1:src/../h/pcb.h **** #ifndef PROJEKAT_PCB_H
   2:src/../h/pcb.h **** #define PROJEKAT_PCB_H
   3:src/../h/pcb.h **** 
   4:src/../h/pcb.h **** #include "../lib/hw.h"
   5:src/../h/pcb.h **** #include "scheduler.h"
   6:src/../h/pcb.h **** #include "syscall_c.h"
   7:src/../h/pcb.h **** 
   8:src/../h/pcb.h **** class PCB
   9:src/../h/pcb.h **** {
  10:src/../h/pcb.h **** public:
  11:src/../h/pcb.h ****     ~PCB() { delete[] stack; }
  12:src/../h/pcb.h **** 
  13:src/../h/pcb.h ****     bool isFinished() const { return finished; }
  14:src/../h/pcb.h **** 
  15:src/../h/pcb.h ****     void setFinished(bool value) { finished = value; }
 270              		.loc 3 15 36 is_stmt 1
 271              		.loc 3 15 45 is_stmt 0
 272 00d0 13071000 		li	a4,1
 273 00d4 2384E702 		sb	a4,40(a5)
 274              	.LVL18:
GAS LISTING /tmp/cco9o7EU.s 			page 11


 275              	.LBE38:
 276              	.LBE37:
  49:src/supervisorTrapHandler.cpp **** 
 277              		.loc 1 49 17 is_stmt 1
  49:src/supervisorTrapHandler.cpp **** 
 278              		.loc 1 49 27 is_stmt 0
 279 00d8 97000000 		call	_ZN3PCB5yieldEv@plt
 279      E7800000 
 280              	.LVL19:
  51:src/supervisorTrapHandler.cpp **** 
 281              		.loc 1 51 15 is_stmt 1
 282 00e0 6FF09FF5 		j	.L1
 283              	.L10:
  53:src/supervisorTrapHandler.cpp ****                 Sem** handle;
 284              		.loc 1 53 13
  53:src/supervisorTrapHandler.cpp ****                 Sem** handle;
 285              		.loc 1 53 30
 286              	.LBB39:
  54:src/supervisorTrapHandler.cpp ****                 uint32 init;
 287              		.loc 1 54 17
  55:src/supervisorTrapHandler.cpp **** 
 288              		.loc 1 55 17
  57:src/supervisorTrapHandler.cpp ****                 __asm__ volatile("mv %0, x12" : "=r" (init));
 289              		.loc 1 57 17
  57:src/supervisorTrapHandler.cpp ****                 __asm__ volatile("mv %0, x12" : "=r" (init));
 290              		.loc 1 57 63 is_stmt 0
 291              	#APP
 292              	# 57 "src/supervisorTrapHandler.cpp" 1
 293              		mv s1, x11
 294              	# 0 "" 2
 295              	.LVL20:
  58:src/supervisorTrapHandler.cpp **** 
 296              		.loc 1 58 17 is_stmt 1
  58:src/supervisorTrapHandler.cpp **** 
 297              		.loc 1 58 61 is_stmt 0
 298              	# 58 "src/supervisorTrapHandler.cpp" 1
 299              		mv a0, x12
 300              	# 0 "" 2
 301              	.LVL21:
  60:src/supervisorTrapHandler.cpp ****             } break;
 302              		.loc 1 60 17 is_stmt 1
  60:src/supervisorTrapHandler.cpp ****             } break;
 303              		.loc 1 60 47 is_stmt 0
 304              	#NO_APP
 305 00ec 1B050500 		sext.w	a0,a0
 306 00f0 97000000 		call	_ZN3Sem15createSemaphoreEj@plt
 306      E7800000 
 307              	.LVL22:
  60:src/supervisorTrapHandler.cpp ****             } break;
 308              		.loc 1 60 25
 309 00f8 23B0A400 		sd	a0,0(s1)
 310              	.LBE39:
  61:src/supervisorTrapHandler.cpp **** 
 311              		.loc 1 61 15 is_stmt 1
 312 00fc 6FF0DFF3 		j	.L1
 313              	.LVL23:
 314              	.L9:
GAS LISTING /tmp/cco9o7EU.s 			page 12


  63:src/supervisorTrapHandler.cpp ****                 Sem* handle;
 315              		.loc 1 63 13
  63:src/supervisorTrapHandler.cpp ****                 Sem* handle;
 316              		.loc 1 63 31
 317              	.LBB40:
  64:src/supervisorTrapHandler.cpp **** 
 318              		.loc 1 64 17
  66:src/supervisorTrapHandler.cpp **** 
 319              		.loc 1 66 17
  66:src/supervisorTrapHandler.cpp **** 
 320              		.loc 1 66 63 is_stmt 0
 321              	#APP
 322              	# 66 "src/supervisorTrapHandler.cpp" 1
 323              		mv a0, x11
 324              	# 0 "" 2
 325              	.LVL24:
  68:src/supervisorTrapHandler.cpp ****             } break;
 326              		.loc 1 68 17 is_stmt 1
  68:src/supervisorTrapHandler.cpp ****             } break;
 327              		.loc 1 68 37 is_stmt 0
 328              	#NO_APP
 329 0104 97000000 		call	_ZN3Sem15deleteSemaphoreEPS_@plt
 329      E7800000 
 330              	.LVL25:
 331              	.LBE40:
  69:src/supervisorTrapHandler.cpp **** 
 332              		.loc 1 69 15 is_stmt 1
 333 010c 6FF0DFF2 		j	.L1
 334              	.L8:
  71:src/supervisorTrapHandler.cpp ****                 Sem* handle; int ret = -1;
 335              		.loc 1 71 13
  71:src/supervisorTrapHandler.cpp ****                 Sem* handle; int ret = -1;
 336              		.loc 1 71 30
 337              	.LBB41:
  72:src/supervisorTrapHandler.cpp **** 
 338              		.loc 1 72 17
  72:src/supervisorTrapHandler.cpp **** 
 339              		.loc 1 72 30
 340              	.LVL26:
  74:src/supervisorTrapHandler.cpp **** 
 341              		.loc 1 74 17
  74:src/supervisorTrapHandler.cpp **** 
 342              		.loc 1 74 63 is_stmt 0
 343              	#APP
 344              	# 74 "src/supervisorTrapHandler.cpp" 1
 345              		mv a0, x11
 346              	# 0 "" 2
 347              	.LVL27:
  76:src/supervisorTrapHandler.cpp ****                     handle->wait();
 348              		.loc 1 76 17 is_stmt 1
 349              	#NO_APP
 350              	.LBB42:
 351              	.LBB43:
 352              		.file 4 "src/../h/sem.h"
   1:src/../h/sem.h **** #ifndef PROJEKAT_SEM_H
   2:src/../h/sem.h **** #define PROJEKAT_SEM_H
   3:src/../h/sem.h **** 
GAS LISTING /tmp/cco9o7EU.s 			page 13


   4:src/../h/sem.h **** #include "../lib/hw.h"
   5:src/../h/sem.h **** #include "pcb.h"
   6:src/../h/sem.h **** #include "queue.h"
   7:src/../h/sem.h **** #include "../h/syscall_c.h"
   8:src/../h/sem.h **** 
   9:src/../h/sem.h **** 
  10:src/../h/sem.h **** class Sem {
  11:src/../h/sem.h **** private:
  12:src/../h/sem.h ****     int val;
  13:src/../h/sem.h ****     bool active;
  14:src/../h/sem.h ****     Queue<PCB*> blocked;
  15:src/../h/sem.h **** 
  16:src/../h/sem.h ****     Sem(uint32 init = 1) : val(init), active(true) {}
  17:src/../h/sem.h **** 
  18:src/../h/sem.h **** protected:
  19:src/../h/sem.h ****     void block();
  20:src/../h/sem.h **** 
  21:src/../h/sem.h ****     void unblock();
  22:src/../h/sem.h **** 
  23:src/../h/sem.h ****     void setActive(bool val) { active = val; }
  24:src/../h/sem.h **** 
  25:src/../h/sem.h **** public:
  26:src/../h/sem.h ****     void wait() { if(--val < 0) block(); }
  27:src/../h/sem.h **** 
  28:src/../h/sem.h ****     void signal() { if(++val <= 0) unblock(); }
  29:src/../h/sem.h **** 
  30:src/../h/sem.h ****     static Sem* createSemaphore(uint32 init);
  31:src/../h/sem.h **** 
  32:src/../h/sem.h ****     static void deleteSemaphore(sem_t handle);
  33:src/../h/sem.h **** 
  34:src/../h/sem.h ****     bool isActive() { return active; }
 353              		.loc 4 34 23
 354              		.loc 4 34 30 is_stmt 0
 355 0114 83474500 		lbu	a5,4(a0)
 356              	.LVL28:
 357              	.LBE43:
 358              	.LBE42:
  76:src/supervisorTrapHandler.cpp ****                     handle->wait();
 359              		.loc 1 76 17
 360 0118 63880702 		beqz	a5,.L20
  77:src/supervisorTrapHandler.cpp ****                     ret = 0;
 361              		.loc 1 77 21 is_stmt 1
 362              	.LVL29:
 363              	.LBB44:
 364              	.LBB45:
  26:src/../h/sem.h **** 
 365              		.loc 4 26 19
  26:src/../h/sem.h **** 
 366              		.loc 4 26 24 is_stmt 0
 367 011c 83270500 		lw	a5,0(a0)
  26:src/../h/sem.h **** 
 368              		.loc 4 26 22
 369 0120 9B87F7FF 		addiw	a5,a5,-1
  26:src/../h/sem.h **** 
 370              		.loc 4 26 28
 371 0124 2320F500 		sw	a5,0(a0)
  26:src/../h/sem.h **** 
GAS LISTING /tmp/cco9o7EU.s 			page 14


 372              		.loc 4 26 19
 373 0128 13970702 		slli	a4,a5,32
 374 012c 63460700 		bltz	a4,.L27
 375              	.LBE45:
 376              	.LBE44:
  78:src/supervisorTrapHandler.cpp ****                 }
 377              		.loc 1 78 25
 378 0130 93070000 		li	a5,0
 379 0134 6F008001 		j	.L18
 380              	.L27:
 381              	.LBB48:
 382              	.LBB46:
  26:src/../h/sem.h **** 
 383              		.loc 4 26 33 is_stmt 1
  26:src/../h/sem.h **** 
 384              		.loc 4 26 38 is_stmt 0
 385 0138 97000000 		call	_ZN3Sem5blockEv@plt
 385      E7800000 
 386              	.LVL30:
 387              	.LBE46:
 388              	.LBE48:
  78:src/supervisorTrapHandler.cpp ****                 }
 389              		.loc 1 78 25
 390 0140 93070000 		li	a5,0
 391              	.LBB49:
 392              	.LBB47:
 393 0144 6F008000 		j	.L18
 394              	.LVL31:
 395              	.L20:
 396              	.LBE47:
 397              	.LBE49:
  72:src/supervisorTrapHandler.cpp **** 
 398              		.loc 1 72 34
 399 0148 9307F0FF 		li	a5,-1
 400              	.LVL32:
 401              	.L18:
  81:src/supervisorTrapHandler.cpp ****             } break;
 402              		.loc 1 81 17 is_stmt 1
  81:src/supervisorTrapHandler.cpp ****             } break;
 403              		.loc 1 81 61 is_stmt 0
 404              	#APP
 405              	# 81 "src/supervisorTrapHandler.cpp" 1
 406              		mv x10, a5
 407              	# 0 "" 2
 408              	#NO_APP
 409              	.LBE41:
  82:src/supervisorTrapHandler.cpp **** 
 410              		.loc 1 82 15 is_stmt 1
 411 0150 6FF09FEE 		j	.L1
 412              	.LVL33:
 413              	.L7:
  84:src/supervisorTrapHandler.cpp ****                 Sem* handle; int ret = -1;
 414              		.loc 1 84 13
  84:src/supervisorTrapHandler.cpp ****                 Sem* handle; int ret = -1;
 415              		.loc 1 84 32
 416              	.LBB50:
  85:src/supervisorTrapHandler.cpp **** 
GAS LISTING /tmp/cco9o7EU.s 			page 15


 417              		.loc 1 85 17
  85:src/supervisorTrapHandler.cpp **** 
 418              		.loc 1 85 30
  87:src/supervisorTrapHandler.cpp **** 
 419              		.loc 1 87 17
  87:src/supervisorTrapHandler.cpp **** 
 420              		.loc 1 87 63 is_stmt 0
 421              	#APP
 422              	# 87 "src/supervisorTrapHandler.cpp" 1
 423              		mv a0, x11
 424              	# 0 "" 2
 425              	.LVL34:
  89:src/supervisorTrapHandler.cpp ****                     handle->signal();
 426              		.loc 1 89 17 is_stmt 1
 427              	#NO_APP
 428              	.LBB51:
 429              	.LBB52:
 430              		.loc 4 34 23
 431              		.loc 4 34 30 is_stmt 0
 432 0158 83474500 		lbu	a5,4(a0)
 433              	.LVL35:
 434              	.LBE52:
 435              	.LBE51:
  89:src/supervisorTrapHandler.cpp ****                     handle->signal();
 436              		.loc 1 89 17
 437 015c 63880702 		beqz	a5,.L22
  90:src/supervisorTrapHandler.cpp ****                     ret = 0;
 438              		.loc 1 90 21 is_stmt 1
 439              	.LVL36:
 440              	.LBB53:
 441              	.LBB54:
  28:src/../h/sem.h **** 
 442              		.loc 4 28 21
  28:src/../h/sem.h **** 
 443              		.loc 4 28 26 is_stmt 0
 444 0160 83270500 		lw	a5,0(a0)
  28:src/../h/sem.h **** 
 445              		.loc 4 28 24
 446 0164 9B871700 		addiw	a5,a5,1
 447 0168 1B870700 		sext.w	a4,a5
  28:src/../h/sem.h **** 
 448              		.loc 4 28 30
 449 016c 2320F500 		sw	a5,0(a0)
  28:src/../h/sem.h **** 
 450              		.loc 4 28 21
 451 0170 6356E000 		blez	a4,.L28
 452              	.LBE54:
 453              	.LBE53:
  91:src/supervisorTrapHandler.cpp ****                 }
 454              		.loc 1 91 25
 455 0174 93070000 		li	a5,0
 456 0178 6F008001 		j	.L19
 457              	.L28:
 458              	.LBB57:
 459              	.LBB55:
  28:src/../h/sem.h **** 
 460              		.loc 4 28 36 is_stmt 1
GAS LISTING /tmp/cco9o7EU.s 			page 16


  28:src/../h/sem.h **** 
 461              		.loc 4 28 43 is_stmt 0
 462 017c 97000000 		call	_ZN3Sem7unblockEv@plt
 462      E7800000 
 463              	.LVL37:
 464              	.LBE55:
 465              	.LBE57:
  91:src/supervisorTrapHandler.cpp ****                 }
 466              		.loc 1 91 25
 467 0184 93070000 		li	a5,0
 468              	.LBB58:
 469              	.LBB56:
 470 0188 6F008000 		j	.L19
 471              	.LVL38:
 472              	.L22:
 473              	.LBE56:
 474              	.LBE58:
  85:src/supervisorTrapHandler.cpp **** 
 475              		.loc 1 85 34
 476 018c 9307F0FF 		li	a5,-1
 477              	.LVL39:
 478              	.L19:
  94:src/supervisorTrapHandler.cpp ****             }
 479              		.loc 1 94 17 is_stmt 1
  94:src/supervisorTrapHandler.cpp ****             }
 480              		.loc 1 94 61 is_stmt 0
 481              	#APP
 482              	# 94 "src/supervisorTrapHandler.cpp" 1
 483              		mv x10, a5
 484              	# 0 "" 2
 485              	.LVL40:
 486              	#NO_APP
 487              	.L6:
 488              	.LBE50:
  97:src/supervisorTrapHandler.cpp ****                 char c = __getc();
 489              		.loc 1 97 13 is_stmt 1
  97:src/supervisorTrapHandler.cpp ****                 char c = __getc();
 490              		.loc 1 97 30
 491              	.LBB59:
  98:src/supervisorTrapHandler.cpp **** 
 492              		.loc 1 98 17
  98:src/supervisorTrapHandler.cpp **** 
 493              		.loc 1 98 32 is_stmt 0
 494 0194 97000000 		call	__getc@plt
 494      E7800000 
 495              	.LVL41:
 100:src/supervisorTrapHandler.cpp ****             } break;
 496              		.loc 1 100 17 is_stmt 1
 100:src/supervisorTrapHandler.cpp ****             } break;
 497              		.loc 1 100 59 is_stmt 0
 498              	#APP
 499              	# 100 "src/supervisorTrapHandler.cpp" 1
 500              		mv x10, a0
 501              	# 0 "" 2
 502              	#NO_APP
 503              	.LBE59:
 101:src/supervisorTrapHandler.cpp **** 
GAS LISTING /tmp/cco9o7EU.s 			page 17


 504              		.loc 1 101 15 is_stmt 1
 505 01a0 6FF09FE9 		j	.L1
 506              	.LVL42:
 507              	.L4:
 103:src/supervisorTrapHandler.cpp ****                 char c;
 508              		.loc 1 103 13
 103:src/supervisorTrapHandler.cpp ****                 char c;
 509              		.loc 1 103 30
 510              	.LBB60:
 104:src/supervisorTrapHandler.cpp **** 
 511              		.loc 1 104 17
 106:src/supervisorTrapHandler.cpp **** 
 512              		.loc 1 106 17
 106:src/supervisorTrapHandler.cpp **** 
 513              		.loc 1 106 58 is_stmt 0
 514              	#APP
 515              	# 106 "src/supervisorTrapHandler.cpp" 1
 516              		mv a0, x11
 517              	# 0 "" 2
 518              	.LVL43:
 108:src/supervisorTrapHandler.cpp ****             } break;
 519              		.loc 1 108 17 is_stmt 1
 108:src/supervisorTrapHandler.cpp ****             } break;
 520              		.loc 1 108 23 is_stmt 0
 521              	#NO_APP
 522 01a8 1375F50F 		andi	a0,a0,0xff
 523 01ac 97000000 		call	__putc@plt
 523      E7800000 
 524              	.LVL44:
 525              	.LBE60:
 109:src/supervisorTrapHandler.cpp **** 
 526              		.loc 1 109 15 is_stmt 1
 527 01b4 6FF05FE8 		j	.L1
 528              	.L12:
 111:src/supervisorTrapHandler.cpp ****                 PCB** handle;
 529              		.loc 1 111 13
 111:src/supervisorTrapHandler.cpp ****                 PCB** handle;
 530              		.loc 1 111 31
 531              	.LBB61:
 112:src/supervisorTrapHandler.cpp ****                 void (*start_routine)(void *);
 532              		.loc 1 112 17
 113:src/supervisorTrapHandler.cpp ****                 void *arg;
 533              		.loc 1 113 17
 114:src/supervisorTrapHandler.cpp ****                 uint64 *stack;
 534              		.loc 1 114 17
 115:src/supervisorTrapHandler.cpp ****                 //int ret = -1;
 535              		.loc 1 115 17
 118:src/supervisorTrapHandler.cpp ****                 __asm__ volatile("mv %0, x12" : "=r" (start_routine));
 536              		.loc 1 118 17
 118:src/supervisorTrapHandler.cpp ****                 __asm__ volatile("mv %0, x12" : "=r" (start_routine));
 537              		.loc 1 118 63 is_stmt 0
 538              	#APP
 539              	# 118 "src/supervisorTrapHandler.cpp" 1
 540              		mv s1, x11
 541              	# 0 "" 2
 542              	.LVL45:
 119:src/supervisorTrapHandler.cpp ****                 __asm__ volatile("mv %0, x13" : "=r" (arg));
GAS LISTING /tmp/cco9o7EU.s 			page 18


 543              		.loc 1 119 17 is_stmt 1
 119:src/supervisorTrapHandler.cpp ****                 __asm__ volatile("mv %0, x13" : "=r" (arg));
 544              		.loc 1 119 70 is_stmt 0
 545              	# 119 "src/supervisorTrapHandler.cpp" 1
 546              		mv a0, x12
 547              	# 0 "" 2
 548              	.LVL46:
 120:src/supervisorTrapHandler.cpp ****                 __asm__ volatile("mv %0, x17" : "=r" (stack));
 549              		.loc 1 120 17 is_stmt 1
 120:src/supervisorTrapHandler.cpp ****                 __asm__ volatile("mv %0, x17" : "=r" (stack));
 550              		.loc 1 120 60 is_stmt 0
 551              	# 120 "src/supervisorTrapHandler.cpp" 1
 552              		mv a2, x13
 553              	# 0 "" 2
 554              	.LVL47:
 121:src/supervisorTrapHandler.cpp **** 
 555              		.loc 1 121 17 is_stmt 1
 121:src/supervisorTrapHandler.cpp **** 
 556              		.loc 1 121 62 is_stmt 0
 557              	# 121 "src/supervisorTrapHandler.cpp" 1
 558              		mv a1, x17
 559              	# 0 "" 2
 560              	.LVL48:
 123:src/supervisorTrapHandler.cpp ****             } break;
 561              		.loc 1 123 17 is_stmt 1
 123:src/supervisorTrapHandler.cpp ****             } break;
 562              		.loc 1 123 45 is_stmt 0
 563              	#NO_APP
 564 01c8 93060000 		li	a3,0
 565 01cc 97000000 		call	_ZN3PCB13createProcessEPFvPvEPmS0_b@plt
 565      E7800000 
 566              	.LVL49:
 123:src/supervisorTrapHandler.cpp ****             } break;
 567              		.loc 1 123 25
 568 01d4 23B0A400 		sd	a0,0(s1)
 569              	.LBE61:
 124:src/supervisorTrapHandler.cpp **** 
 570              		.loc 1 124 15 is_stmt 1
 571 01d8 6FF01FE6 		j	.L1
 572              	.LVL50:
 573              	.L11:
 126:src/supervisorTrapHandler.cpp ****                 thread_t handle;
 574              		.loc 1 126 13
 126:src/supervisorTrapHandler.cpp ****                 thread_t handle;
 575              		.loc 1 126 35
 576              	.LBB62:
 127:src/supervisorTrapHandler.cpp ****                 __asm__ volatile("mv %0, x11" : "=r" (handle));
 577              		.loc 1 127 17
 128:src/supervisorTrapHandler.cpp ****                 Scheduler::put(handle); /* mozda treba proveriti da li je body null*/
 578              		.loc 1 128 17
 128:src/supervisorTrapHandler.cpp ****                 Scheduler::put(handle); /* mozda treba proveriti da li je body null*/
 579              		.loc 1 128 63 is_stmt 0
 580              	#APP
 581              	# 128 "src/supervisorTrapHandler.cpp" 1
 582              		mv a0, x11
 583              	# 0 "" 2
 584              	.LVL51:
GAS LISTING /tmp/cco9o7EU.s 			page 19


 129:src/supervisorTrapHandler.cpp ****             } break;
 585              		.loc 1 129 17 is_stmt 1
 129:src/supervisorTrapHandler.cpp ****             } break;
 586              		.loc 1 129 31 is_stmt 0
 587              	#NO_APP
 588 01e0 97000000 		call	_ZN9Scheduler3putEP3PCB@plt
 588      E7800000 
 589              	.LVL52:
 590              	.LBE62:
 130:src/supervisorTrapHandler.cpp **** 
 591              		.loc 1 130 15 is_stmt 1
 592 01e8 6FF01FE5 		j	.L1
 593              	.LVL53:
 594              	.L26:
 595              	.LBE33:
 596              	.LBE32:
 138:src/supervisorTrapHandler.cpp ****     }
 597              		.loc 1 138 9
 138:src/supervisorTrapHandler.cpp ****     }
 598              		.loc 1 138 24 is_stmt 0
 599 01ec 97000000 		call	console_handler@plt
 599      E7800000 
 600              	.LVL54:
 601              	.LBE63:
 602              		.loc 1 140 1
 603 01f4 6FF05FE4 		j	.L1
 604              		.cfi_endproc
 605              	.LFE47:
 607              	.Letext0:
 608              		.file 5 "src/../h/../lib/hw.h"
 609              		.file 6 "src/../h/memoryAllocator.h"
 610              		.file 7 "src/../h/scheduler.h"
 611              		.file 8 "src/../h/syscall_c.h"
 612              		.file 9 "src/../h/queue.h"
 613              		.file 10 "src/../lib/console.h"
GAS LISTING /tmp/cco9o7EU.s 			page 20

