GAS LISTING /tmp/cc5s914M.s 			page 1


   1              		.file	"syscall_cpp.cpp"
   2              		.option pic
   3              		.option norelax
   4              		.text
   5              	.Ltext0:
   6              		.section	.text._ZN6ThreadD2Ev,"axG",@progbits,_ZN6ThreadD5Ev,comdat
   7              		.align	2
   8              		.weak	_ZN6ThreadD2Ev
  10              	_ZN6ThreadD2Ev:
  11              	.LFB1:
  12              		.file 1 "src/../h/syscall_cpp.h"
   1:src/../h/syscall_cpp.h **** #ifndef _syscall_cpp
   2:src/../h/syscall_cpp.h **** #define _syscall_cpp
   3:src/../h/syscall_cpp.h **** 
   4:src/../h/syscall_cpp.h **** #include "syscall_c.h"
   5:src/../h/syscall_cpp.h **** 
   6:src/../h/syscall_cpp.h **** class Thread {
   7:src/../h/syscall_cpp.h **** public:
   8:src/../h/syscall_cpp.h ****     Thread (void (*body)(void*), void* arg);
   9:src/../h/syscall_cpp.h **** 
  10:src/../h/syscall_cpp.h ****     virtual ~Thread () {};
  13              		.loc 1 10 13
  14              		.cfi_startproc
  15              	.LVL0:
  16 0000 130101FF 		addi	sp,sp,-16
  17              		.cfi_def_cfa_offset 16
  18 0004 23348100 		sd	s0,8(sp)
  19              		.cfi_offset 8, -8
  20 0008 13040101 		addi	s0,sp,16
  21              		.cfi_def_cfa 8, 0
  22              		.loc 1 10 25 is_stmt 0
  23 000c 03348100 		ld	s0,8(sp)
  24              		.cfi_restore 8
  25              		.cfi_def_cfa 2, 16
  26 0010 13010101 		addi	sp,sp,16
  27              		.cfi_def_cfa_offset 0
  28 0014 67800000 		jr	ra
  29              		.cfi_endproc
  30              	.LFE1:
  32              		.weak	_ZN6ThreadD1Ev
  33              		.set	_ZN6ThreadD1Ev,_ZN6ThreadD2Ev
  34              		.section	.text._ZN6Thread3runEv,"axG",@progbits,_ZN6Thread3runEv,comdat
  35              		.align	2
  36              		.weak	_ZN6Thread3runEv
  38              	_ZN6Thread3runEv:
  39              	.LFB4:
  11:src/../h/syscall_cpp.h **** 
  12:src/../h/syscall_cpp.h ****     int start ();
  13:src/../h/syscall_cpp.h **** 
  14:src/../h/syscall_cpp.h ****     static void dispatch ();
  15:src/../h/syscall_cpp.h **** 
  16:src/../h/syscall_cpp.h ****     //static int sleep (time_t);
  17:src/../h/syscall_cpp.h **** 
  18:src/../h/syscall_cpp.h **** protected:
  19:src/../h/syscall_cpp.h ****     Thread ();
  20:src/../h/syscall_cpp.h **** 
  21:src/../h/syscall_cpp.h ****     virtual void run () {};
GAS LISTING /tmp/cc5s914M.s 			page 2


  40              		.loc 1 21 18 is_stmt 1
  41              		.cfi_startproc
  42              	.LVL1:
  43 0000 130101FF 		addi	sp,sp,-16
  44              		.cfi_def_cfa_offset 16
  45 0004 23348100 		sd	s0,8(sp)
  46              		.cfi_offset 8, -8
  47 0008 13040101 		addi	s0,sp,16
  48              		.cfi_def_cfa 8, 0
  49              		.loc 1 21 26 is_stmt 0
  50 000c 03348100 		ld	s0,8(sp)
  51              		.cfi_restore 8
  52              		.cfi_def_cfa 2, 16
  53 0010 13010101 		addi	sp,sp,16
  54              		.cfi_def_cfa_offset 0
  55 0014 67800000 		jr	ra
  56              		.cfi_endproc
  57              	.LFE4:
  59              		.text
  60              		.align	2
  61              		.globl	_ZN6Thread10runWrapperEPv
  63              	_ZN6Thread10runWrapperEPv:
  64              	.LFB13:
  65              		.file 2 "src/syscall_cpp.cpp"
   1:src/syscall_cpp.cpp **** #include "../h/syscall_cpp.h"
   2:src/syscall_cpp.cpp **** 
   3:src/syscall_cpp.cpp **** Thread::Thread(void (*body)(void *), void *arg) {
   4:src/syscall_cpp.cpp ****     thread_alloc(&myHandle, body, arg);
   5:src/syscall_cpp.cpp **** }
   6:src/syscall_cpp.cpp **** 
   7:src/syscall_cpp.cpp **** int Thread::start() {
   8:src/syscall_cpp.cpp ****     thread_scheduler(myHandle); //stavlja nit u scheduler
   9:src/syscall_cpp.cpp ****     return 0;
  10:src/syscall_cpp.cpp **** }
  11:src/syscall_cpp.cpp **** 
  12:src/syscall_cpp.cpp **** void Thread::dispatch() {
  13:src/syscall_cpp.cpp ****     thread_dispatch();
  14:src/syscall_cpp.cpp **** }
  15:src/syscall_cpp.cpp **** 
  16:src/syscall_cpp.cpp **** Thread::Thread() {
  17:src/syscall_cpp.cpp ****     thread_alloc(&myHandle, runWrapper, this); //samo alocira nit
  18:src/syscall_cpp.cpp **** }
  19:src/syscall_cpp.cpp **** 
  20:src/syscall_cpp.cpp **** void Thread::runWrapper(void *arg) {
  66              		.loc 2 20 36 is_stmt 1
  67              		.cfi_startproc
  68              	.LVL2:
  69 0000 130101FF 		addi	sp,sp,-16
  70              		.cfi_def_cfa_offset 16
  71 0004 23341100 		sd	ra,8(sp)
  72 0008 23308100 		sd	s0,0(sp)
  73              		.cfi_offset 1, -8
  74              		.cfi_offset 8, -16
  75 000c 13040101 		addi	s0,sp,16
  76              		.cfi_def_cfa 8, 0
  21:src/syscall_cpp.cpp ****     ((Thread*)arg)->run();
  77              		.loc 2 21 5
GAS LISTING /tmp/cc5s914M.s 			page 3


  78              		.loc 2 21 25 is_stmt 0
  79 0010 83370500 		ld	a5,0(a0)
  80 0014 83B70701 		ld	a5,16(a5)
  81              		.loc 2 21 24
  82 0018 E7800700 		jalr	a5
  83              	.LVL3:
  22:src/syscall_cpp.cpp **** }
  84              		.loc 2 22 1
  85 001c 83308100 		ld	ra,8(sp)
  86              		.cfi_restore 1
  87 0020 03340100 		ld	s0,0(sp)
  88              		.cfi_restore 8
  89              		.cfi_def_cfa 2, 16
  90 0024 13010101 		addi	sp,sp,16
  91              		.cfi_def_cfa_offset 0
  92 0028 67800000 		jr	ra
  93              		.cfi_endproc
  94              	.LFE13:
  96              		.section	.text._ZN6ThreadD0Ev,"axG",@progbits,_ZN6ThreadD5Ev,comdat
  97              		.align	2
  98              		.weak	_ZN6ThreadD0Ev
 100              	_ZN6ThreadD0Ev:
 101              	.LFB3:
  10:src/../h/syscall_cpp.h **** 
 102              		.loc 1 10 13 is_stmt 1
 103              		.cfi_startproc
 104              	.LVL4:
 105 0000 130101FF 		addi	sp,sp,-16
 106              		.cfi_def_cfa_offset 16
 107 0004 23341100 		sd	ra,8(sp)
 108 0008 23308100 		sd	s0,0(sp)
 109              		.cfi_offset 1, -8
 110              		.cfi_offset 8, -16
 111 000c 13040101 		addi	s0,sp,16
 112              		.cfi_def_cfa 8, 0
  10:src/../h/syscall_cpp.h **** 
 113              		.loc 1 10 25 is_stmt 0
 114 0010 97000000 		call	_ZdlPv@plt
 114      E7800000 
 115              	.LVL5:
 116 0018 83308100 		ld	ra,8(sp)
 117              		.cfi_restore 1
 118 001c 03340100 		ld	s0,0(sp)
 119              		.cfi_restore 8
 120              		.cfi_def_cfa 2, 16
 121 0020 13010101 		addi	sp,sp,16
 122              		.cfi_def_cfa_offset 0
 123 0024 67800000 		jr	ra
 124              		.cfi_endproc
 125              	.LFE3:
 127              		.text
 128              		.align	2
 129              		.globl	_ZN9SemaphoreD2Ev
 131              	_ZN9SemaphoreD2Ev:
 132              	.LFB18:
  23:src/syscall_cpp.cpp **** 
  24:src/syscall_cpp.cpp **** Semaphore::Semaphore(unsigned int init) {
GAS LISTING /tmp/cc5s914M.s 			page 4


  25:src/syscall_cpp.cpp ****     sem_open(&myHandle, init);
  26:src/syscall_cpp.cpp **** }
  27:src/syscall_cpp.cpp **** 
  28:src/syscall_cpp.cpp **** Semaphore::~Semaphore() {
 133              		.loc 2 28 1 is_stmt 1
 134              		.cfi_startproc
 135              		.cfi_personality 0x9b,DW.ref.__gxx_personality_v0
 136              		.cfi_lsda 0x1b,.LLSDA18
 137              	.LVL6:
 138 002c 130101FE 		addi	sp,sp,-32
 139              		.cfi_def_cfa_offset 32
 140 0030 233C1100 		sd	ra,24(sp)
 141 0034 23388100 		sd	s0,16(sp)
 142 0038 23349100 		sd	s1,8(sp)
 143              		.cfi_offset 1, -8
 144              		.cfi_offset 8, -16
 145              		.cfi_offset 9, -24
 146 003c 13040102 		addi	s0,sp,32
 147              		.cfi_def_cfa 8, 0
 148 0040 93040500 		mv	s1,a0
 149              	.LBB5:
 150              		.loc 2 28 23 is_stmt 0
 151 0044 97070000 		lla	a5,_ZTV9Semaphore+16
 151      93870700 
 152 004c 2330F500 		sd	a5,0(a0)
  29:src/syscall_cpp.cpp ****     sem_close(myHandle);
 153              		.loc 2 29 5 is_stmt 1
 154              		.loc 2 29 14 is_stmt 0
 155 0050 03358500 		ld	a0,8(a0)
 156              	.LVL7:
 157 0054 97000000 		call	_Z9sem_closeP3Sem@plt
 157      E7800000 
 158              	.LVL8:
  30:src/syscall_cpp.cpp ****     sem_delete(myHandle);
 159              		.loc 2 30 5 is_stmt 1
 160              		.loc 2 30 15 is_stmt 0
 161 005c 03B58400 		ld	a0,8(s1)
 162 0060 97000000 		call	_Z10sem_deleteP3Sem@plt
 162      E7800000 
 163              	.LVL9:
 164              	.LBE5:
  31:src/syscall_cpp.cpp **** }
 165              		.loc 2 31 1
 166 0068 83308101 		ld	ra,24(sp)
 167              		.cfi_restore 1
 168 006c 03340101 		ld	s0,16(sp)
 169              		.cfi_restore 8
 170              		.cfi_def_cfa 2, 32
 171 0070 83348100 		ld	s1,8(sp)
 172              		.cfi_restore 9
 173              	.LVL10:
 174 0074 13010102 		addi	sp,sp,32
 175              		.cfi_def_cfa_offset 0
 176 0078 67800000 		jr	ra
 177              		.cfi_endproc
 178              	.LFE18:
 179              		.globl	__gxx_personality_v0
GAS LISTING /tmp/cc5s914M.s 			page 5


 180              		.section	.gcc_except_table,"a",@progbits
 181              	.LLSDA18:
 182 0000 FF       		.byte	0xff
 183 0001 FF       		.byte	0xff
 184 0002 03       		.byte	0x3
 185 0003 00       		.byte	0
 186              		.text
 188              		.globl	_ZN9SemaphoreD1Ev
 189              		.set	_ZN9SemaphoreD1Ev,_ZN9SemaphoreD2Ev
 190              		.align	2
 191              		.globl	_ZN9SemaphoreD0Ev
 193              	_ZN9SemaphoreD0Ev:
 194              	.LFB20:
  28:src/syscall_cpp.cpp ****     sem_close(myHandle);
 195              		.loc 2 28 1 is_stmt 1
 196              		.cfi_startproc
 197              	.LVL11:
 198 007c 130101FE 		addi	sp,sp,-32
 199              		.cfi_def_cfa_offset 32
 200 0080 233C1100 		sd	ra,24(sp)
 201 0084 23388100 		sd	s0,16(sp)
 202 0088 23349100 		sd	s1,8(sp)
 203              		.cfi_offset 1, -8
 204              		.cfi_offset 8, -16
 205              		.cfi_offset 9, -24
 206 008c 13040102 		addi	s0,sp,32
 207              		.cfi_def_cfa 8, 0
 208 0090 93040500 		mv	s1,a0
 209              		.loc 2 31 1 is_stmt 0
 210 0094 97000000 		call	_ZN9SemaphoreD1Ev
 210      E7800000 
 211              	.LVL12:
 212 009c 13850400 		mv	a0,s1
 213 00a0 97000000 		call	_ZdlPv@plt
 213      E7800000 
 214              	.LVL13:
 215 00a8 83308101 		ld	ra,24(sp)
 216              		.cfi_restore 1
 217 00ac 03340101 		ld	s0,16(sp)
 218              		.cfi_restore 8
 219              		.cfi_def_cfa 2, 32
 220 00b0 83348100 		ld	s1,8(sp)
 221              		.cfi_restore 9
 222              	.LVL14:
 223 00b4 13010102 		addi	sp,sp,32
 224              		.cfi_def_cfa_offset 0
 225 00b8 67800000 		jr	ra
 226              		.cfi_endproc
 227              	.LFE20:
 229              		.align	2
 230              		.globl	_ZN6ThreadC2EPFvPvES0_
 232              	_ZN6ThreadC2EPFvPvES0_:
 233              	.LFB6:
   3:src/syscall_cpp.cpp ****     thread_alloc(&myHandle, body, arg);
 234              		.loc 2 3 1 is_stmt 1
 235              		.cfi_startproc
 236              	.LVL15:
GAS LISTING /tmp/cc5s914M.s 			page 6


 237 00bc 130101FF 		addi	sp,sp,-16
 238              		.cfi_def_cfa_offset 16
 239 00c0 23341100 		sd	ra,8(sp)
 240 00c4 23308100 		sd	s0,0(sp)
 241              		.cfi_offset 1, -8
 242              		.cfi_offset 8, -16
 243 00c8 13040101 		addi	s0,sp,16
 244              		.cfi_def_cfa 8, 0
 245              	.LBB6:
   3:src/syscall_cpp.cpp ****     thread_alloc(&myHandle, body, arg);
 246              		.loc 2 3 47 is_stmt 0
 247 00cc 97070000 		lla	a5,_ZTV6Thread+16
 247      93870700 
 248 00d4 2330F500 		sd	a5,0(a0)
   4:src/syscall_cpp.cpp **** }
 249              		.loc 2 4 5 is_stmt 1
   4:src/syscall_cpp.cpp **** }
 250              		.loc 2 4 17 is_stmt 0
 251 00d8 13058500 		addi	a0,a0,8
 252              	.LVL16:
 253 00dc 97000000 		call	_Z12thread_allocPP3PCBPFvPvES2_@plt
 253      E7800000 
 254              	.LVL17:
 255              	.LBE6:
   5:src/syscall_cpp.cpp **** 
 256              		.loc 2 5 1
 257 00e4 83308100 		ld	ra,8(sp)
 258              		.cfi_restore 1
 259 00e8 03340100 		ld	s0,0(sp)
 260              		.cfi_restore 8
 261              		.cfi_def_cfa 2, 16
 262 00ec 13010101 		addi	sp,sp,16
 263              		.cfi_def_cfa_offset 0
 264 00f0 67800000 		jr	ra
 265              		.cfi_endproc
 266              	.LFE6:
 268              		.globl	_ZN6ThreadC1EPFvPvES0_
 269              		.set	_ZN6ThreadC1EPFvPvES0_,_ZN6ThreadC2EPFvPvES0_
 270              		.align	2
 271              		.globl	_ZN6Thread5startEv
 273              	_ZN6Thread5startEv:
 274              	.LFB8:
   7:src/syscall_cpp.cpp ****     thread_scheduler(myHandle); //stavlja nit u scheduler
 275              		.loc 2 7 21 is_stmt 1
 276              		.cfi_startproc
 277              	.LVL18:
 278 00f4 130101FF 		addi	sp,sp,-16
 279              		.cfi_def_cfa_offset 16
 280 00f8 23341100 		sd	ra,8(sp)
 281 00fc 23308100 		sd	s0,0(sp)
 282              		.cfi_offset 1, -8
 283              		.cfi_offset 8, -16
 284 0100 13040101 		addi	s0,sp,16
 285              		.cfi_def_cfa 8, 0
   8:src/syscall_cpp.cpp ****     return 0;
 286              		.loc 2 8 5
   8:src/syscall_cpp.cpp ****     return 0;
GAS LISTING /tmp/cc5s914M.s 			page 7


 287              		.loc 2 8 21 is_stmt 0
 288 0104 03358500 		ld	a0,8(a0)
 289              	.LVL19:
 290 0108 97000000 		call	_Z16thread_schedulerP3PCB@plt
 290      E7800000 
 291              	.LVL20:
   9:src/syscall_cpp.cpp **** }
 292              		.loc 2 9 5 is_stmt 1
  10:src/syscall_cpp.cpp **** 
 293              		.loc 2 10 1 is_stmt 0
 294 0110 13050000 		li	a0,0
 295 0114 83308100 		ld	ra,8(sp)
 296              		.cfi_restore 1
 297 0118 03340100 		ld	s0,0(sp)
 298              		.cfi_restore 8
 299              		.cfi_def_cfa 2, 16
 300 011c 13010101 		addi	sp,sp,16
 301              		.cfi_def_cfa_offset 0
 302 0120 67800000 		jr	ra
 303              		.cfi_endproc
 304              	.LFE8:
 306              		.align	2
 307              		.globl	_ZN6Thread8dispatchEv
 309              	_ZN6Thread8dispatchEv:
 310              	.LFB9:
  12:src/syscall_cpp.cpp ****     thread_dispatch();
 311              		.loc 2 12 25 is_stmt 1
 312              		.cfi_startproc
 313 0124 130101FF 		addi	sp,sp,-16
 314              		.cfi_def_cfa_offset 16
 315 0128 23341100 		sd	ra,8(sp)
 316 012c 23308100 		sd	s0,0(sp)
 317              		.cfi_offset 1, -8
 318              		.cfi_offset 8, -16
 319 0130 13040101 		addi	s0,sp,16
 320              		.cfi_def_cfa 8, 0
  13:src/syscall_cpp.cpp **** }
 321              		.loc 2 13 5
  13:src/syscall_cpp.cpp **** }
 322              		.loc 2 13 20 is_stmt 0
 323 0134 97000000 		call	_Z15thread_dispatchv@plt
 323      E7800000 
 324              	.LVL21:
  14:src/syscall_cpp.cpp **** 
 325              		.loc 2 14 1
 326 013c 83308100 		ld	ra,8(sp)
 327              		.cfi_restore 1
 328 0140 03340100 		ld	s0,0(sp)
 329              		.cfi_restore 8
 330              		.cfi_def_cfa 2, 16
 331 0144 13010101 		addi	sp,sp,16
 332              		.cfi_def_cfa_offset 0
 333 0148 67800000 		jr	ra
 334              		.cfi_endproc
 335              	.LFE9:
 337              		.align	2
 338              		.globl	_ZN6ThreadC2Ev
GAS LISTING /tmp/cc5s914M.s 			page 8


 340              	_ZN6ThreadC2Ev:
 341              	.LFB11:
  16:src/syscall_cpp.cpp ****     thread_alloc(&myHandle, runWrapper, this); //samo alocira nit
 342              		.loc 2 16 1 is_stmt 1
 343              		.cfi_startproc
 344              	.LVL22:
 345 014c 130101FF 		addi	sp,sp,-16
 346              		.cfi_def_cfa_offset 16
 347 0150 23341100 		sd	ra,8(sp)
 348 0154 23308100 		sd	s0,0(sp)
 349              		.cfi_offset 1, -8
 350              		.cfi_offset 8, -16
 351 0158 13040101 		addi	s0,sp,16
 352              		.cfi_def_cfa 8, 0
 353              	.LBB7:
  16:src/syscall_cpp.cpp ****     thread_alloc(&myHandle, runWrapper, this); //samo alocira nit
 354              		.loc 2 16 16 is_stmt 0
 355 015c 97070000 		lla	a5,_ZTV6Thread+16
 355      93870700 
 356 0164 2330F500 		sd	a5,0(a0)
  17:src/syscall_cpp.cpp **** }
 357              		.loc 2 17 5 is_stmt 1
  17:src/syscall_cpp.cpp **** }
 358              		.loc 2 17 17 is_stmt 0
 359 0168 13060500 		mv	a2,a0
 360 016c 97050000 		lla	a1,_ZN6Thread10runWrapperEPv
 360      93850500 
 361 0174 13058500 		addi	a0,a0,8
 362              	.LVL23:
 363 0178 97000000 		call	_Z12thread_allocPP3PCBPFvPvES2_@plt
 363      E7800000 
 364              	.LVL24:
 365              	.LBE7:
  18:src/syscall_cpp.cpp **** 
 366              		.loc 2 18 1
 367 0180 83308100 		ld	ra,8(sp)
 368              		.cfi_restore 1
 369 0184 03340100 		ld	s0,0(sp)
 370              		.cfi_restore 8
 371              		.cfi_def_cfa 2, 16
 372 0188 13010101 		addi	sp,sp,16
 373              		.cfi_def_cfa_offset 0
 374 018c 67800000 		jr	ra
 375              		.cfi_endproc
 376              	.LFE11:
 378              		.globl	_ZN6ThreadC1Ev
 379              		.set	_ZN6ThreadC1Ev,_ZN6ThreadC2Ev
 380              		.align	2
 381              		.globl	_ZN9SemaphoreC2Ej
 383              	_ZN9SemaphoreC2Ej:
 384              	.LFB15:
  24:src/syscall_cpp.cpp ****     sem_open(&myHandle, init);
 385              		.loc 2 24 1 is_stmt 1
 386              		.cfi_startproc
 387              	.LVL25:
 388 0190 130101FF 		addi	sp,sp,-16
 389              		.cfi_def_cfa_offset 16
GAS LISTING /tmp/cc5s914M.s 			page 9


 390 0194 23341100 		sd	ra,8(sp)
 391 0198 23308100 		sd	s0,0(sp)
 392              		.cfi_offset 1, -8
 393              		.cfi_offset 8, -16
 394 019c 13040101 		addi	s0,sp,16
 395              		.cfi_def_cfa 8, 0
 396              	.LBB8:
  24:src/syscall_cpp.cpp ****     sem_open(&myHandle, init);
 397              		.loc 2 24 39 is_stmt 0
 398 01a0 97070000 		lla	a5,_ZTV9Semaphore+16
 398      93870700 
 399 01a8 2330F500 		sd	a5,0(a0)
  25:src/syscall_cpp.cpp **** }
 400              		.loc 2 25 5 is_stmt 1
  25:src/syscall_cpp.cpp **** }
 401              		.loc 2 25 13 is_stmt 0
 402 01ac 13058500 		addi	a0,a0,8
 403              	.LVL26:
 404 01b0 97000000 		call	_Z8sem_openPP3Semj@plt
 404      E7800000 
 405              	.LVL27:
 406              	.LBE8:
  26:src/syscall_cpp.cpp **** 
 407              		.loc 2 26 1
 408 01b8 83308100 		ld	ra,8(sp)
 409              		.cfi_restore 1
 410 01bc 03340100 		ld	s0,0(sp)
 411              		.cfi_restore 8
 412              		.cfi_def_cfa 2, 16
 413 01c0 13010101 		addi	sp,sp,16
 414              		.cfi_def_cfa_offset 0
 415 01c4 67800000 		jr	ra
 416              		.cfi_endproc
 417              	.LFE15:
 419              		.globl	_ZN9SemaphoreC1Ej
 420              		.set	_ZN9SemaphoreC1Ej,_ZN9SemaphoreC2Ej
 421              		.align	2
 422              		.globl	_ZN9Semaphore4waitEv
 424              	_ZN9Semaphore4waitEv:
 425              	.LFB21:
  32:src/syscall_cpp.cpp **** 
  33:src/syscall_cpp.cpp **** int Semaphore::wait() {
 426              		.loc 2 33 23 is_stmt 1
 427              		.cfi_startproc
 428              	.LVL28:
 429 01c8 130101FF 		addi	sp,sp,-16
 430              		.cfi_def_cfa_offset 16
 431 01cc 23341100 		sd	ra,8(sp)
 432 01d0 23308100 		sd	s0,0(sp)
 433              		.cfi_offset 1, -8
 434              		.cfi_offset 8, -16
 435 01d4 13040101 		addi	s0,sp,16
 436              		.cfi_def_cfa 8, 0
  34:src/syscall_cpp.cpp ****     return sem_wait(myHandle);
 437              		.loc 2 34 5
 438              		.loc 2 34 20 is_stmt 0
 439 01d8 03358500 		ld	a0,8(a0)
GAS LISTING /tmp/cc5s914M.s 			page 10


 440              	.LVL29:
 441 01dc 97000000 		call	_Z8sem_waitP3Sem@plt
 441      E7800000 
 442              	.LVL30:
  35:src/syscall_cpp.cpp **** }
 443              		.loc 2 35 1
 444 01e4 83308100 		ld	ra,8(sp)
 445              		.cfi_restore 1
 446 01e8 03340100 		ld	s0,0(sp)
 447              		.cfi_restore 8
 448              		.cfi_def_cfa 2, 16
 449 01ec 13010101 		addi	sp,sp,16
 450              		.cfi_def_cfa_offset 0
 451 01f0 67800000 		jr	ra
 452              		.cfi_endproc
 453              	.LFE21:
 455              		.align	2
 456              		.globl	_ZN9Semaphore6signalEv
 458              	_ZN9Semaphore6signalEv:
 459              	.LFB22:
  36:src/syscall_cpp.cpp **** 
  37:src/syscall_cpp.cpp **** int Semaphore::signal() {
 460              		.loc 2 37 25 is_stmt 1
 461              		.cfi_startproc
 462              	.LVL31:
 463 01f4 130101FF 		addi	sp,sp,-16
 464              		.cfi_def_cfa_offset 16
 465 01f8 23341100 		sd	ra,8(sp)
 466 01fc 23308100 		sd	s0,0(sp)
 467              		.cfi_offset 1, -8
 468              		.cfi_offset 8, -16
 469 0200 13040101 		addi	s0,sp,16
 470              		.cfi_def_cfa 8, 0
  38:src/syscall_cpp.cpp ****     return sem_signal(myHandle);
 471              		.loc 2 38 5
 472              		.loc 2 38 22 is_stmt 0
 473 0204 03358500 		ld	a0,8(a0)
 474              	.LVL32:
 475 0208 97000000 		call	_Z10sem_signalP3Sem@plt
 475      E7800000 
 476              	.LVL33:
  39:src/syscall_cpp.cpp **** }
 477              		.loc 2 39 1
 478 0210 83308100 		ld	ra,8(sp)
 479              		.cfi_restore 1
 480 0214 03340100 		ld	s0,0(sp)
 481              		.cfi_restore 8
 482              		.cfi_def_cfa 2, 16
 483 0218 13010101 		addi	sp,sp,16
 484              		.cfi_def_cfa_offset 0
 485 021c 67800000 		jr	ra
 486              		.cfi_endproc
 487              	.LFE22:
 489              		.align	2
 490              		.globl	_ZN7Console4getcEv
 492              	_ZN7Console4getcEv:
 493              	.LFB23:
GAS LISTING /tmp/cc5s914M.s 			page 11


  40:src/syscall_cpp.cpp **** 
  41:src/syscall_cpp.cpp **** char Console::getc() {
 494              		.loc 2 41 22 is_stmt 1
 495              		.cfi_startproc
 496 0220 130101FF 		addi	sp,sp,-16
 497              		.cfi_def_cfa_offset 16
 498 0224 23341100 		sd	ra,8(sp)
 499 0228 23308100 		sd	s0,0(sp)
 500              		.cfi_offset 1, -8
 501              		.cfi_offset 8, -16
 502 022c 13040101 		addi	s0,sp,16
 503              		.cfi_def_cfa 8, 0
  42:src/syscall_cpp.cpp ****     return ::getc();
 504              		.loc 2 42 5
 505              		.loc 2 42 18 is_stmt 0
 506 0230 97000000 		call	_Z4getcv@plt
 506      E7800000 
 507              	.LVL34:
  43:src/syscall_cpp.cpp **** }
 508              		.loc 2 43 1
 509 0238 83308100 		ld	ra,8(sp)
 510              		.cfi_restore 1
 511 023c 03340100 		ld	s0,0(sp)
 512              		.cfi_restore 8
 513              		.cfi_def_cfa 2, 16
 514 0240 13010101 		addi	sp,sp,16
 515              		.cfi_def_cfa_offset 0
 516 0244 67800000 		jr	ra
 517              		.cfi_endproc
 518              	.LFE23:
 520              		.align	2
 521              		.globl	_ZN7Console4putcEc
 523              	_ZN7Console4putcEc:
 524              	.LFB24:
  44:src/syscall_cpp.cpp **** 
  45:src/syscall_cpp.cpp **** void Console::putc(char c) {
 525              		.loc 2 45 28 is_stmt 1
 526              		.cfi_startproc
 527              	.LVL35:
 528 0248 130101FF 		addi	sp,sp,-16
 529              		.cfi_def_cfa_offset 16
 530 024c 23341100 		sd	ra,8(sp)
 531 0250 23308100 		sd	s0,0(sp)
 532              		.cfi_offset 1, -8
 533              		.cfi_offset 8, -16
 534 0254 13040101 		addi	s0,sp,16
 535              		.cfi_def_cfa 8, 0
  46:src/syscall_cpp.cpp ****     return ::putc(c);
 536              		.loc 2 46 5
 537              		.loc 2 46 18 is_stmt 0
 538 0258 97000000 		call	_Z4putcc@plt
 538      E7800000 
 539              	.LVL36:
  47:src/syscall_cpp.cpp **** }
 540              		.loc 2 47 1
 541 0260 83308100 		ld	ra,8(sp)
 542              		.cfi_restore 1
GAS LISTING /tmp/cc5s914M.s 			page 12


 543 0264 03340100 		ld	s0,0(sp)
 544              		.cfi_restore 8
 545              		.cfi_def_cfa 2, 16
 546 0268 13010101 		addi	sp,sp,16
 547              		.cfi_def_cfa_offset 0
 548 026c 67800000 		jr	ra
 549              		.cfi_endproc
 550              	.LFE24:
 552              		.weak	_ZTV6Thread
 553              		.section	.data.rel.ro.local._ZTV6Thread,"awG",@progbits,_ZTV6Thread,comdat
 554              		.align	3
 557              	_ZTV6Thread:
 558 0000 00000000 		.dword	0
 558      00000000 
 559 0008 00000000 		.dword	0
 559      00000000 
 560 0010 00000000 		.dword	_ZN6ThreadD1Ev
 560      00000000 
 561 0018 00000000 		.dword	_ZN6ThreadD0Ev
 561      00000000 
 562 0020 00000000 		.dword	_ZN6Thread3runEv
 562      00000000 
 563              		.weak	_ZTV9Semaphore
 564              		.section	.data.rel.ro.local._ZTV9Semaphore,"awG",@progbits,_ZTV9Semaphore,comdat
 565              		.align	3
 568              	_ZTV9Semaphore:
 569 0000 00000000 		.dword	0
 569      00000000 
 570 0008 00000000 		.dword	0
 570      00000000 
 571 0010 00000000 		.dword	_ZN9SemaphoreD1Ev
 571      00000000 
 572 0018 00000000 		.dword	_ZN9SemaphoreD0Ev
 572      00000000 
 573              		.text
 574              	.Letext0:
 575              		.file 3 "src/../h/../lib/hw.h"
 576              		.file 4 "src/../h/syscall_c.h"
 2839              		.align	3
 2842              	DW.ref.__gxx_personality_v0:
 2843 0000 00000000 		.dword	__gxx_personality_v0
 2843      00000000 
 2844              		.ident	"GCC: (Ubuntu 9.4.0-1ubuntu1~20.04) 9.4.0"
 2845              		.section	.note.GNU-stack,"",@progbits
GAS LISTING /tmp/cc5s914M.s 			page 13

