GAS LISTING /tmp/ccqegy9T.s 			page 1


   1              		.file	"syscall_cpp.cpp"
   2              		.option pic
   3              		.option norelax
   4              		.text
   5              	.Ltext0:
   6              		.section	.text._ZN6ThreadD2Ev,"axG",@progbits,_ZN6ThreadD5Ev,comdat
   7              		.align	2
   8              		.weak	_ZN6ThreadD2Ev
  10              	_ZN6ThreadD2Ev:
  11              	.LFB1:
  12              		.file 1 "src/../h/syscall_cpp.h"
   1:src/../h/syscall_cpp.h **** #ifndef _syscall_cpp
   2:src/../h/syscall_cpp.h **** #define _syscall_cpp
   3:src/../h/syscall_cpp.h **** 
   4:src/../h/syscall_cpp.h **** #include "syscall_c.h"
   5:src/../h/syscall_cpp.h **** 
   6:src/../h/syscall_cpp.h **** class Thread {
   7:src/../h/syscall_cpp.h **** public:
   8:src/../h/syscall_cpp.h ****     Thread (void (*body)(void*), void* arg);
   9:src/../h/syscall_cpp.h **** 
  10:src/../h/syscall_cpp.h ****     virtual ~Thread () {};
  13              		.loc 1 10 13
  14              		.cfi_startproc
  15              	.LVL0:
  16 0000 130101FF 		addi	sp,sp,-16
  17              		.cfi_def_cfa_offset 16
  18 0004 23348100 		sd	s0,8(sp)
  19              		.cfi_offset 8, -8
  20 0008 13040101 		addi	s0,sp,16
  21              		.cfi_def_cfa 8, 0
  22              		.loc 1 10 25 is_stmt 0
  23 000c 03348100 		ld	s0,8(sp)
  24              		.cfi_restore 8
  25              		.cfi_def_cfa 2, 16
  26 0010 13010101 		addi	sp,sp,16
  27              		.cfi_def_cfa_offset 0
  28 0014 67800000 		jr	ra
  29              		.cfi_endproc
  30              	.LFE1:
  32              		.weak	_ZN6ThreadD1Ev
  33              		.set	_ZN6ThreadD1Ev,_ZN6ThreadD2Ev
  34              		.section	.text._ZN6Thread3runEv,"axG",@progbits,_ZN6Thread3runEv,comdat
  35              		.align	2
  36              		.weak	_ZN6Thread3runEv
  38              	_ZN6Thread3runEv:
  39              	.LFB4:
  11:src/../h/syscall_cpp.h **** 
  12:src/../h/syscall_cpp.h ****     int start ();
  13:src/../h/syscall_cpp.h **** 
  14:src/../h/syscall_cpp.h ****     static void dispatch ();
  15:src/../h/syscall_cpp.h **** 
  16:src/../h/syscall_cpp.h ****     //static int sleep (time_t);
  17:src/../h/syscall_cpp.h **** 
  18:src/../h/syscall_cpp.h **** protected:
  19:src/../h/syscall_cpp.h ****     Thread ();
  20:src/../h/syscall_cpp.h **** 
  21:src/../h/syscall_cpp.h ****     virtual void run () {};
GAS LISTING /tmp/ccqegy9T.s 			page 2


  40              		.loc 1 21 18 is_stmt 1
  41              		.cfi_startproc
  42              	.LVL1:
  43 0000 130101FF 		addi	sp,sp,-16
  44              		.cfi_def_cfa_offset 16
  45 0004 23348100 		sd	s0,8(sp)
  46              		.cfi_offset 8, -8
  47 0008 13040101 		addi	s0,sp,16
  48              		.cfi_def_cfa 8, 0
  49              		.loc 1 21 26 is_stmt 0
  50 000c 03348100 		ld	s0,8(sp)
  51              		.cfi_restore 8
  52              		.cfi_def_cfa 2, 16
  53 0010 13010101 		addi	sp,sp,16
  54              		.cfi_def_cfa_offset 0
  55 0014 67800000 		jr	ra
  56              		.cfi_endproc
  57              	.LFE4:
  59              		.section	.text._ZN9SemaphoreD2Ev,"axG",@progbits,_ZN9SemaphoreD5Ev,comdat
  60              		.align	2
  61              		.weak	_ZN9SemaphoreD2Ev
  63              	_ZN9SemaphoreD2Ev:
  64              	.LFB6:
  22:src/../h/syscall_cpp.h **** 
  23:src/../h/syscall_cpp.h **** private:
  24:src/../h/syscall_cpp.h ****     static void runWrapper(void *arg);
  25:src/../h/syscall_cpp.h **** 
  26:src/../h/syscall_cpp.h ****     thread_t myHandle;
  27:src/../h/syscall_cpp.h **** };
  28:src/../h/syscall_cpp.h **** 
  29:src/../h/syscall_cpp.h **** 
  30:src/../h/syscall_cpp.h **** class Semaphore {
  31:src/../h/syscall_cpp.h **** public:
  32:src/../h/syscall_cpp.h ****     Semaphore (unsigned init = 1);
  33:src/../h/syscall_cpp.h **** 
  34:src/../h/syscall_cpp.h ****     virtual ~Semaphore () {};
  65              		.loc 1 34 13 is_stmt 1
  66              		.cfi_startproc
  67              	.LVL2:
  68 0000 130101FF 		addi	sp,sp,-16
  69              		.cfi_def_cfa_offset 16
  70 0004 23348100 		sd	s0,8(sp)
  71              		.cfi_offset 8, -8
  72 0008 13040101 		addi	s0,sp,16
  73              		.cfi_def_cfa 8, 0
  74              		.loc 1 34 28 is_stmt 0
  75 000c 03348100 		ld	s0,8(sp)
  76              		.cfi_restore 8
  77              		.cfi_def_cfa 2, 16
  78 0010 13010101 		addi	sp,sp,16
  79              		.cfi_def_cfa_offset 0
  80 0014 67800000 		jr	ra
  81              		.cfi_endproc
  82              	.LFE6:
  84              		.weak	_ZN9SemaphoreD1Ev
  85              		.set	_ZN9SemaphoreD1Ev,_ZN9SemaphoreD2Ev
  86              		.text
GAS LISTING /tmp/ccqegy9T.s 			page 3


  87              		.align	2
  88              		.globl	_ZN6Thread10runWrapperEPv
  90              	_ZN6Thread10runWrapperEPv:
  91              	.LFB17:
  92              		.file 2 "src/syscall_cpp.cpp"
   1:src/syscall_cpp.cpp **** #include "../h/syscall_cpp.h"
   2:src/syscall_cpp.cpp **** 
   3:src/syscall_cpp.cpp **** Thread::Thread(void (*body)(void *), void *arg) {
   4:src/syscall_cpp.cpp ****     thread_alloc(&myHandle, body, arg);
   5:src/syscall_cpp.cpp **** }
   6:src/syscall_cpp.cpp **** 
   7:src/syscall_cpp.cpp **** int Thread::start() {
   8:src/syscall_cpp.cpp ****     thread_scheduler(myHandle); //stavlja nit u scheduler
   9:src/syscall_cpp.cpp ****     return 0;
  10:src/syscall_cpp.cpp **** }
  11:src/syscall_cpp.cpp **** 
  12:src/syscall_cpp.cpp **** void Thread::dispatch() {
  13:src/syscall_cpp.cpp ****     thread_dispatch();
  14:src/syscall_cpp.cpp **** }
  15:src/syscall_cpp.cpp **** 
  16:src/syscall_cpp.cpp **** Thread::Thread() {
  17:src/syscall_cpp.cpp ****     thread_alloc(&myHandle, runWrapper, this); //samo alocira nit
  18:src/syscall_cpp.cpp **** }
  19:src/syscall_cpp.cpp **** 
  20:src/syscall_cpp.cpp **** void Thread::runWrapper(void *arg) {
  93              		.loc 2 20 36 is_stmt 1
  94              		.cfi_startproc
  95              	.LVL3:
  96 0000 130101FF 		addi	sp,sp,-16
  97              		.cfi_def_cfa_offset 16
  98 0004 23341100 		sd	ra,8(sp)
  99 0008 23308100 		sd	s0,0(sp)
 100              		.cfi_offset 1, -8
 101              		.cfi_offset 8, -16
 102 000c 13040101 		addi	s0,sp,16
 103              		.cfi_def_cfa 8, 0
  21:src/syscall_cpp.cpp ****     ((Thread*)arg)->run();
 104              		.loc 2 21 5
 105              		.loc 2 21 25 is_stmt 0
 106 0010 83370500 		ld	a5,0(a0)
 107 0014 83B70701 		ld	a5,16(a5)
 108              		.loc 2 21 24
 109 0018 E7800700 		jalr	a5
 110              	.LVL4:
  22:src/syscall_cpp.cpp **** }
 111              		.loc 2 22 1
 112 001c 83308100 		ld	ra,8(sp)
 113              		.cfi_restore 1
 114 0020 03340100 		ld	s0,0(sp)
 115              		.cfi_restore 8
 116              		.cfi_def_cfa 2, 16
 117 0024 13010101 		addi	sp,sp,16
 118              		.cfi_def_cfa_offset 0
 119 0028 67800000 		jr	ra
 120              		.cfi_endproc
 121              	.LFE17:
 123              		.section	.text._ZN6ThreadD0Ev,"axG",@progbits,_ZN6ThreadD5Ev,comdat
GAS LISTING /tmp/ccqegy9T.s 			page 4


 124              		.align	2
 125              		.weak	_ZN6ThreadD0Ev
 127              	_ZN6ThreadD0Ev:
 128              	.LFB3:
  10:src/../h/syscall_cpp.h **** 
 129              		.loc 1 10 13 is_stmt 1
 130              		.cfi_startproc
 131              	.LVL5:
 132 0000 130101FF 		addi	sp,sp,-16
 133              		.cfi_def_cfa_offset 16
 134 0004 23341100 		sd	ra,8(sp)
 135 0008 23308100 		sd	s0,0(sp)
 136              		.cfi_offset 1, -8
 137              		.cfi_offset 8, -16
 138 000c 13040101 		addi	s0,sp,16
 139              		.cfi_def_cfa 8, 0
  10:src/../h/syscall_cpp.h **** 
 140              		.loc 1 10 25 is_stmt 0
 141 0010 97000000 		call	_ZdlPv@plt
 141      E7800000 
 142              	.LVL6:
 143 0018 83308100 		ld	ra,8(sp)
 144              		.cfi_restore 1
 145 001c 03340100 		ld	s0,0(sp)
 146              		.cfi_restore 8
 147              		.cfi_def_cfa 2, 16
 148 0020 13010101 		addi	sp,sp,16
 149              		.cfi_def_cfa_offset 0
 150 0024 67800000 		jr	ra
 151              		.cfi_endproc
 152              	.LFE3:
 154              		.section	.text._ZN9SemaphoreD0Ev,"axG",@progbits,_ZN9SemaphoreD5Ev,comdat
 155              		.align	2
 156              		.weak	_ZN9SemaphoreD0Ev
 158              	_ZN9SemaphoreD0Ev:
 159              	.LFB8:
 160              		.loc 1 34 13 is_stmt 1
 161              		.cfi_startproc
 162              	.LVL7:
 163 0000 130101FF 		addi	sp,sp,-16
 164              		.cfi_def_cfa_offset 16
 165 0004 23341100 		sd	ra,8(sp)
 166 0008 23308100 		sd	s0,0(sp)
 167              		.cfi_offset 1, -8
 168              		.cfi_offset 8, -16
 169 000c 13040101 		addi	s0,sp,16
 170              		.cfi_def_cfa 8, 0
 171              		.loc 1 34 28 is_stmt 0
 172 0010 97000000 		call	_ZdlPv@plt
 172      E7800000 
 173              	.LVL8:
 174 0018 83308100 		ld	ra,8(sp)
 175              		.cfi_restore 1
 176 001c 03340100 		ld	s0,0(sp)
 177              		.cfi_restore 8
 178              		.cfi_def_cfa 2, 16
 179 0020 13010101 		addi	sp,sp,16
GAS LISTING /tmp/ccqegy9T.s 			page 5


 180              		.cfi_def_cfa_offset 0
 181 0024 67800000 		jr	ra
 182              		.cfi_endproc
 183              	.LFE8:
 185              		.text
 186              		.align	2
 187              		.globl	_ZN6ThreadC2EPFvPvES0_
 189              	_ZN6ThreadC2EPFvPvES0_:
 190              	.LFB10:
   3:src/syscall_cpp.cpp ****     thread_alloc(&myHandle, body, arg);
 191              		.loc 2 3 1 is_stmt 1
 192              		.cfi_startproc
 193              	.LVL9:
 194 002c 130101FF 		addi	sp,sp,-16
 195              		.cfi_def_cfa_offset 16
 196 0030 23341100 		sd	ra,8(sp)
 197 0034 23308100 		sd	s0,0(sp)
 198              		.cfi_offset 1, -8
 199              		.cfi_offset 8, -16
 200 0038 13040101 		addi	s0,sp,16
 201              		.cfi_def_cfa 8, 0
 202              	.LBB8:
   3:src/syscall_cpp.cpp ****     thread_alloc(&myHandle, body, arg);
 203              		.loc 2 3 47 is_stmt 0
 204 003c 97070000 		lla	a5,_ZTV6Thread+16
 204      93870700 
 205 0044 2330F500 		sd	a5,0(a0)
   4:src/syscall_cpp.cpp **** }
 206              		.loc 2 4 5 is_stmt 1
   4:src/syscall_cpp.cpp **** }
 207              		.loc 2 4 17 is_stmt 0
 208 0048 13058500 		addi	a0,a0,8
 209              	.LVL10:
 210 004c 97000000 		call	_Z12thread_allocPP3PCBPFvPvES2_@plt
 210      E7800000 
 211              	.LVL11:
 212              	.LBE8:
   5:src/syscall_cpp.cpp **** 
 213              		.loc 2 5 1
 214 0054 83308100 		ld	ra,8(sp)
 215              		.cfi_restore 1
 216 0058 03340100 		ld	s0,0(sp)
 217              		.cfi_restore 8
 218              		.cfi_def_cfa 2, 16
 219 005c 13010101 		addi	sp,sp,16
 220              		.cfi_def_cfa_offset 0
 221 0060 67800000 		jr	ra
 222              		.cfi_endproc
 223              	.LFE10:
 225              		.globl	_ZN6ThreadC1EPFvPvES0_
 226              		.set	_ZN6ThreadC1EPFvPvES0_,_ZN6ThreadC2EPFvPvES0_
 227              		.align	2
 228              		.globl	_ZN6Thread5startEv
 230              	_ZN6Thread5startEv:
 231              	.LFB12:
   7:src/syscall_cpp.cpp ****     thread_scheduler(myHandle); //stavlja nit u scheduler
 232              		.loc 2 7 21 is_stmt 1
GAS LISTING /tmp/ccqegy9T.s 			page 6


 233              		.cfi_startproc
 234              	.LVL12:
 235 0064 130101FF 		addi	sp,sp,-16
 236              		.cfi_def_cfa_offset 16
 237 0068 23341100 		sd	ra,8(sp)
 238 006c 23308100 		sd	s0,0(sp)
 239              		.cfi_offset 1, -8
 240              		.cfi_offset 8, -16
 241 0070 13040101 		addi	s0,sp,16
 242              		.cfi_def_cfa 8, 0
   8:src/syscall_cpp.cpp ****     return 0;
 243              		.loc 2 8 5
   8:src/syscall_cpp.cpp ****     return 0;
 244              		.loc 2 8 21 is_stmt 0
 245 0074 03358500 		ld	a0,8(a0)
 246              	.LVL13:
 247 0078 97000000 		call	_Z16thread_schedulerP3PCB@plt
 247      E7800000 
 248              	.LVL14:
   9:src/syscall_cpp.cpp **** }
 249              		.loc 2 9 5 is_stmt 1
  10:src/syscall_cpp.cpp **** 
 250              		.loc 2 10 1 is_stmt 0
 251 0080 13050000 		li	a0,0
 252 0084 83308100 		ld	ra,8(sp)
 253              		.cfi_restore 1
 254 0088 03340100 		ld	s0,0(sp)
 255              		.cfi_restore 8
 256              		.cfi_def_cfa 2, 16
 257 008c 13010101 		addi	sp,sp,16
 258              		.cfi_def_cfa_offset 0
 259 0090 67800000 		jr	ra
 260              		.cfi_endproc
 261              	.LFE12:
 263              		.align	2
 264              		.globl	_ZN6Thread8dispatchEv
 266              	_ZN6Thread8dispatchEv:
 267              	.LFB13:
  12:src/syscall_cpp.cpp ****     thread_dispatch();
 268              		.loc 2 12 25 is_stmt 1
 269              		.cfi_startproc
 270 0094 130101FF 		addi	sp,sp,-16
 271              		.cfi_def_cfa_offset 16
 272 0098 23341100 		sd	ra,8(sp)
 273 009c 23308100 		sd	s0,0(sp)
 274              		.cfi_offset 1, -8
 275              		.cfi_offset 8, -16
 276 00a0 13040101 		addi	s0,sp,16
 277              		.cfi_def_cfa 8, 0
  13:src/syscall_cpp.cpp **** }
 278              		.loc 2 13 5
  13:src/syscall_cpp.cpp **** }
 279              		.loc 2 13 20 is_stmt 0
 280 00a4 97000000 		call	_Z15thread_dispatchv@plt
 280      E7800000 
 281              	.LVL15:
  14:src/syscall_cpp.cpp **** 
GAS LISTING /tmp/ccqegy9T.s 			page 7


 282              		.loc 2 14 1
 283 00ac 83308100 		ld	ra,8(sp)
 284              		.cfi_restore 1
 285 00b0 03340100 		ld	s0,0(sp)
 286              		.cfi_restore 8
 287              		.cfi_def_cfa 2, 16
 288 00b4 13010101 		addi	sp,sp,16
 289              		.cfi_def_cfa_offset 0
 290 00b8 67800000 		jr	ra
 291              		.cfi_endproc
 292              	.LFE13:
 294              		.align	2
 295              		.globl	_ZN6ThreadC2Ev
 297              	_ZN6ThreadC2Ev:
 298              	.LFB15:
  16:src/syscall_cpp.cpp ****     thread_alloc(&myHandle, runWrapper, this); //samo alocira nit
 299              		.loc 2 16 1 is_stmt 1
 300              		.cfi_startproc
 301              	.LVL16:
 302 00bc 130101FF 		addi	sp,sp,-16
 303              		.cfi_def_cfa_offset 16
 304 00c0 23341100 		sd	ra,8(sp)
 305 00c4 23308100 		sd	s0,0(sp)
 306              		.cfi_offset 1, -8
 307              		.cfi_offset 8, -16
 308 00c8 13040101 		addi	s0,sp,16
 309              		.cfi_def_cfa 8, 0
 310              	.LBB9:
  16:src/syscall_cpp.cpp ****     thread_alloc(&myHandle, runWrapper, this); //samo alocira nit
 311              		.loc 2 16 16 is_stmt 0
 312 00cc 97070000 		lla	a5,_ZTV6Thread+16
 312      93870700 
 313 00d4 2330F500 		sd	a5,0(a0)
  17:src/syscall_cpp.cpp **** }
 314              		.loc 2 17 5 is_stmt 1
  17:src/syscall_cpp.cpp **** }
 315              		.loc 2 17 17 is_stmt 0
 316 00d8 13060500 		mv	a2,a0
 317 00dc 97050000 		lla	a1,_ZN6Thread10runWrapperEPv
 317      93850500 
 318 00e4 13058500 		addi	a0,a0,8
 319              	.LVL17:
 320 00e8 97000000 		call	_Z12thread_allocPP3PCBPFvPvES2_@plt
 320      E7800000 
 321              	.LVL18:
 322              	.LBE9:
  18:src/syscall_cpp.cpp **** 
 323              		.loc 2 18 1
 324 00f0 83308100 		ld	ra,8(sp)
 325              		.cfi_restore 1
 326 00f4 03340100 		ld	s0,0(sp)
 327              		.cfi_restore 8
 328              		.cfi_def_cfa 2, 16
 329 00f8 13010101 		addi	sp,sp,16
 330              		.cfi_def_cfa_offset 0
 331 00fc 67800000 		jr	ra
 332              		.cfi_endproc
GAS LISTING /tmp/ccqegy9T.s 			page 8


 333              	.LFE15:
 335              		.globl	_ZN6ThreadC1Ev
 336              		.set	_ZN6ThreadC1Ev,_ZN6ThreadC2Ev
 337              		.align	2
 338              		.globl	_ZN9SemaphoreC2Ej
 340              	_ZN9SemaphoreC2Ej:
 341              	.LFB19:
  23:src/syscall_cpp.cpp **** 
  24:src/syscall_cpp.cpp **** Semaphore::Semaphore(unsigned int init) {
 342              		.loc 2 24 1 is_stmt 1
 343              		.cfi_startproc
 344              	.LVL19:
 345 0100 130101FF 		addi	sp,sp,-16
 346              		.cfi_def_cfa_offset 16
 347 0104 23341100 		sd	ra,8(sp)
 348 0108 23308100 		sd	s0,0(sp)
 349              		.cfi_offset 1, -8
 350              		.cfi_offset 8, -16
 351 010c 13040101 		addi	s0,sp,16
 352              		.cfi_def_cfa 8, 0
 353              	.LBB10:
 354              		.loc 2 24 39 is_stmt 0
 355 0110 97070000 		lla	a5,_ZTV9Semaphore+16
 355      93870700 
 356 0118 2330F500 		sd	a5,0(a0)
  25:src/syscall_cpp.cpp ****     sem_open(&myHandle, init);
 357              		.loc 2 25 5 is_stmt 1
 358              		.loc 2 25 13 is_stmt 0
 359 011c 13058500 		addi	a0,a0,8
 360              	.LVL20:
 361 0120 97000000 		call	_Z8sem_openPP3Semj@plt
 361      E7800000 
 362              	.LVL21:
 363              	.LBE10:
  26:src/syscall_cpp.cpp **** }
 364              		.loc 2 26 1
 365 0128 83308100 		ld	ra,8(sp)
 366              		.cfi_restore 1
 367 012c 03340100 		ld	s0,0(sp)
 368              		.cfi_restore 8
 369              		.cfi_def_cfa 2, 16
 370 0130 13010101 		addi	sp,sp,16
 371              		.cfi_def_cfa_offset 0
 372 0134 67800000 		jr	ra
 373              		.cfi_endproc
 374              	.LFE19:
 376              		.globl	_ZN9SemaphoreC1Ej
 377              		.set	_ZN9SemaphoreC1Ej,_ZN9SemaphoreC2Ej
 378              		.align	2
 379              		.globl	_ZN9Semaphore4waitEv
 381              	_ZN9Semaphore4waitEv:
 382              	.LFB21:
  27:src/syscall_cpp.cpp **** /*
  28:src/syscall_cpp.cpp **** Semaphore::~Semaphore() {
  29:src/syscall_cpp.cpp ****     sem_close(myHandle);
  30:src/syscall_cpp.cpp **** }*/
  31:src/syscall_cpp.cpp **** 
GAS LISTING /tmp/ccqegy9T.s 			page 9


  32:src/syscall_cpp.cpp **** int Semaphore::wait() {
 383              		.loc 2 32 23 is_stmt 1
 384              		.cfi_startproc
 385              	.LVL22:
 386 0138 130101FF 		addi	sp,sp,-16
 387              		.cfi_def_cfa_offset 16
 388 013c 23341100 		sd	ra,8(sp)
 389 0140 23308100 		sd	s0,0(sp)
 390              		.cfi_offset 1, -8
 391              		.cfi_offset 8, -16
 392 0144 13040101 		addi	s0,sp,16
 393              		.cfi_def_cfa 8, 0
  33:src/syscall_cpp.cpp ****     return sem_wait(myHandle);
 394              		.loc 2 33 5
 395              		.loc 2 33 20 is_stmt 0
 396 0148 03358500 		ld	a0,8(a0)
 397              	.LVL23:
 398 014c 97000000 		call	_Z8sem_waitP3Sem@plt
 398      E7800000 
 399              	.LVL24:
  34:src/syscall_cpp.cpp **** }
 400              		.loc 2 34 1
 401 0154 83308100 		ld	ra,8(sp)
 402              		.cfi_restore 1
 403 0158 03340100 		ld	s0,0(sp)
 404              		.cfi_restore 8
 405              		.cfi_def_cfa 2, 16
 406 015c 13010101 		addi	sp,sp,16
 407              		.cfi_def_cfa_offset 0
 408 0160 67800000 		jr	ra
 409              		.cfi_endproc
 410              	.LFE21:
 412              		.align	2
 413              		.globl	_ZN9Semaphore6signalEv
 415              	_ZN9Semaphore6signalEv:
 416              	.LFB22:
  35:src/syscall_cpp.cpp **** 
  36:src/syscall_cpp.cpp **** int Semaphore::signal() {
 417              		.loc 2 36 25 is_stmt 1
 418              		.cfi_startproc
 419              	.LVL25:
 420 0164 130101FF 		addi	sp,sp,-16
 421              		.cfi_def_cfa_offset 16
 422 0168 23341100 		sd	ra,8(sp)
 423 016c 23308100 		sd	s0,0(sp)
 424              		.cfi_offset 1, -8
 425              		.cfi_offset 8, -16
 426 0170 13040101 		addi	s0,sp,16
 427              		.cfi_def_cfa 8, 0
  37:src/syscall_cpp.cpp ****     return sem_signal(myHandle);
 428              		.loc 2 37 5
 429              		.loc 2 37 22 is_stmt 0
 430 0174 03358500 		ld	a0,8(a0)
 431              	.LVL26:
 432 0178 97000000 		call	_Z10sem_signalP3Sem@plt
 432      E7800000 
 433              	.LVL27:
GAS LISTING /tmp/ccqegy9T.s 			page 10


  38:src/syscall_cpp.cpp **** }
 434              		.loc 2 38 1
 435 0180 83308100 		ld	ra,8(sp)
 436              		.cfi_restore 1
 437 0184 03340100 		ld	s0,0(sp)
 438              		.cfi_restore 8
 439              		.cfi_def_cfa 2, 16
 440 0188 13010101 		addi	sp,sp,16
 441              		.cfi_def_cfa_offset 0
 442 018c 67800000 		jr	ra
 443              		.cfi_endproc
 444              	.LFE22:
 446              		.align	2
 447              		.globl	_ZN7Console4getcEv
 449              	_ZN7Console4getcEv:
 450              	.LFB23:
  39:src/syscall_cpp.cpp **** 
  40:src/syscall_cpp.cpp **** char Console::getc() {
 451              		.loc 2 40 22 is_stmt 1
 452              		.cfi_startproc
 453 0190 130101FF 		addi	sp,sp,-16
 454              		.cfi_def_cfa_offset 16
 455 0194 23341100 		sd	ra,8(sp)
 456 0198 23308100 		sd	s0,0(sp)
 457              		.cfi_offset 1, -8
 458              		.cfi_offset 8, -16
 459 019c 13040101 		addi	s0,sp,16
 460              		.cfi_def_cfa 8, 0
  41:src/syscall_cpp.cpp ****     return ::getc();
 461              		.loc 2 41 5
 462              		.loc 2 41 18 is_stmt 0
 463 01a0 97000000 		call	_Z4getcv@plt
 463      E7800000 
 464              	.LVL28:
  42:src/syscall_cpp.cpp **** }
 465              		.loc 2 42 1
 466 01a8 83308100 		ld	ra,8(sp)
 467              		.cfi_restore 1
 468 01ac 03340100 		ld	s0,0(sp)
 469              		.cfi_restore 8
 470              		.cfi_def_cfa 2, 16
 471 01b0 13010101 		addi	sp,sp,16
 472              		.cfi_def_cfa_offset 0
 473 01b4 67800000 		jr	ra
 474              		.cfi_endproc
 475              	.LFE23:
 477              		.align	2
 478              		.globl	_ZN7Console4putcEc
 480              	_ZN7Console4putcEc:
 481              	.LFB24:
  43:src/syscall_cpp.cpp **** 
  44:src/syscall_cpp.cpp **** void Console::putc(char c) {
 482              		.loc 2 44 28 is_stmt 1
 483              		.cfi_startproc
 484              	.LVL29:
 485 01b8 130101FF 		addi	sp,sp,-16
 486              		.cfi_def_cfa_offset 16
GAS LISTING /tmp/ccqegy9T.s 			page 11


 487 01bc 23341100 		sd	ra,8(sp)
 488 01c0 23308100 		sd	s0,0(sp)
 489              		.cfi_offset 1, -8
 490              		.cfi_offset 8, -16
 491 01c4 13040101 		addi	s0,sp,16
 492              		.cfi_def_cfa 8, 0
  45:src/syscall_cpp.cpp ****     return ::putc(c);
 493              		.loc 2 45 5
 494              		.loc 2 45 18 is_stmt 0
 495 01c8 97000000 		call	_Z4putcc@plt
 495      E7800000 
 496              	.LVL30:
  46:src/syscall_cpp.cpp **** }
 497              		.loc 2 46 1
 498 01d0 83308100 		ld	ra,8(sp)
 499              		.cfi_restore 1
 500 01d4 03340100 		ld	s0,0(sp)
 501              		.cfi_restore 8
 502              		.cfi_def_cfa 2, 16
 503 01d8 13010101 		addi	sp,sp,16
 504              		.cfi_def_cfa_offset 0
 505 01dc 67800000 		jr	ra
 506              		.cfi_endproc
 507              	.LFE24:
 509              		.weak	_ZTV6Thread
 510              		.section	.data.rel.ro.local._ZTV6Thread,"awG",@progbits,_ZTV6Thread,comdat
 511              		.align	3
 514              	_ZTV6Thread:
 515 0000 00000000 		.dword	0
 515      00000000 
 516 0008 00000000 		.dword	0
 516      00000000 
 517 0010 00000000 		.dword	_ZN6ThreadD1Ev
 517      00000000 
 518 0018 00000000 		.dword	_ZN6ThreadD0Ev
 518      00000000 
 519 0020 00000000 		.dword	_ZN6Thread3runEv
 519      00000000 
 520              		.weak	_ZTV9Semaphore
 521              		.section	.data.rel.ro.local._ZTV9Semaphore,"awG",@progbits,_ZTV9Semaphore,comdat
 522              		.align	3
 525              	_ZTV9Semaphore:
 526 0000 00000000 		.dword	0
 526      00000000 
 527 0008 00000000 		.dword	0
 527      00000000 
 528 0010 00000000 		.dword	_ZN9SemaphoreD1Ev
 528      00000000 
 529 0018 00000000 		.dword	_ZN9SemaphoreD0Ev
 529      00000000 
 530              		.text
 531              	.Letext0:
 532              		.file 3 "src/../h/../lib/hw.h"
 533              		.file 4 "src/../h/syscall_c.h"
GAS LISTING /tmp/ccqegy9T.s 			page 12


DEFINED SYMBOLS
                            *ABS*:0000000000000000 syscall_cpp.cpp
     /tmp/ccqegy9T.s:10     .text._ZN6ThreadD2Ev:0000000000000000 _ZN6ThreadD2Ev
     /tmp/ccqegy9T.s:14     .text._ZN6ThreadD2Ev:0000000000000000 .L0 
     /tmp/ccqegy9T.s:16     .text._ZN6ThreadD2Ev:0000000000000000 .L0 
     /tmp/ccqegy9T.s:17     .text._ZN6ThreadD2Ev:0000000000000004 .L0 
     /tmp/ccqegy9T.s:19     .text._ZN6ThreadD2Ev:0000000000000008 .L0 
     /tmp/ccqegy9T.s:21     .text._ZN6ThreadD2Ev:000000000000000c .L0 
     /tmp/ccqegy9T.s:23     .text._ZN6ThreadD2Ev:000000000000000c .L0 
     /tmp/ccqegy9T.s:24     .text._ZN6ThreadD2Ev:0000000000000010 .L0 
     /tmp/ccqegy9T.s:25     .text._ZN6ThreadD2Ev:0000000000000010 .L0 
     /tmp/ccqegy9T.s:27     .text._ZN6ThreadD2Ev:0000000000000014 .L0 
     /tmp/ccqegy9T.s:29     .text._ZN6ThreadD2Ev:0000000000000018 .L0 
     /tmp/ccqegy9T.s:10     .text._ZN6ThreadD2Ev:0000000000000000 _ZN6ThreadD1Ev
     /tmp/ccqegy9T.s:38     .text._ZN6Thread3runEv:0000000000000000 _ZN6Thread3runEv
     /tmp/ccqegy9T.s:41     .text._ZN6Thread3runEv:0000000000000000 .L0 
     /tmp/ccqegy9T.s:43     .text._ZN6Thread3runEv:0000000000000000 .L0 
     /tmp/ccqegy9T.s:44     .text._ZN6Thread3runEv:0000000000000004 .L0 
     /tmp/ccqegy9T.s:46     .text._ZN6Thread3runEv:0000000000000008 .L0 
     /tmp/ccqegy9T.s:48     .text._ZN6Thread3runEv:000000000000000c .L0 
     /tmp/ccqegy9T.s:50     .text._ZN6Thread3runEv:000000000000000c .L0 
     /tmp/ccqegy9T.s:51     .text._ZN6Thread3runEv:0000000000000010 .L0 
     /tmp/ccqegy9T.s:52     .text._ZN6Thread3runEv:0000000000000010 .L0 
     /tmp/ccqegy9T.s:54     .text._ZN6Thread3runEv:0000000000000014 .L0 
     /tmp/ccqegy9T.s:56     .text._ZN6Thread3runEv:0000000000000018 .L0 
     /tmp/ccqegy9T.s:63     .text._ZN9SemaphoreD2Ev:0000000000000000 _ZN9SemaphoreD2Ev
     /tmp/ccqegy9T.s:66     .text._ZN9SemaphoreD2Ev:0000000000000000 .L0 
     /tmp/ccqegy9T.s:68     .text._ZN9SemaphoreD2Ev:0000000000000000 .L0 
     /tmp/ccqegy9T.s:69     .text._ZN9SemaphoreD2Ev:0000000000000004 .L0 
     /tmp/ccqegy9T.s:71     .text._ZN9SemaphoreD2Ev:0000000000000008 .L0 
     /tmp/ccqegy9T.s:73     .text._ZN9SemaphoreD2Ev:000000000000000c .L0 
     /tmp/ccqegy9T.s:75     .text._ZN9SemaphoreD2Ev:000000000000000c .L0 
     /tmp/ccqegy9T.s:76     .text._ZN9SemaphoreD2Ev:0000000000000010 .L0 
     /tmp/ccqegy9T.s:77     .text._ZN9SemaphoreD2Ev:0000000000000010 .L0 
     /tmp/ccqegy9T.s:79     .text._ZN9SemaphoreD2Ev:0000000000000014 .L0 
     /tmp/ccqegy9T.s:81     .text._ZN9SemaphoreD2Ev:0000000000000018 .L0 
     /tmp/ccqegy9T.s:63     .text._ZN9SemaphoreD2Ev:0000000000000000 _ZN9SemaphoreD1Ev
     /tmp/ccqegy9T.s:90     .text:0000000000000000 _ZN6Thread10runWrapperEPv
     /tmp/ccqegy9T.s:94     .text:0000000000000000 .L0 
     /tmp/ccqegy9T.s:96     .text:0000000000000000 .L0 
     /tmp/ccqegy9T.s:97     .text:0000000000000004 .L0 
     /tmp/ccqegy9T.s:100    .text:000000000000000c .L0 
     /tmp/ccqegy9T.s:101    .text:000000000000000c .L0 
     /tmp/ccqegy9T.s:103    .text:0000000000000010 .L0 
     /tmp/ccqegy9T.s:105    .text:0000000000000010 .L0 
     /tmp/ccqegy9T.s:106    .text:0000000000000010 .L0 
     /tmp/ccqegy9T.s:109    .text:0000000000000018 .L0 
     /tmp/ccqegy9T.s:112    .text:000000000000001c .L0 
     /tmp/ccqegy9T.s:113    .text:0000000000000020 .L0 
     /tmp/ccqegy9T.s:115    .text:0000000000000024 .L0 
     /tmp/ccqegy9T.s:116    .text:0000000000000024 .L0 
     /tmp/ccqegy9T.s:118    .text:0000000000000028 .L0 
     /tmp/ccqegy9T.s:120    .text:000000000000002c .L0 
     /tmp/ccqegy9T.s:127    .text._ZN6ThreadD0Ev:0000000000000000 _ZN6ThreadD0Ev
     /tmp/ccqegy9T.s:130    .text._ZN6ThreadD0Ev:0000000000000000 .L0 
     /tmp/ccqegy9T.s:132    .text._ZN6ThreadD0Ev:0000000000000000 .L0 
     /tmp/ccqegy9T.s:133    .text._ZN6ThreadD0Ev:0000000000000004 .L0 
GAS LISTING /tmp/ccqegy9T.s 			page 13


     /tmp/ccqegy9T.s:136    .text._ZN6ThreadD0Ev:000000000000000c .L0 
     /tmp/ccqegy9T.s:137    .text._ZN6ThreadD0Ev:000000000000000c .L0 
     /tmp/ccqegy9T.s:139    .text._ZN6ThreadD0Ev:0000000000000010 .L0 
     /tmp/ccqegy9T.s:141    .text._ZN6ThreadD0Ev:0000000000000010 .L0 
     /tmp/ccqegy9T.s:144    .text._ZN6ThreadD0Ev:000000000000001c .L0 
     /tmp/ccqegy9T.s:146    .text._ZN6ThreadD0Ev:0000000000000020 .L0 
     /tmp/ccqegy9T.s:147    .text._ZN6ThreadD0Ev:0000000000000020 .L0 
     /tmp/ccqegy9T.s:149    .text._ZN6ThreadD0Ev:0000000000000024 .L0 
     /tmp/ccqegy9T.s:151    .text._ZN6ThreadD0Ev:0000000000000028 .L0 
     /tmp/ccqegy9T.s:158    .text._ZN9SemaphoreD0Ev:0000000000000000 _ZN9SemaphoreD0Ev
     /tmp/ccqegy9T.s:161    .text._ZN9SemaphoreD0Ev:0000000000000000 .L0 
     /tmp/ccqegy9T.s:163    .text._ZN9SemaphoreD0Ev:0000000000000000 .L0 
     /tmp/ccqegy9T.s:164    .text._ZN9SemaphoreD0Ev:0000000000000004 .L0 
     /tmp/ccqegy9T.s:167    .text._ZN9SemaphoreD0Ev:000000000000000c .L0 
     /tmp/ccqegy9T.s:168    .text._ZN9SemaphoreD0Ev:000000000000000c .L0 
     /tmp/ccqegy9T.s:170    .text._ZN9SemaphoreD0Ev:0000000000000010 .L0 
     /tmp/ccqegy9T.s:172    .text._ZN9SemaphoreD0Ev:0000000000000010 .L0 
     /tmp/ccqegy9T.s:175    .text._ZN9SemaphoreD0Ev:000000000000001c .L0 
     /tmp/ccqegy9T.s:177    .text._ZN9SemaphoreD0Ev:0000000000000020 .L0 
     /tmp/ccqegy9T.s:178    .text._ZN9SemaphoreD0Ev:0000000000000020 .L0 
     /tmp/ccqegy9T.s:180    .text._ZN9SemaphoreD0Ev:0000000000000024 .L0 
     /tmp/ccqegy9T.s:182    .text._ZN9SemaphoreD0Ev:0000000000000028 .L0 
     /tmp/ccqegy9T.s:189    .text:000000000000002c _ZN6ThreadC2EPFvPvES0_
     /tmp/ccqegy9T.s:192    .text:000000000000002c .L0 
     /tmp/ccqegy9T.s:194    .text:000000000000002c .L0 
     /tmp/ccqegy9T.s:195    .text:0000000000000030 .L0 
     /tmp/ccqegy9T.s:198    .text:0000000000000038 .L0 
     /tmp/ccqegy9T.s:199    .text:0000000000000038 .L0 
     /tmp/ccqegy9T.s:201    .text:000000000000003c .L0 
     /tmp/ccqegy9T.s:514    .data.rel.ro.local._ZTV6Thread:0000000000000000 _ZTV6Thread
     /tmp/ccqegy9T.s:204    .text:000000000000003c .L0 
     /tmp/ccqegy9T.s:207    .text:0000000000000048 .L0 
     /tmp/ccqegy9T.s:208    .text:0000000000000048 .L0 
     /tmp/ccqegy9T.s:214    .text:0000000000000054 .L0 
     /tmp/ccqegy9T.s:215    .text:0000000000000058 .L0 
     /tmp/ccqegy9T.s:217    .text:000000000000005c .L0 
     /tmp/ccqegy9T.s:218    .text:000000000000005c .L0 
     /tmp/ccqegy9T.s:220    .text:0000000000000060 .L0 
     /tmp/ccqegy9T.s:222    .text:0000000000000064 .L0 
     /tmp/ccqegy9T.s:189    .text:000000000000002c _ZN6ThreadC1EPFvPvES0_
     /tmp/ccqegy9T.s:230    .text:0000000000000064 _ZN6Thread5startEv
     /tmp/ccqegy9T.s:233    .text:0000000000000064 .L0 
     /tmp/ccqegy9T.s:235    .text:0000000000000064 .L0 
     /tmp/ccqegy9T.s:236    .text:0000000000000068 .L0 
     /tmp/ccqegy9T.s:239    .text:0000000000000070 .L0 
     /tmp/ccqegy9T.s:240    .text:0000000000000070 .L0 
     /tmp/ccqegy9T.s:242    .text:0000000000000074 .L0 
     /tmp/ccqegy9T.s:244    .text:0000000000000074 .L0 
     /tmp/ccqegy9T.s:245    .text:0000000000000074 .L0 
     /tmp/ccqegy9T.s:250    .text:0000000000000080 .L0 
     /tmp/ccqegy9T.s:251    .text:0000000000000080 .L0 
     /tmp/ccqegy9T.s:253    .text:0000000000000088 .L0 
     /tmp/ccqegy9T.s:255    .text:000000000000008c .L0 
     /tmp/ccqegy9T.s:256    .text:000000000000008c .L0 
     /tmp/ccqegy9T.s:258    .text:0000000000000090 .L0 
     /tmp/ccqegy9T.s:260    .text:0000000000000094 .L0 
     /tmp/ccqegy9T.s:266    .text:0000000000000094 _ZN6Thread8dispatchEv
GAS LISTING /tmp/ccqegy9T.s 			page 14


     /tmp/ccqegy9T.s:269    .text:0000000000000094 .L0 
     /tmp/ccqegy9T.s:270    .text:0000000000000094 .L0 
     /tmp/ccqegy9T.s:271    .text:0000000000000098 .L0 
     /tmp/ccqegy9T.s:274    .text:00000000000000a0 .L0 
     /tmp/ccqegy9T.s:275    .text:00000000000000a0 .L0 
     /tmp/ccqegy9T.s:277    .text:00000000000000a4 .L0 
     /tmp/ccqegy9T.s:279    .text:00000000000000a4 .L0 
     /tmp/ccqegy9T.s:280    .text:00000000000000a4 .L0 
     /tmp/ccqegy9T.s:283    .text:00000000000000ac .L0 
     /tmp/ccqegy9T.s:284    .text:00000000000000b0 .L0 
     /tmp/ccqegy9T.s:286    .text:00000000000000b4 .L0 
     /tmp/ccqegy9T.s:287    .text:00000000000000b4 .L0 
     /tmp/ccqegy9T.s:289    .text:00000000000000b8 .L0 
     /tmp/ccqegy9T.s:291    .text:00000000000000bc .L0 
     /tmp/ccqegy9T.s:297    .text:00000000000000bc _ZN6ThreadC2Ev
     /tmp/ccqegy9T.s:300    .text:00000000000000bc .L0 
     /tmp/ccqegy9T.s:302    .text:00000000000000bc .L0 
     /tmp/ccqegy9T.s:303    .text:00000000000000c0 .L0 
     /tmp/ccqegy9T.s:306    .text:00000000000000c8 .L0 
     /tmp/ccqegy9T.s:307    .text:00000000000000c8 .L0 
     /tmp/ccqegy9T.s:309    .text:00000000000000cc .L0 
     /tmp/ccqegy9T.s:312    .text:00000000000000cc .L0 
     /tmp/ccqegy9T.s:315    .text:00000000000000d8 .L0 
     /tmp/ccqegy9T.s:316    .text:00000000000000d8 .L0 
     /tmp/ccqegy9T.s:324    .text:00000000000000f0 .L0 
     /tmp/ccqegy9T.s:325    .text:00000000000000f4 .L0 
     /tmp/ccqegy9T.s:327    .text:00000000000000f8 .L0 
     /tmp/ccqegy9T.s:328    .text:00000000000000f8 .L0 
     /tmp/ccqegy9T.s:330    .text:00000000000000fc .L0 
     /tmp/ccqegy9T.s:332    .text:0000000000000100 .L0 
     /tmp/ccqegy9T.s:297    .text:00000000000000bc _ZN6ThreadC1Ev
     /tmp/ccqegy9T.s:340    .text:0000000000000100 _ZN9SemaphoreC2Ej
     /tmp/ccqegy9T.s:343    .text:0000000000000100 .L0 
     /tmp/ccqegy9T.s:345    .text:0000000000000100 .L0 
     /tmp/ccqegy9T.s:346    .text:0000000000000104 .L0 
     /tmp/ccqegy9T.s:349    .text:000000000000010c .L0 
     /tmp/ccqegy9T.s:350    .text:000000000000010c .L0 
     /tmp/ccqegy9T.s:352    .text:0000000000000110 .L0 
     /tmp/ccqegy9T.s:525    .data.rel.ro.local._ZTV9Semaphore:0000000000000000 _ZTV9Semaphore
     /tmp/ccqegy9T.s:355    .text:0000000000000110 .L0 
     /tmp/ccqegy9T.s:358    .text:000000000000011c .L0 
     /tmp/ccqegy9T.s:359    .text:000000000000011c .L0 
     /tmp/ccqegy9T.s:365    .text:0000000000000128 .L0 
     /tmp/ccqegy9T.s:366    .text:000000000000012c .L0 
     /tmp/ccqegy9T.s:368    .text:0000000000000130 .L0 
     /tmp/ccqegy9T.s:369    .text:0000000000000130 .L0 
     /tmp/ccqegy9T.s:371    .text:0000000000000134 .L0 
     /tmp/ccqegy9T.s:373    .text:0000000000000138 .L0 
     /tmp/ccqegy9T.s:340    .text:0000000000000100 _ZN9SemaphoreC1Ej
     /tmp/ccqegy9T.s:381    .text:0000000000000138 _ZN9Semaphore4waitEv
     /tmp/ccqegy9T.s:384    .text:0000000000000138 .L0 
     /tmp/ccqegy9T.s:386    .text:0000000000000138 .L0 
     /tmp/ccqegy9T.s:387    .text:000000000000013c .L0 
     /tmp/ccqegy9T.s:390    .text:0000000000000144 .L0 
     /tmp/ccqegy9T.s:391    .text:0000000000000144 .L0 
     /tmp/ccqegy9T.s:393    .text:0000000000000148 .L0 
     /tmp/ccqegy9T.s:395    .text:0000000000000148 .L0 
GAS LISTING /tmp/ccqegy9T.s 			page 15


     /tmp/ccqegy9T.s:396    .text:0000000000000148 .L0 
     /tmp/ccqegy9T.s:401    .text:0000000000000154 .L0 
     /tmp/ccqegy9T.s:402    .text:0000000000000158 .L0 
     /tmp/ccqegy9T.s:404    .text:000000000000015c .L0 
     /tmp/ccqegy9T.s:405    .text:000000000000015c .L0 
     /tmp/ccqegy9T.s:407    .text:0000000000000160 .L0 
     /tmp/ccqegy9T.s:409    .text:0000000000000164 .L0 
     /tmp/ccqegy9T.s:415    .text:0000000000000164 _ZN9Semaphore6signalEv
     /tmp/ccqegy9T.s:418    .text:0000000000000164 .L0 
     /tmp/ccqegy9T.s:420    .text:0000000000000164 .L0 
     /tmp/ccqegy9T.s:421    .text:0000000000000168 .L0 
     /tmp/ccqegy9T.s:424    .text:0000000000000170 .L0 
     /tmp/ccqegy9T.s:425    .text:0000000000000170 .L0 
     /tmp/ccqegy9T.s:427    .text:0000000000000174 .L0 
     /tmp/ccqegy9T.s:429    .text:0000000000000174 .L0 
     /tmp/ccqegy9T.s:430    .text:0000000000000174 .L0 
     /tmp/ccqegy9T.s:435    .text:0000000000000180 .L0 
     /tmp/ccqegy9T.s:436    .text:0000000000000184 .L0 
     /tmp/ccqegy9T.s:438    .text:0000000000000188 .L0 
     /tmp/ccqegy9T.s:439    .text:0000000000000188 .L0 
     /tmp/ccqegy9T.s:441    .text:000000000000018c .L0 
     /tmp/ccqegy9T.s:443    .text:0000000000000190 .L0 
     /tmp/ccqegy9T.s:449    .text:0000000000000190 _ZN7Console4getcEv
     /tmp/ccqegy9T.s:452    .text:0000000000000190 .L0 
     /tmp/ccqegy9T.s:453    .text:0000000000000190 .L0 
     /tmp/ccqegy9T.s:454    .text:0000000000000194 .L0 
     /tmp/ccqegy9T.s:457    .text:000000000000019c .L0 
     /tmp/ccqegy9T.s:458    .text:000000000000019c .L0 
     /tmp/ccqegy9T.s:460    .text:00000000000001a0 .L0 
     /tmp/ccqegy9T.s:462    .text:00000000000001a0 .L0 
     /tmp/ccqegy9T.s:463    .text:00000000000001a0 .L0 
     /tmp/ccqegy9T.s:466    .text:00000000000001a8 .L0 
     /tmp/ccqegy9T.s:467    .text:00000000000001ac .L0 
     /tmp/ccqegy9T.s:469    .text:00000000000001b0 .L0 
     /tmp/ccqegy9T.s:470    .text:00000000000001b0 .L0 
     /tmp/ccqegy9T.s:472    .text:00000000000001b4 .L0 
     /tmp/ccqegy9T.s:474    .text:00000000000001b8 .L0 
     /tmp/ccqegy9T.s:480    .text:00000000000001b8 _ZN7Console4putcEc
     /tmp/ccqegy9T.s:483    .text:00000000000001b8 .L0 
     /tmp/ccqegy9T.s:485    .text:00000000000001b8 .L0 
     /tmp/ccqegy9T.s:486    .text:00000000000001bc .L0 
     /tmp/ccqegy9T.s:489    .text:00000000000001c4 .L0 
     /tmp/ccqegy9T.s:490    .text:00000000000001c4 .L0 
     /tmp/ccqegy9T.s:492    .text:00000000000001c8 .L0 
     /tmp/ccqegy9T.s:494    .text:00000000000001c8 .L0 
     /tmp/ccqegy9T.s:495    .text:00000000000001c8 .L0 
     /tmp/ccqegy9T.s:498    .text:00000000000001d0 .L0 
     /tmp/ccqegy9T.s:499    .text:00000000000001d4 .L0 
     /tmp/ccqegy9T.s:501    .text:00000000000001d8 .L0 
     /tmp/ccqegy9T.s:502    .text:00000000000001d8 .L0 
     /tmp/ccqegy9T.s:504    .text:00000000000001dc .L0 
     /tmp/ccqegy9T.s:506    .text:00000000000001e0 .L0 
     /tmp/ccqegy9T.s:34     .text._ZN6ThreadD2Ev:0000000000000018 .L0 
     /tmp/ccqegy9T.s:59     .text._ZN6Thread3runEv:0000000000000018 .L0 
     /tmp/ccqegy9T.s:86     .text._ZN9SemaphoreD2Ev:0000000000000018 .L0 
     /tmp/ccqegy9T.s:534    .text:00000000000001e0 .L0 
     /tmp/ccqegy9T.s:154    .text._ZN6ThreadD0Ev:0000000000000028 .L0 
GAS LISTING /tmp/ccqegy9T.s 			page 16


     /tmp/ccqegy9T.s:185    .text._ZN9SemaphoreD0Ev:0000000000000028 .L0 
     /tmp/ccqegy9T.s:204    .text:000000000000003c .L0 
     /tmp/ccqegy9T.s:312    .text:00000000000000cc .L0 
     /tmp/ccqegy9T.s:317    .text:00000000000000dc .L0 
     /tmp/ccqegy9T.s:355    .text:0000000000000110 .L0 
     /tmp/ccqegy9T.s:1510   .debug_abbrev:0000000000000000 .Ldebug_abbrev0
     /tmp/ccqegy9T.s:2675   .debug_str:0000000000000478 .LASF83
     /tmp/ccqegy9T.s:2663   .debug_str:0000000000000410 .LASF84
     /tmp/ccqegy9T.s:2555   .debug_str:00000000000000e5 .LASF85
     /tmp/ccqegy9T.s:2503   .debug_ranges:0000000000000000 .Ldebug_ranges0
     /tmp/ccqegy9T.s:2519   .debug_line:0000000000000000 .Ldebug_line0
     /tmp/ccqegy9T.s:2695   .debug_str:00000000000005b5 .LASF0
     /tmp/ccqegy9T.s:2633   .debug_str:000000000000031f .LASF1
     /tmp/ccqegy9T.s:2609   .debug_str:0000000000000282 .LASF2
     /tmp/ccqegy9T.s:2621   .debug_str:00000000000002db .LASF4
     /tmp/ccqegy9T.s:2625   .debug_str:00000000000002eb .LASF3
     /tmp/ccqegy9T.s:2537   .debug_str:0000000000000065 .LASF5
     /tmp/ccqegy9T.s:2637   .debug_str:0000000000000345 .LASF6
     /tmp/ccqegy9T.s:2619   .debug_str:00000000000002c8 .LASF7
     /tmp/ccqegy9T.s:2687   .debug_str:000000000000057b .LASF8
     /tmp/ccqegy9T.s:2585   .debug_str:00000000000001d6 .LASF9
     /tmp/ccqegy9T.s:2647   .debug_str:0000000000000394 .LASF10
     /tmp/ccqegy9T.s:2677   .debug_str:000000000000053c .LASF11
     /tmp/ccqegy9T.s:2603   .debug_str:0000000000000255 .LASF12
     /tmp/ccqegy9T.s:2527   .debug_str:0000000000000020 .LASF13
     /tmp/ccqegy9T.s:2549   .debug_str:00000000000000c1 .LASF14
     /tmp/ccqegy9T.s:2667   .debug_str:0000000000000438 .LASF15
     /tmp/ccqegy9T.s:2559   .debug_str:000000000000010a .LASF16
     /tmp/ccqegy9T.s:2529   .debug_str:0000000000000030 .LASF17
     /tmp/ccqegy9T.s:2573   .debug_str:0000000000000178 .LASF18
     /tmp/ccqegy9T.s:2601   .debug_str:0000000000000248 .LASF19
     /tmp/ccqegy9T.s:2557   .debug_str:00000000000000ff .LASF20
     /tmp/ccqegy9T.s:2551   .debug_str:00000000000000cd .LASF21
     /tmp/ccqegy9T.s:2683   .debug_str:0000000000000564 .LASF22
     /tmp/ccqegy9T.s:2639   .debug_str:0000000000000358 .LASF23
     /tmp/ccqegy9T.s:2669   .debug_str:000000000000044e .LASF24
     /tmp/ccqegy9T.s:2697   .debug_str:00000000000005c2 .LASF25
     /tmp/ccqegy9T.s:2617   .debug_str:00000000000002bd .LASF26
     /tmp/ccqegy9T.s:2525   .debug_str:0000000000000013 .LASF27
     /tmp/ccqegy9T.s:2615   .debug_str:00000000000002b2 .LASF28
     /tmp/ccqegy9T.s:2693   .debug_str:00000000000005aa .LASF29
     /tmp/ccqegy9T.s:2521   .debug_str:0000000000000000 .LASF30
     /tmp/ccqegy9T.s:2565   .debug_str:000000000000013f .LASF31
     /tmp/ccqegy9T.s:2589   .debug_str:00000000000001fb .LASF86
     /tmp/ccqegy9T.s:2563   .debug_str:000000000000013a .LASF70
     /tmp/ccqegy9T.s:2543   .debug_str:0000000000000082 .LASF87
     /tmp/ccqegy9T.s:2541   .debug_str:000000000000007d .LASF33
     /tmp/ccqegy9T.s:2635   .debug_str:0000000000000332 .LASF54
     /tmp/ccqegy9T.s:2641   .debug_str:0000000000000368 .LASF32
     /tmp/ccqegy9T.s:2523   .debug_str:0000000000000009 .LASF34
     /tmp/ccqegy9T.s:2597   .debug_str:0000000000000222 .LASF40
     /tmp/ccqegy9T.s:2611   .debug_str:0000000000000290 .LASF42
     /tmp/ccqegy9T.s:2679   .debug_str:000000000000054b .LASF44
     /tmp/ccqegy9T.s:2661   .debug_str:0000000000000405 .LASF46
     /tmp/ccqegy9T.s:2547   .debug_str:00000000000000af .LASF48
     /tmp/ccqegy9T.s:2703   .debug_str:00000000000005e2 .LASF35
     /tmp/ccqegy9T.s:2659   .debug_str:00000000000003f0 .LASF37
GAS LISTING /tmp/ccqegy9T.s 			page 17


     /tmp/ccqegy9T.s:2643   .debug_str:000000000000036d .LASF36
     /tmp/ccqegy9T.s:2571   .debug_str:0000000000000161 .LASF38
     /tmp/ccqegy9T.s:2701   .debug_str:00000000000005d9 .LASF56
     /tmp/ccqegy9T.s:2689   .debug_str:000000000000058b .LASF88
     /tmp/ccqegy9T.s:2681   .debug_str:000000000000055d .LASF39
     /tmp/ccqegy9T.s:2613   .debug_str:00000000000002a0 .LASF41
     /tmp/ccqegy9T.s:2607   .debug_str:0000000000000275 .LASF43
     /tmp/ccqegy9T.s:2651   .debug_str:00000000000003ad .LASF45
     /tmp/ccqegy9T.s:2595   .debug_str:000000000000021a .LASF47
     /tmp/ccqegy9T.s:2627   .debug_str:00000000000002fd .LASF49
     /tmp/ccqegy9T.s:2631   .debug_str:0000000000000319 .LASF50
     /tmp/ccqegy9T.s:2581   .debug_str:00000000000001b4 .LASF51
     /tmp/ccqegy9T.s:2623   .debug_str:00000000000002e2 .LASF89
     /tmp/ccqegy9T.s:2579   .debug_str:000000000000019e .LASF90
     /tmp/ccqegy9T.s:2583   .debug_str:00000000000001c7 .LASF52
     /tmp/ccqegy9T.s:2539   .debug_str:000000000000006c .LASF91
     /tmp/ccqegy9T.s:2699   .debug_str:00000000000005ce .LASF53
     /tmp/ccqegy9T.s:2545   .debug_str:0000000000000095 .LASF55
     /tmp/ccqegy9T.s:481    .text:00000000000001b8 .LFB24
     /tmp/ccqegy9T.s:507    .text:00000000000001e0 .LFE24
     /tmp/ccqegy9T.s:2282   .debug_loc:0000000000000000 .LLST12
     /tmp/ccqegy9T.s:496    .text:00000000000001d0 .LVL30
     /tmp/ccqegy9T.s:450    .text:0000000000000190 .LFB23
     /tmp/ccqegy9T.s:475    .text:00000000000001b8 .LFE23
     /tmp/ccqegy9T.s:464    .text:00000000000001a8 .LVL28
     /tmp/ccqegy9T.s:416    .text:0000000000000164 .LFB22
     /tmp/ccqegy9T.s:444    .text:0000000000000190 .LFE22
     /tmp/ccqegy9T.s:2655   .debug_str:00000000000003d9 .LASF57
     /tmp/ccqegy9T.s:2296   .debug_loc:0000000000000039 .LLST11
     /tmp/ccqegy9T.s:433    .text:0000000000000180 .LVL27
     /tmp/ccqegy9T.s:382    .text:0000000000000138 .LFB21
     /tmp/ccqegy9T.s:410    .text:0000000000000164 .LFE21
     /tmp/ccqegy9T.s:2310   .debug_loc:0000000000000072 .LLST10
     /tmp/ccqegy9T.s:399    .text:0000000000000154 .LVL24
     /tmp/ccqegy9T.s:2705   .debug_str:00000000000005e7 .LASF60
     /tmp/ccqegy9T.s:2657   .debug_str:00000000000003de .LASF58
     /tmp/ccqegy9T.s:341    .text:0000000000000100 .LFB19
     /tmp/ccqegy9T.s:374    .text:0000000000000138 .LFE19
     /tmp/ccqegy9T.s:2324   .debug_loc:00000000000000ab .LLST8
     /tmp/ccqegy9T.s:2344   .debug_loc:00000000000000f9 .LLST9
     /tmp/ccqegy9T.s:362    .text:0000000000000128 .LVL21
     /tmp/ccqegy9T.s:91     .text:0000000000000000 .LFB17
     /tmp/ccqegy9T.s:121    .text:000000000000002c .LFE17
     /tmp/ccqegy9T.s:2358   .debug_loc:0000000000000132 .LLST0
     /tmp/ccqegy9T.s:110    .text:000000000000001c .LVL4
     /tmp/ccqegy9T.s:2691   .debug_str:000000000000059b .LASF59
     /tmp/ccqegy9T.s:298    .text:00000000000000bc .LFB15
     /tmp/ccqegy9T.s:333    .text:0000000000000100 .LFE15
     /tmp/ccqegy9T.s:2372   .debug_loc:000000000000016b .LLST7
     /tmp/ccqegy9T.s:321    .text:00000000000000f0 .LVL18
     /tmp/ccqegy9T.s:267    .text:0000000000000094 .LFB13
     /tmp/ccqegy9T.s:292    .text:00000000000000bc .LFE13
     /tmp/ccqegy9T.s:281    .text:00000000000000ac .LVL15
     /tmp/ccqegy9T.s:231    .text:0000000000000064 .LFB12
     /tmp/ccqegy9T.s:261    .text:0000000000000094 .LFE12
     /tmp/ccqegy9T.s:2390   .debug_loc:00000000000001b7 .LLST6
     /tmp/ccqegy9T.s:248    .text:0000000000000080 .LVL14
GAS LISTING /tmp/ccqegy9T.s 			page 18


     /tmp/ccqegy9T.s:2593   .debug_str:0000000000000215 .LASF61
     /tmp/ccqegy9T.s:2587   .debug_str:00000000000001e4 .LASF62
     /tmp/ccqegy9T.s:190    .text:000000000000002c .LFB10
     /tmp/ccqegy9T.s:223    .text:0000000000000064 .LFE10
     /tmp/ccqegy9T.s:2404   .debug_loc:00000000000001f0 .LLST3
     /tmp/ccqegy9T.s:2424   .debug_loc:000000000000023e .LLST4
     /tmp/ccqegy9T.s:2438   .debug_loc:0000000000000277 .LLST5
     /tmp/ccqegy9T.s:211    .text:0000000000000054 .LVL11
     /tmp/ccqegy9T.s:2649   .debug_str:00000000000003a3 .LASF63
     /tmp/ccqegy9T.s:2577   .debug_str:000000000000018c .LASF64
     /tmp/ccqegy9T.s:159    .text._ZN9SemaphoreD0Ev:0000000000000000 .LFB8
     /tmp/ccqegy9T.s:183    .text._ZN9SemaphoreD0Ev:0000000000000028 .LFE8
     /tmp/ccqegy9T.s:2452   .debug_loc:00000000000002b0 .LLST2
     /tmp/ccqegy9T.s:173    .text._ZN9SemaphoreD0Ev:0000000000000018 .LVL8
     /tmp/ccqegy9T.s:2591   .debug_str:0000000000000203 .LASF65
     /tmp/ccqegy9T.s:64     .text._ZN9SemaphoreD2Ev:0000000000000000 .LFB6
     /tmp/ccqegy9T.s:82     .text._ZN9SemaphoreD2Ev:0000000000000018 .LFE6
     /tmp/ccqegy9T.s:39     .text._ZN6Thread3runEv:0000000000000000 .LFB4
     /tmp/ccqegy9T.s:57     .text._ZN6Thread3runEv:0000000000000018 .LFE4
     /tmp/ccqegy9T.s:2531   .debug_str:000000000000003c .LASF66
     /tmp/ccqegy9T.s:128    .text._ZN6ThreadD0Ev:0000000000000000 .LFB3
     /tmp/ccqegy9T.s:152    .text._ZN6ThreadD0Ev:0000000000000028 .LFE3
     /tmp/ccqegy9T.s:2466   .debug_loc:00000000000002e9 .LLST1
     /tmp/ccqegy9T.s:142    .text._ZN6ThreadD0Ev:0000000000000018 .LVL6
     /tmp/ccqegy9T.s:2673   .debug_str:0000000000000469 .LASF67
     /tmp/ccqegy9T.s:11     .text._ZN6ThreadD2Ev:0000000000000000 .LFB1
     /tmp/ccqegy9T.s:30     .text._ZN6ThreadD2Ev:0000000000000018 .LFE1
     /tmp/ccqegy9T.s:2575   .debug_str:0000000000000183 .LASF68
     /tmp/ccqegy9T.s:2535   .debug_str:000000000000005c .LASF69
     /tmp/ccqegy9T.s:2665   .debug_str:0000000000000424 .LASF71
     /tmp/ccqegy9T.s:2685   .debug_str:0000000000000570 .LASF72
     /tmp/ccqegy9T.s:2533   .debug_str:000000000000004b .LASF73
     /tmp/ccqegy9T.s:2553   .debug_str:00000000000000dc .LASF74
     /tmp/ccqegy9T.s:2567   .debug_str:0000000000000145 .LASF75
     /tmp/ccqegy9T.s:2569   .debug_str:0000000000000158 .LASF76
     /tmp/ccqegy9T.s:2645   .debug_str:0000000000000374 .LASF77
     /tmp/ccqegy9T.s:2629   .debug_str:000000000000030c .LASF78
     /tmp/ccqegy9T.s:2653   .debug_str:00000000000003c4 .LASF79
     /tmp/ccqegy9T.s:2605   .debug_str:0000000000000265 .LASF80
     /tmp/ccqegy9T.s:2561   .debug_str:0000000000000120 .LASF81
     /tmp/ccqegy9T.s:2599   .debug_str:0000000000000237 .LASF82
     /tmp/ccqegy9T.s:2707   .debug_str:00000000000005ec .LASF92
     /tmp/ccqegy9T.s:2671   .debug_str:0000000000000459 .LASF93
     /tmp/ccqegy9T.s:484    .text:00000000000001b8 .LVL29
     /tmp/ccqegy9T.s:419    .text:0000000000000164 .LVL25
     /tmp/ccqegy9T.s:431    .text:0000000000000178 .LVL26
     /tmp/ccqegy9T.s:385    .text:0000000000000138 .LVL22
     /tmp/ccqegy9T.s:397    .text:000000000000014c .LVL23
     /tmp/ccqegy9T.s:344    .text:0000000000000100 .LVL19
     /tmp/ccqegy9T.s:360    .text:0000000000000120 .LVL20
     /tmp/ccqegy9T.s:95     .text:0000000000000000 .LVL3
     /tmp/ccqegy9T.s:301    .text:00000000000000bc .LVL16
     /tmp/ccqegy9T.s:319    .text:00000000000000e8 .LVL17
     /tmp/ccqegy9T.s:234    .text:0000000000000064 .LVL12
     /tmp/ccqegy9T.s:246    .text:0000000000000078 .LVL13
     /tmp/ccqegy9T.s:193    .text:000000000000002c .LVL9
     /tmp/ccqegy9T.s:209    .text:000000000000004c .LVL10
GAS LISTING /tmp/ccqegy9T.s 			page 19


     /tmp/ccqegy9T.s:162    .text._ZN9SemaphoreD0Ev:0000000000000000 .LVL7
     /tmp/ccqegy9T.s:131    .text._ZN6ThreadD0Ev:0000000000000000 .LVL5
     /tmp/ccqegy9T.s:535    .debug_info:0000000000000000 .Ldebug_info0
     /tmp/ccqegy9T.s:5      .text:0000000000000000 .Ltext0
     /tmp/ccqegy9T.s:531    .text:00000000000001e0 .Letext0
                           .group:0000000000000000 _ZN6ThreadD5Ev
                           .group:0000000000000000 _ZN9SemaphoreD5Ev

UNDEFINED SYMBOLS
_ZdlPv
_Z12thread_allocPP3PCBPFvPvES2_
_Z16thread_schedulerP3PCB
_Z15thread_dispatchv
_Z8sem_openPP3Semj
_Z8sem_waitP3Sem
_Z10sem_signalP3Sem
_Z4getcv
_Z4putcc
