GAS LISTING /tmp/cceVBYsj.s 			page 1


   1              		.file	"syscall_c.cpp"
   2              		.option pic
   3              		.option norelax
   4              		.text
   5              	.Ltext0:
   6              		.align	2
   7              		.globl	_Z7syscallv
   9              	_Z7syscallv:
  10              	.LFB0:
  11              		.file 1 "src/syscall_c.cpp"
   1:src/syscall_c.cpp **** #include "../h/syscall_c.h"
   2:src/syscall_c.cpp **** 
   3:src/syscall_c.cpp **** void syscall() {
  12              		.loc 1 3 16
  13              		.cfi_startproc
  14 0000 130101FF 		addi	sp,sp,-16
  15              		.cfi_def_cfa_offset 16
  16 0004 23348100 		sd	s0,8(sp)
  17              		.cfi_offset 8, -8
  18 0008 13040101 		addi	s0,sp,16
  19              		.cfi_def_cfa 8, 0
   4:src/syscall_c.cpp ****     __asm__ volatile("ecall");
  20              		.loc 1 4 5
  21              		.loc 1 4 30 is_stmt 0
  22              	#APP
  23              	# 4 "src/syscall_c.cpp" 1
   5              	}
  24              		ecall
  25              	# 0 "" 2
  26              		.loc 1 5 1
  27              	#NO_APP
  28 0010 03348100 		ld	s0,8(sp)
  29              		.cfi_restore 8
  30              		.cfi_def_cfa 2, 16
  31 0014 13010101 		addi	sp,sp,16
  32              		.cfi_def_cfa_offset 0
  33 0018 67800000 		jr	ra
  34              		.cfi_endproc
  35              	.LFE0:
  37              		.align	2
  38              		.globl	_Z9mem_allocm
  40              	_Z9mem_allocm:
  41              	.LFB1:
   6:src/syscall_c.cpp **** 
   7:src/syscall_c.cpp **** void *mem_alloc(size_t size) {
  42              		.loc 1 7 30 is_stmt 1
  43              		.cfi_startproc
  44              	.LVL0:
  45 001c 130101FF 		addi	sp,sp,-16
  46              		.cfi_def_cfa_offset 16
  47 0020 23341100 		sd	ra,8(sp)
  48 0024 23308100 		sd	s0,0(sp)
  49              		.cfi_offset 1, -8
  50              		.cfi_offset 8, -16
  51 0028 13040101 		addi	s0,sp,16
  52              		.cfi_def_cfa 8, 0
   8:src/syscall_c.cpp ****     size = size % MEM_BLOCK_SIZE == 0 ? size / MEM_BLOCK_SIZE : (size / MEM_BLOCK_SIZE + 1 ); //pre
GAS LISTING /tmp/cceVBYsj.s 			page 2


  53              		.loc 1 8 5
  54              		.loc 1 8 17 is_stmt 0
  55 002c 9377F503 		andi	a5,a0,63
  56              		.loc 1 8 39
  57 0030 63980702 		bnez	a5,.L4
  58              		.loc 1 8 39 discriminator 1
  59 0034 13556500 		srli	a0,a0,6
  60              	.LVL1:
  61              	.L5:
   9:src/syscall_c.cpp **** 
  10:src/syscall_c.cpp ****     __asm__ volatile("mv a1, %0" : : "r" (size));
  62              		.loc 1 10 5 is_stmt 1 discriminator 4
  63              		.loc 1 10 49 is_stmt 0 discriminator 4
  64              	#APP
  65              	# 10 "src/syscall_c.cpp" 1
  11              	    __asm__ volatile("mv a0, %0" : : "r" (MALLOC_CODE));
  66              		mv a1, a0
  67              	# 0 "" 2
  68              		.loc 1 11 5 is_stmt 1 discriminator 4
  69              		.loc 1 11 56 is_stmt 0 discriminator 4
  70              	#NO_APP
  71 003c 93071000 		li	a5,1
  72              	#APP
  73              	# 11 "src/syscall_c.cpp" 1
  12              	
  13:src/syscall_c.cpp ****     syscall();
  74              		mv a0, a5
  75              	# 0 "" 2
  76              		.loc 1 13 5 is_stmt 1 discriminator 4
  77              		.loc 1 13 12 is_stmt 0 discriminator 4
  78              	#NO_APP
  79 0044 97000000 		call	_Z7syscallv
  79      E7800000 
  80              	.LVL2:
  14:src/syscall_c.cpp **** 
  15:src/syscall_c.cpp ****     void* ret;
  81              		.loc 1 15 5 is_stmt 1 discriminator 4
  16:src/syscall_c.cpp ****     __asm__ volatile("mv %0, a0" : "=r" (ret));
  82              		.loc 1 16 5 discriminator 4
  83              		.loc 1 16 47 is_stmt 0 discriminator 4
  84              	#APP
  85              	# 16 "src/syscall_c.cpp" 1
  17              	    return ret;
  86              		mv a0, a0
  87              	# 0 "" 2
  88              	.LVL3:
  89              		.loc 1 17 5 is_stmt 1 discriminator 4
  18:src/syscall_c.cpp **** }
  90              		.loc 1 18 1 is_stmt 0 discriminator 4
  91              	#NO_APP
  92 0050 83308100 		ld	ra,8(sp)
  93              		.cfi_remember_state
  94              		.cfi_restore 1
  95 0054 03340100 		ld	s0,0(sp)
  96              		.cfi_restore 8
  97              		.cfi_def_cfa 2, 16
  98 0058 13010101 		addi	sp,sp,16
GAS LISTING /tmp/cceVBYsj.s 			page 3


  99              		.cfi_def_cfa_offset 0
 100 005c 67800000 		jr	ra
 101              	.LVL4:
 102              	.L4:
 103              		.cfi_restore_state
   8:src/syscall_c.cpp **** 
 104              		.loc 1 8 71 discriminator 2
 105 0060 13556500 		srli	a0,a0,6
 106              	.LVL5:
   8:src/syscall_c.cpp **** 
 107              		.loc 1 8 39 discriminator 2
 108 0064 13051500 		addi	a0,a0,1
 109 0068 6FF01FFD 		j	.L5
 110              		.cfi_endproc
 111              	.LFE1:
 113              		.align	2
 114              		.globl	_Z8mem_freePv
 116              	_Z8mem_freePv:
 117              	.LFB2:
  19:src/syscall_c.cpp **** 
  20:src/syscall_c.cpp **** int mem_free(void *addr) {
 118              		.loc 1 20 26 is_stmt 1
 119              		.cfi_startproc
 120              	.LVL6:
 121 006c 130101FF 		addi	sp,sp,-16
 122              		.cfi_def_cfa_offset 16
 123 0070 23341100 		sd	ra,8(sp)
 124 0074 23308100 		sd	s0,0(sp)
 125              		.cfi_offset 1, -8
 126              		.cfi_offset 8, -16
 127 0078 13040101 		addi	s0,sp,16
 128              		.cfi_def_cfa 8, 0
  21:src/syscall_c.cpp ****     __asm__ volatile("mv a1, %0" : : "r" (addr));
 129              		.loc 1 21 5
 130              		.loc 1 21 49 is_stmt 0
 131              	#APP
 132              	# 21 "src/syscall_c.cpp" 1
  22              	    __asm__ volatile("mv a0, %0" : : "r" (MFREE_CODE));
 133              		mv a1, a0
 134              	# 0 "" 2
 135              		.loc 1 22 5 is_stmt 1
 136              		.loc 1 22 55 is_stmt 0
 137              	#NO_APP
 138 0080 93072000 		li	a5,2
 139              	#APP
 140              	# 22 "src/syscall_c.cpp" 1
  23              	
  24:src/syscall_c.cpp ****     syscall();
 141              		mv a0, a5
 142              	# 0 "" 2
 143              		.loc 1 24 5 is_stmt 1
 144              		.loc 1 24 12 is_stmt 0
 145              	#NO_APP
 146 0088 97000000 		call	_Z7syscallv
 146      E7800000 
 147              	.LVL7:
  25:src/syscall_c.cpp **** 
GAS LISTING /tmp/cceVBYsj.s 			page 4


  26:src/syscall_c.cpp ****     int ret;
 148              		.loc 1 26 5 is_stmt 1
  27:src/syscall_c.cpp ****     __asm__ volatile("mv %0, a0" : "=r" (ret));
 149              		.loc 1 27 5
 150              		.loc 1 27 47 is_stmt 0
 151              	#APP
 152              	# 27 "src/syscall_c.cpp" 1
  28              	    return ret;
 153              		mv a0, a0
 154              	# 0 "" 2
 155              	.LVL8:
 156              		.loc 1 28 5 is_stmt 1
  29:src/syscall_c.cpp **** }
 157              		.loc 1 29 1 is_stmt 0
 158              	#NO_APP
 159 0094 1B050500 		sext.w	a0,a0
 160 0098 83308100 		ld	ra,8(sp)
 161              		.cfi_restore 1
 162 009c 03340100 		ld	s0,0(sp)
 163              		.cfi_restore 8
 164              		.cfi_def_cfa 2, 16
 165 00a0 13010101 		addi	sp,sp,16
 166              		.cfi_def_cfa_offset 0
 167 00a4 67800000 		jr	ra
 168              		.cfi_endproc
 169              	.LFE2:
 171              		.align	2
 172              		.globl	_Z13thread_createPP3PCBPFvPvES2_
 174              	_Z13thread_createPP3PCBPFvPvES2_:
 175              	.LFB3:
  30:src/syscall_c.cpp **** 
  31:src/syscall_c.cpp **** int thread_create (thread_t* handle, void(*start_routine)(void*), void* arg) {
 176              		.loc 1 31 78 is_stmt 1
 177              		.cfi_startproc
 178              	.LVL9:
 179 00a8 130101FD 		addi	sp,sp,-48
 180              		.cfi_def_cfa_offset 48
 181 00ac 23341102 		sd	ra,40(sp)
 182 00b0 23308102 		sd	s0,32(sp)
 183 00b4 233C9100 		sd	s1,24(sp)
 184 00b8 23382101 		sd	s2,16(sp)
 185 00bc 23343101 		sd	s3,8(sp)
 186              		.cfi_offset 1, -8
 187              		.cfi_offset 8, -16
 188              		.cfi_offset 9, -24
 189              		.cfi_offset 18, -32
 190              		.cfi_offset 19, -40
 191 00c0 13040103 		addi	s0,sp,48
 192              		.cfi_def_cfa 8, 0
 193 00c4 93040500 		mv	s1,a0
 194 00c8 13890500 		mv	s2,a1
 195 00cc 93090600 		mv	s3,a2
  32:src/syscall_c.cpp ****     thread_t *tempHandle = handle; void(*tempRoutine)(void*) = start_routine; void* tempArg = arg;
 196              		.loc 1 32 5
 197              	.LVL10:
 198              		.loc 1 32 36
 199              		.loc 1 32 79
GAS LISTING /tmp/cceVBYsj.s 			page 5


  33:src/syscall_c.cpp **** 
  34:src/syscall_c.cpp ****     uint64* stack_space;
 200              		.loc 1 34 5
  35:src/syscall_c.cpp ****     if (start_routine != nullptr) {
 201              		.loc 1 35 5
 202 00d0 63800506 		beqz	a1,.L12
  36:src/syscall_c.cpp ****         stack_space = new uint64[DEFAULT_STACK_SIZE];
 203              		.loc 1 36 9
 204              		.loc 1 36 52 is_stmt 0
 205 00d4 37850000 		li	a0,32768
 206              	.LVL11:
 207 00d8 97000000 		call	_Znam@plt
 207      E7800000 
 208              	.LVL12:
  37:src/syscall_c.cpp ****         stack_space = &stack_space[DEFAULT_STACK_SIZE];
 209              		.loc 1 37 9 is_stmt 1
 210              		.loc 1 37 21 is_stmt 0
 211 00e0 B7870000 		li	a5,32768
 212 00e4 3305F500 		add	a0,a0,a5
 213              	.LVL13:
 214              	.L10:
  38:src/syscall_c.cpp ****     } else stack_space = nullptr;
  39:src/syscall_c.cpp **** 
  40:src/syscall_c.cpp ****     __asm__ volatile("mv a7, %0" : : "r" (stack_space));
 215              		.loc 1 40 5 is_stmt 1
 216              		.loc 1 40 56 is_stmt 0
 217              	#APP
 218              	# 40 "src/syscall_c.cpp" 1
  41              	    __asm__ volatile("mv a3, %0" : : "r" (tempArg));
 219              		mv a7, a0
 220              	# 0 "" 2
 221              		.loc 1 41 5 is_stmt 1
 222              		.loc 1 41 52 is_stmt 0
 223              	# 41 "src/syscall_c.cpp" 1
  42              	    __asm__ volatile("mv a2, %0" : : "r" (tempRoutine));
 224              		mv a3, s3
 225              	# 0 "" 2
 226              		.loc 1 42 5 is_stmt 1
 227              		.loc 1 42 56 is_stmt 0
 228              	# 42 "src/syscall_c.cpp" 1
  43              	    __asm__ volatile("mv a1, %0" : : "r" (tempHandle));
 229              		mv a2, s2
 230              	# 0 "" 2
 231              		.loc 1 43 5 is_stmt 1
 232              		.loc 1 43 55 is_stmt 0
 233              	# 43 "src/syscall_c.cpp" 1
  44              	    __asm__ volatile("mv a0, %0" : : "r" (TCREATE_CODE));
 234              		mv a1, s1
 235              	# 0 "" 2
 236              		.loc 1 44 5 is_stmt 1
 237              		.loc 1 44 57 is_stmt 0
 238              	#NO_APP
 239 00f8 93071001 		li	a5,17
 240              	#APP
 241              	# 44 "src/syscall_c.cpp" 1
  45              	
  46:src/syscall_c.cpp ****     syscall();
GAS LISTING /tmp/cceVBYsj.s 			page 6


 242              		mv a0, a5
 243              	# 0 "" 2
 244              		.loc 1 46 5 is_stmt 1
 245              		.loc 1 46 12 is_stmt 0
 246              	#NO_APP
 247 0100 97000000 		call	_Z7syscallv
 247      E7800000 
 248              	.LVL14:
  47:src/syscall_c.cpp **** 
  48:src/syscall_c.cpp ****     int ret = *handle ? 0 : -1;
 249              		.loc 1 48 5 is_stmt 1
 250              		.loc 1 48 15 is_stmt 0
 251 0108 83B70400 		ld	a5,0(s1)
 252              		.loc 1 48 23
 253 010c 63860702 		beqz	a5,.L13
 254 0110 13050000 		li	a0,0
 255              	.L11:
 256              	.LVL15:
  49:src/syscall_c.cpp ****     return ret;
 257              		.loc 1 49 5 is_stmt 1 discriminator 4
  50:src/syscall_c.cpp **** }
 258              		.loc 1 50 1 is_stmt 0 discriminator 4
 259 0114 83308102 		ld	ra,40(sp)
 260              		.cfi_remember_state
 261              		.cfi_restore 1
 262 0118 03340102 		ld	s0,32(sp)
 263              		.cfi_restore 8
 264              		.cfi_def_cfa 2, 48
 265 011c 83348101 		ld	s1,24(sp)
 266              		.cfi_restore 9
 267              	.LVL16:
 268 0120 03390101 		ld	s2,16(sp)
 269              		.cfi_restore 18
 270              	.LVL17:
 271 0124 83398100 		ld	s3,8(sp)
 272              		.cfi_restore 19
 273              	.LVL18:
 274 0128 13010103 		addi	sp,sp,48
 275              		.cfi_def_cfa_offset 0
 276 012c 67800000 		jr	ra
 277              	.LVL19:
 278              	.L12:
 279              		.cfi_restore_state
  38:src/syscall_c.cpp **** 
 280              		.loc 1 38 24
 281 0130 13050000 		li	a0,0
 282 0134 6FF05FFB 		j	.L10
 283              	.LVL20:
 284              	.L13:
  48:src/syscall_c.cpp ****     return ret;
 285              		.loc 1 48 23
 286 0138 1305F0FF 		li	a0,-1
 287 013c 6FF09FFD 		j	.L11
 288              		.cfi_endproc
 289              	.LFE3:
 291              		.align	2
 292              		.globl	_Z15thread_dispatchv
GAS LISTING /tmp/cceVBYsj.s 			page 7


 294              	_Z15thread_dispatchv:
 295              	.LFB4:
  51:src/syscall_c.cpp **** 
  52:src/syscall_c.cpp **** void thread_dispatch () {
 296              		.loc 1 52 25 is_stmt 1
 297              		.cfi_startproc
 298 0140 130101FF 		addi	sp,sp,-16
 299              		.cfi_def_cfa_offset 16
 300 0144 23341100 		sd	ra,8(sp)
 301 0148 23308100 		sd	s0,0(sp)
 302              		.cfi_offset 1, -8
 303              		.cfi_offset 8, -16
 304 014c 13040101 		addi	s0,sp,16
 305              		.cfi_def_cfa 8, 0
  53:src/syscall_c.cpp ****     __asm__ volatile("mv a0, %0" : : "r" (TDISPATCH_CODE));
 306              		.loc 1 53 5
 307              		.loc 1 53 59 is_stmt 0
 308 0150 93073001 		li	a5,19
 309              	#APP
 310              	# 53 "src/syscall_c.cpp" 1
  54              	
  55:src/syscall_c.cpp ****     syscall();
 311              		mv a0, a5
 312              	# 0 "" 2
 313              		.loc 1 55 5 is_stmt 1
 314              		.loc 1 55 12 is_stmt 0
 315              	#NO_APP
 316 0158 97000000 		call	_Z7syscallv
 316      E7800000 
 317              	.LVL21:
  56:src/syscall_c.cpp **** }
 318              		.loc 1 56 1
 319 0160 83308100 		ld	ra,8(sp)
 320              		.cfi_restore 1
 321 0164 03340100 		ld	s0,0(sp)
 322              		.cfi_restore 8
 323              		.cfi_def_cfa 2, 16
 324 0168 13010101 		addi	sp,sp,16
 325              		.cfi_def_cfa_offset 0
 326 016c 67800000 		jr	ra
 327              		.cfi_endproc
 328              	.LFE4:
 330              		.align	2
 331              		.globl	_Z11thread_exitv
 333              	_Z11thread_exitv:
 334              	.LFB5:
  57:src/syscall_c.cpp **** 
  58:src/syscall_c.cpp **** 
  59:src/syscall_c.cpp **** int thread_exit() {
 335              		.loc 1 59 19 is_stmt 1
 336              		.cfi_startproc
 337 0170 130101FF 		addi	sp,sp,-16
 338              		.cfi_def_cfa_offset 16
 339 0174 23341100 		sd	ra,8(sp)
 340 0178 23308100 		sd	s0,0(sp)
 341              		.cfi_offset 1, -8
 342              		.cfi_offset 8, -16
GAS LISTING /tmp/cceVBYsj.s 			page 8


 343 017c 13040101 		addi	s0,sp,16
 344              		.cfi_def_cfa 8, 0
  60:src/syscall_c.cpp ****     __asm__ volatile("mv a0, %0" : : "r" (TEXIT_CODE));
 345              		.loc 1 60 5
 346              		.loc 1 60 55 is_stmt 0
 347 0180 93072001 		li	a5,18
 348              	#APP
 349              	# 60 "src/syscall_c.cpp" 1
  61              	
  62:src/syscall_c.cpp ****     syscall();
 350              		mv a0, a5
 351              	# 0 "" 2
 352              		.loc 1 62 5 is_stmt 1
 353              		.loc 1 62 12 is_stmt 0
 354              	#NO_APP
 355 0188 97000000 		call	_Z7syscallv
 355      E7800000 
 356              	.LVL22:
  63:src/syscall_c.cpp **** 
  64:src/syscall_c.cpp ****     return 0; //ne znam kad moze da dodje do greske
 357              		.loc 1 64 5 is_stmt 1
  65:src/syscall_c.cpp **** }
 358              		.loc 1 65 1 is_stmt 0
 359 0190 13050000 		li	a0,0
 360 0194 83308100 		ld	ra,8(sp)
 361              		.cfi_restore 1
 362 0198 03340100 		ld	s0,0(sp)
 363              		.cfi_restore 8
 364              		.cfi_def_cfa 2, 16
 365 019c 13010101 		addi	sp,sp,16
 366              		.cfi_def_cfa_offset 0
 367 01a0 67800000 		jr	ra
 368              		.cfi_endproc
 369              	.LFE5:
 371              		.align	2
 372              		.globl	_Z8sem_openPP3Semj
 374              	_Z8sem_openPP3Semj:
 375              	.LFB6:
  66:src/syscall_c.cpp **** 
  67:src/syscall_c.cpp **** int sem_open(sem_t* handle, uint32 init) {
 376              		.loc 1 67 42 is_stmt 1
 377              		.cfi_startproc
 378              	.LVL23:
 379 01a4 130101FE 		addi	sp,sp,-32
 380              		.cfi_def_cfa_offset 32
 381 01a8 233C1100 		sd	ra,24(sp)
 382 01ac 23388100 		sd	s0,16(sp)
 383 01b0 23349100 		sd	s1,8(sp)
 384              		.cfi_offset 1, -8
 385              		.cfi_offset 8, -16
 386              		.cfi_offset 9, -24
 387 01b4 13040102 		addi	s0,sp,32
 388              		.cfi_def_cfa 8, 0
 389 01b8 93040500 		mv	s1,a0
  68:src/syscall_c.cpp ****     __asm__ volatile("mv a2, %0" : : "r" (init));
 390              		.loc 1 68 5
 391              		.loc 1 68 49 is_stmt 0
GAS LISTING /tmp/cceVBYsj.s 			page 9


 392              	#APP
 393              	# 68 "src/syscall_c.cpp" 1
  69              	    __asm__ volatile("mv a1, %0" : : "r" (handle));
 394              		mv a2, a1
 395              	# 0 "" 2
 396              		.loc 1 69 5 is_stmt 1
 397              		.loc 1 69 51 is_stmt 0
 398              	# 69 "src/syscall_c.cpp" 1
  70              	    __asm__ volatile("mv a0, %0" : : "r" (SOPEN_CODE));
 399              		mv a1, a0
 400              	# 0 "" 2
 401              		.loc 1 70 5 is_stmt 1
 402              		.loc 1 70 55 is_stmt 0
 403              	#NO_APP
 404 01c4 93071002 		li	a5,33
 405              	#APP
 406              	# 70 "src/syscall_c.cpp" 1
  71              	
  72:src/syscall_c.cpp ****     syscall();
 407              		mv a0, a5
 408              	# 0 "" 2
 409              		.loc 1 72 5 is_stmt 1
 410              		.loc 1 72 12 is_stmt 0
 411              	#NO_APP
 412 01cc 97000000 		call	_Z7syscallv
 412      E7800000 
 413              	.LVL24:
  73:src/syscall_c.cpp **** 
  74:src/syscall_c.cpp ****     int ret = *handle ? 0 : -1;
 414              		.loc 1 74 5 is_stmt 1
 415              		.loc 1 74 15 is_stmt 0
 416 01d4 83B70400 		ld	a5,0(s1)
 417              		.loc 1 74 23
 418 01d8 638E0700 		beqz	a5,.L21
 419 01dc 13050000 		li	a0,0
 420              	.L20:
 421              	.LVL25:
  75:src/syscall_c.cpp ****     return ret;
 422              		.loc 1 75 5 is_stmt 1 discriminator 4
  76:src/syscall_c.cpp **** }
 423              		.loc 1 76 1 is_stmt 0 discriminator 4
 424 01e0 83308101 		ld	ra,24(sp)
 425              		.cfi_remember_state
 426              		.cfi_restore 1
 427 01e4 03340101 		ld	s0,16(sp)
 428              		.cfi_restore 8
 429              		.cfi_def_cfa 2, 32
 430 01e8 83348100 		ld	s1,8(sp)
 431              		.cfi_restore 9
 432              	.LVL26:
 433 01ec 13010102 		addi	sp,sp,32
 434              		.cfi_def_cfa_offset 0
 435 01f0 67800000 		jr	ra
 436              	.LVL27:
 437              	.L21:
 438              		.cfi_restore_state
  74:src/syscall_c.cpp ****     return ret;
GAS LISTING /tmp/cceVBYsj.s 			page 10


 439              		.loc 1 74 23
 440 01f4 1305F0FF 		li	a0,-1
 441 01f8 6FF09FFE 		j	.L20
 442              		.cfi_endproc
 443              	.LFE6:
 445              		.align	2
 446              		.globl	_Z9sem_closeP3Sem
 448              	_Z9sem_closeP3Sem:
 449              	.LFB7:
  77:src/syscall_c.cpp **** 
  78:src/syscall_c.cpp **** int sem_close(sem_t handle) {
 450              		.loc 1 78 29 is_stmt 1
 451              		.cfi_startproc
 452              	.LVL28:
 453 01fc 130101FF 		addi	sp,sp,-16
 454              		.cfi_def_cfa_offset 16
 455 0200 23341100 		sd	ra,8(sp)
 456 0204 23308100 		sd	s0,0(sp)
 457              		.cfi_offset 1, -8
 458              		.cfi_offset 8, -16
 459 0208 13040101 		addi	s0,sp,16
 460              		.cfi_def_cfa 8, 0
  79:src/syscall_c.cpp ****     __asm__ volatile("mv a1, %0" : : "r" (handle));
 461              		.loc 1 79 5
 462              		.loc 1 79 51 is_stmt 0
 463              	#APP
 464              	# 79 "src/syscall_c.cpp" 1
  80              	    __asm__ volatile("mv a0, %0" : : "r" (SCLOSE_CODE));
 465              		mv a1, a0
 466              	# 0 "" 2
 467              		.loc 1 80 5 is_stmt 1
 468              		.loc 1 80 56 is_stmt 0
 469              	#NO_APP
 470 0210 93072002 		li	a5,34
 471              	#APP
 472              	# 80 "src/syscall_c.cpp" 1
  81              	
  82:src/syscall_c.cpp ****     syscall();
 473              		mv a0, a5
 474              	# 0 "" 2
 475              		.loc 1 82 5 is_stmt 1
 476              		.loc 1 82 12 is_stmt 0
 477              	#NO_APP
 478 0218 97000000 		call	_Z7syscallv
 478      E7800000 
 479              	.LVL29:
  83:src/syscall_c.cpp **** 
  84:src/syscall_c.cpp ****     int ret;
 480              		.loc 1 84 5 is_stmt 1
  85:src/syscall_c.cpp ****     __asm__ volatile("mv %0, a0" : "=r" (ret));
 481              		.loc 1 85 5
 482              		.loc 1 85 47 is_stmt 0
 483              	#APP
 484              	# 85 "src/syscall_c.cpp" 1
  86              	    return ret;
 485              		mv a0, a0
 486              	# 0 "" 2
GAS LISTING /tmp/cceVBYsj.s 			page 11


 487              	.LVL30:
 488              		.loc 1 86 5 is_stmt 1
  87:src/syscall_c.cpp **** }
 489              		.loc 1 87 1 is_stmt 0
 490              	#NO_APP
 491 0224 1B050500 		sext.w	a0,a0
 492 0228 83308100 		ld	ra,8(sp)
 493              		.cfi_restore 1
 494 022c 03340100 		ld	s0,0(sp)
 495              		.cfi_restore 8
 496              		.cfi_def_cfa 2, 16
 497 0230 13010101 		addi	sp,sp,16
 498              		.cfi_def_cfa_offset 0
 499 0234 67800000 		jr	ra
 500              		.cfi_endproc
 501              	.LFE7:
 503              		.align	2
 504              		.globl	_Z10sem_deleteP3Sem
 506              	_Z10sem_deleteP3Sem:
 507              	.LFB8:
  88:src/syscall_c.cpp **** 
  89:src/syscall_c.cpp **** void sem_delete(sem_t handle) {
 508              		.loc 1 89 31 is_stmt 1
 509              		.cfi_startproc
 510              	.LVL31:
 511 0238 130101FF 		addi	sp,sp,-16
 512              		.cfi_def_cfa_offset 16
 513 023c 23341100 		sd	ra,8(sp)
 514 0240 23308100 		sd	s0,0(sp)
 515              		.cfi_offset 1, -8
 516              		.cfi_offset 8, -16
 517 0244 13040101 		addi	s0,sp,16
 518              		.cfi_def_cfa 8, 0
  90:src/syscall_c.cpp ****     __asm__ volatile("mv a1, %0" : : "r" (handle));
 519              		.loc 1 90 5
 520              		.loc 1 90 51 is_stmt 0
 521              	#APP
 522              	# 90 "src/syscall_c.cpp" 1
  91              	    __asm__ volatile("mv a0, %0" : : "r" (SDELETE_CODE));
 523              		mv a1, a0
 524              	# 0 "" 2
 525              		.loc 1 91 5 is_stmt 1
 526              		.loc 1 91 57 is_stmt 0
 527              	#NO_APP
 528 024c 93075002 		li	a5,37
 529              	#APP
 530              	# 91 "src/syscall_c.cpp" 1
  92              	
  93:src/syscall_c.cpp ****     syscall();
 531              		mv a0, a5
 532              	# 0 "" 2
 533              		.loc 1 93 5 is_stmt 1
 534              		.loc 1 93 12 is_stmt 0
 535              	#NO_APP
 536 0254 97000000 		call	_Z7syscallv
 536      E7800000 
 537              	.LVL32:
GAS LISTING /tmp/cceVBYsj.s 			page 12


  94:src/syscall_c.cpp **** }
 538              		.loc 1 94 1
 539 025c 83308100 		ld	ra,8(sp)
 540              		.cfi_restore 1
 541 0260 03340100 		ld	s0,0(sp)
 542              		.cfi_restore 8
 543              		.cfi_def_cfa 2, 16
 544 0264 13010101 		addi	sp,sp,16
 545              		.cfi_def_cfa_offset 0
 546 0268 67800000 		jr	ra
 547              		.cfi_endproc
 548              	.LFE8:
 550              		.align	2
 551              		.globl	_Z8sem_waitP3Sem
 553              	_Z8sem_waitP3Sem:
 554              	.LFB9:
  95:src/syscall_c.cpp **** 
  96:src/syscall_c.cpp **** int sem_wait(sem_t id) {
 555              		.loc 1 96 24 is_stmt 1
 556              		.cfi_startproc
 557              	.LVL33:
 558 026c 130101FF 		addi	sp,sp,-16
 559              		.cfi_def_cfa_offset 16
 560 0270 23341100 		sd	ra,8(sp)
 561 0274 23308100 		sd	s0,0(sp)
 562              		.cfi_offset 1, -8
 563              		.cfi_offset 8, -16
 564 0278 13040101 		addi	s0,sp,16
 565              		.cfi_def_cfa 8, 0
  97:src/syscall_c.cpp ****     __asm__ volatile("mv a1, %0" : : "r" (id));
 566              		.loc 1 97 5
 567              		.loc 1 97 47 is_stmt 0
 568              	#APP
 569              	# 97 "src/syscall_c.cpp" 1
  98              	    __asm__ volatile("mv a0, %0" : : "r" (SWAIT_CODE));
 570              		mv a1, a0
 571              	# 0 "" 2
 572              		.loc 1 98 5 is_stmt 1
 573              		.loc 1 98 55 is_stmt 0
 574              	#NO_APP
 575 0280 93073002 		li	a5,35
 576              	#APP
 577              	# 98 "src/syscall_c.cpp" 1
  99              	
 100:src/syscall_c.cpp ****     syscall();
 578              		mv a0, a5
 579              	# 0 "" 2
 580              		.loc 1 100 5 is_stmt 1
 581              		.loc 1 100 12 is_stmt 0
 582              	#NO_APP
 583 0288 97000000 		call	_Z7syscallv
 583      E7800000 
 584              	.LVL34:
 101:src/syscall_c.cpp **** 
 102:src/syscall_c.cpp ****     int ret;
 585              		.loc 1 102 5 is_stmt 1
 103:src/syscall_c.cpp ****     __asm__ volatile("mv %0, a0" : "=r" (ret));
GAS LISTING /tmp/cceVBYsj.s 			page 13


 586              		.loc 1 103 5
 587              		.loc 1 103 47 is_stmt 0
 588              	#APP
 589              	# 103 "src/syscall_c.cpp" 1
 104              	    return ret;
 590              		mv a0, a0
 591              	# 0 "" 2
 592              	.LVL35:
 593              		.loc 1 104 5 is_stmt 1
 105:src/syscall_c.cpp **** }
 594              		.loc 1 105 1 is_stmt 0
 595              	#NO_APP
 596 0294 1B050500 		sext.w	a0,a0
 597 0298 83308100 		ld	ra,8(sp)
 598              		.cfi_restore 1
 599 029c 03340100 		ld	s0,0(sp)
 600              		.cfi_restore 8
 601              		.cfi_def_cfa 2, 16
 602 02a0 13010101 		addi	sp,sp,16
 603              		.cfi_def_cfa_offset 0
 604 02a4 67800000 		jr	ra
 605              		.cfi_endproc
 606              	.LFE9:
 608              		.align	2
 609              		.globl	_Z10sem_signalP3Sem
 611              	_Z10sem_signalP3Sem:
 612              	.LFB10:
 106:src/syscall_c.cpp **** 
 107:src/syscall_c.cpp **** int sem_signal(sem_t id) {
 613              		.loc 1 107 26 is_stmt 1
 614              		.cfi_startproc
 615              	.LVL36:
 616 02a8 130101FF 		addi	sp,sp,-16
 617              		.cfi_def_cfa_offset 16
 618 02ac 23341100 		sd	ra,8(sp)
 619 02b0 23308100 		sd	s0,0(sp)
 620              		.cfi_offset 1, -8
 621              		.cfi_offset 8, -16
 622 02b4 13040101 		addi	s0,sp,16
 623              		.cfi_def_cfa 8, 0
 108:src/syscall_c.cpp ****     __asm__ volatile("mv a1, %0" : : "r" (id));
 624              		.loc 1 108 5
 625              		.loc 1 108 47 is_stmt 0
 626              	#APP
 627              	# 108 "src/syscall_c.cpp" 1
 109              	    __asm__ volatile("mv a0, %0" : : "r" (SSIGNAL_CODE));
 628              		mv a1, a0
 629              	# 0 "" 2
 630              		.loc 1 109 5 is_stmt 1
 631              		.loc 1 109 57 is_stmt 0
 632              	#NO_APP
 633 02bc 93074002 		li	a5,36
 634              	#APP
 635              	# 109 "src/syscall_c.cpp" 1
 110              	
 111:src/syscall_c.cpp ****     syscall();
 636              		mv a0, a5
GAS LISTING /tmp/cceVBYsj.s 			page 14


 637              	# 0 "" 2
 638              		.loc 1 111 5 is_stmt 1
 639              		.loc 1 111 12 is_stmt 0
 640              	#NO_APP
 641 02c4 97000000 		call	_Z7syscallv
 641      E7800000 
 642              	.LVL37:
 112:src/syscall_c.cpp **** 
 113:src/syscall_c.cpp ****     int ret;
 643              		.loc 1 113 5 is_stmt 1
 114:src/syscall_c.cpp ****     __asm__ volatile("mv %0, a0" : "=r" (ret));
 644              		.loc 1 114 5
 645              		.loc 1 114 47 is_stmt 0
 646              	#APP
 647              	# 114 "src/syscall_c.cpp" 1
 115              	    return ret;
 648              		mv a0, a0
 649              	# 0 "" 2
 650              	.LVL38:
 651              		.loc 1 115 5 is_stmt 1
 116:src/syscall_c.cpp **** }
 652              		.loc 1 116 1 is_stmt 0
 653              	#NO_APP
 654 02d0 1B050500 		sext.w	a0,a0
 655 02d4 83308100 		ld	ra,8(sp)
 656              		.cfi_restore 1
 657 02d8 03340100 		ld	s0,0(sp)
 658              		.cfi_restore 8
 659              		.cfi_def_cfa 2, 16
 660 02dc 13010101 		addi	sp,sp,16
 661              		.cfi_def_cfa_offset 0
 662 02e0 67800000 		jr	ra
 663              		.cfi_endproc
 664              	.LFE10:
 666              		.align	2
 667              		.globl	_Z4getcv
 669              	_Z4getcv:
 670              	.LFB11:
 117:src/syscall_c.cpp **** 
 118:src/syscall_c.cpp **** char getc() {
 671              		.loc 1 118 13 is_stmt 1
 672              		.cfi_startproc
 673 02e4 130101FF 		addi	sp,sp,-16
 674              		.cfi_def_cfa_offset 16
 675 02e8 23341100 		sd	ra,8(sp)
 676 02ec 23308100 		sd	s0,0(sp)
 677              		.cfi_offset 1, -8
 678              		.cfi_offset 8, -16
 679 02f0 13040101 		addi	s0,sp,16
 680              		.cfi_def_cfa 8, 0
 119:src/syscall_c.cpp ****     __asm__ volatile("mv a0, %0" : : "r" (CGETC_CODE));
 681              		.loc 1 119 5
 682              		.loc 1 119 55 is_stmt 0
 683 02f4 93071004 		li	a5,65
 684              	#APP
 685              	# 119 "src/syscall_c.cpp" 1
 120              	
GAS LISTING /tmp/cceVBYsj.s 			page 15


 121:src/syscall_c.cpp ****     syscall();
 686              		mv a0, a5
 687              	# 0 "" 2
 688              		.loc 1 121 5 is_stmt 1
 689              		.loc 1 121 12 is_stmt 0
 690              	#NO_APP
 691 02fc 97000000 		call	_Z7syscallv
 691      E7800000 
 692              	.LVL39:
 122:src/syscall_c.cpp **** 
 123:src/syscall_c.cpp ****     char c;
 693              		.loc 1 123 5 is_stmt 1
 124:src/syscall_c.cpp ****     __asm__ volatile("mv %0, a0" : "=r" (c));
 694              		.loc 1 124 5
 695              		.loc 1 124 45 is_stmt 0
 696              	#APP
 697              	# 124 "src/syscall_c.cpp" 1
 125              	    return c;
 698              		mv a0, a0
 699              	# 0 "" 2
 700              	.LVL40:
 701              		.loc 1 125 5 is_stmt 1
 126:src/syscall_c.cpp **** }
 702              		.loc 1 126 1 is_stmt 0
 703              	#NO_APP
 704 0308 1375F50F 		andi	a0,a0,0xff
 705 030c 83308100 		ld	ra,8(sp)
 706              		.cfi_restore 1
 707 0310 03340100 		ld	s0,0(sp)
 708              		.cfi_restore 8
 709              		.cfi_def_cfa 2, 16
 710 0314 13010101 		addi	sp,sp,16
 711              		.cfi_def_cfa_offset 0
 712 0318 67800000 		jr	ra
 713              		.cfi_endproc
 714              	.LFE11:
 716              		.align	2
 717              		.globl	_Z4putcc
 719              	_Z4putcc:
 720              	.LFB12:
 127:src/syscall_c.cpp **** 
 128:src/syscall_c.cpp **** void putc(char c) {
 721              		.loc 1 128 19 is_stmt 1
 722              		.cfi_startproc
 723              	.LVL41:
 724 031c 130101FF 		addi	sp,sp,-16
 725              		.cfi_def_cfa_offset 16
 726 0320 23341100 		sd	ra,8(sp)
 727 0324 23308100 		sd	s0,0(sp)
 728              		.cfi_offset 1, -8
 729              		.cfi_offset 8, -16
 730 0328 13040101 		addi	s0,sp,16
 731              		.cfi_def_cfa 8, 0
 129:src/syscall_c.cpp ****     __asm__ volatile("mv a1, %0" : : "r" (c));
 732              		.loc 1 129 5
 733              		.loc 1 129 46 is_stmt 0
 734              	#APP
GAS LISTING /tmp/cceVBYsj.s 			page 16


 735              	# 129 "src/syscall_c.cpp" 1
 130              	    __asm__ volatile("mv a0, %0" : : "r" (CPUTC_CODE));
 736              		mv a1, a0
 737              	# 0 "" 2
 738              		.loc 1 130 5 is_stmt 1
 739              		.loc 1 130 55 is_stmt 0
 740              	#NO_APP
 741 0330 93072004 		li	a5,66
 742              	#APP
 743              	# 130 "src/syscall_c.cpp" 1
 131              	
 132:src/syscall_c.cpp ****     syscall();
 744              		mv a0, a5
 745              	# 0 "" 2
 746              		.loc 1 132 5 is_stmt 1
 747              		.loc 1 132 12 is_stmt 0
 748              	#NO_APP
 749 0338 97000000 		call	_Z7syscallv
 749      E7800000 
 750              	.LVL42:
 133:src/syscall_c.cpp **** }
 751              		.loc 1 133 1
 752 0340 83308100 		ld	ra,8(sp)
 753              		.cfi_restore 1
 754 0344 03340100 		ld	s0,0(sp)
 755              		.cfi_restore 8
 756              		.cfi_def_cfa 2, 16
 757 0348 13010101 		addi	sp,sp,16
 758              		.cfi_def_cfa_offset 0
 759 034c 67800000 		jr	ra
 760              		.cfi_endproc
 761              	.LFE12:
 763              		.align	2
 764              		.globl	_Z12thread_allocPP3PCBPFvPvES2_
 766              	_Z12thread_allocPP3PCBPFvPvES2_:
 767              	.LFB13:
 134:src/syscall_c.cpp **** 
 135:src/syscall_c.cpp **** void thread_alloc(thread_t* handle, void(*start_routine)(void*), void* arg) {
 768              		.loc 1 135 77 is_stmt 1
 769              		.cfi_startproc
 770              	.LVL43:
 771 0350 130101FD 		addi	sp,sp,-48
 772              		.cfi_def_cfa_offset 48
 773 0354 23341102 		sd	ra,40(sp)
 774 0358 23308102 		sd	s0,32(sp)
 775 035c 233C9100 		sd	s1,24(sp)
 776 0360 23382101 		sd	s2,16(sp)
 777 0364 23343101 		sd	s3,8(sp)
 778              		.cfi_offset 1, -8
 779              		.cfi_offset 8, -16
 780              		.cfi_offset 9, -24
 781              		.cfi_offset 18, -32
 782              		.cfi_offset 19, -40
 783 0368 13040103 		addi	s0,sp,48
 784              		.cfi_def_cfa 8, 0
 785 036c 13090500 		mv	s2,a0
 786 0370 93840500 		mv	s1,a1
GAS LISTING /tmp/cceVBYsj.s 			page 17


 787 0374 93090600 		mv	s3,a2
 136:src/syscall_c.cpp ****     thread_t *tempHandle = handle; void(*tempRoutine)(void*) = start_routine; void* tempArg = arg;
 788              		.loc 1 136 5
 789              	.LVL44:
 790              		.loc 1 136 36
 791              		.loc 1 136 79
 137:src/syscall_c.cpp **** 
 138:src/syscall_c.cpp ****     uint64* stack_space;
 792              		.loc 1 138 5
 139:src/syscall_c.cpp ****     if (start_routine != nullptr) {
 793              		.loc 1 139 5
 794 0378 638A0504 		beqz	a1,.L37
 140:src/syscall_c.cpp ****         stack_space = new uint64[DEFAULT_STACK_SIZE];
 795              		.loc 1 140 9
 796              		.loc 1 140 52 is_stmt 0
 797 037c 37850000 		li	a0,32768
 798              	.LVL45:
 799 0380 97000000 		call	_Znam@plt
 799      E7800000 
 800              	.LVL46:
 141:src/syscall_c.cpp ****         stack_space = &stack_space[DEFAULT_STACK_SIZE];
 801              		.loc 1 141 9 is_stmt 1
 802              		.loc 1 141 21 is_stmt 0
 803 0388 B7870000 		li	a5,32768
 804 038c 3305F500 		add	a0,a0,a5
 805              	.LVL47:
 806              	.L36:
 142:src/syscall_c.cpp ****     } else stack_space = nullptr;
 143:src/syscall_c.cpp **** 
 144:src/syscall_c.cpp ****     __asm__ volatile("mv a7, %0" : : "r" (stack_space));
 807              		.loc 1 144 5 is_stmt 1
 808              		.loc 1 144 56 is_stmt 0
 809              	#APP
 810              	# 144 "src/syscall_c.cpp" 1
 145              	    __asm__ volatile("mv a3, %0" : : "r" (tempArg));
 811              		mv a7, a0
 812              	# 0 "" 2
 813              		.loc 1 145 5 is_stmt 1
 814              		.loc 1 145 52 is_stmt 0
 815              	# 145 "src/syscall_c.cpp" 1
 146              	    __asm__ volatile("mv a2, %0" : : "r" (tempRoutine));
 816              		mv a3, s3
 817              	# 0 "" 2
 818              		.loc 1 146 5 is_stmt 1
 819              		.loc 1 146 56 is_stmt 0
 820              	# 146 "src/syscall_c.cpp" 1
 147              	    __asm__ volatile("mv a1, %0" : : "r" (tempHandle));
 821              		mv a2, s1
 822              	# 0 "" 2
 823              		.loc 1 147 5 is_stmt 1
 824              		.loc 1 147 55 is_stmt 0
 825              	# 147 "src/syscall_c.cpp" 1
 148              	    __asm__ volatile("mv a0, %0" : : "r" (TALLOC_CODE));
 826              		mv a1, s2
 827              	# 0 "" 2
 828              		.loc 1 148 5 is_stmt 1
 829              		.loc 1 148 56 is_stmt 0
GAS LISTING /tmp/cceVBYsj.s 			page 18


 830              	#NO_APP
 831 03a0 93074001 		li	a5,20
 832              	#APP
 833              	# 148 "src/syscall_c.cpp" 1
 149              	
 150:src/syscall_c.cpp ****     syscall();
 834              		mv a0, a5
 835              	# 0 "" 2
 836              		.loc 1 150 5 is_stmt 1
 837              		.loc 1 150 12 is_stmt 0
 838              	#NO_APP
 839 03a8 97000000 		call	_Z7syscallv
 839      E7800000 
 840              	.LVL48:
 151:src/syscall_c.cpp **** }
 841              		.loc 1 151 1
 842 03b0 83308102 		ld	ra,40(sp)
 843              		.cfi_remember_state
 844              		.cfi_restore 1
 845 03b4 03340102 		ld	s0,32(sp)
 846              		.cfi_restore 8
 847              		.cfi_def_cfa 2, 48
 848 03b8 83348101 		ld	s1,24(sp)
 849              		.cfi_restore 9
 850              	.LVL49:
 851 03bc 03390101 		ld	s2,16(sp)
 852              		.cfi_restore 18
 853              	.LVL50:
 854 03c0 83398100 		ld	s3,8(sp)
 855              		.cfi_restore 19
 856              	.LVL51:
 857 03c4 13010103 		addi	sp,sp,48
 858              		.cfi_def_cfa_offset 0
 859 03c8 67800000 		jr	ra
 860              	.LVL52:
 861              	.L37:
 862              		.cfi_restore_state
 142:src/syscall_c.cpp ****     } else stack_space = nullptr;
 863              		.loc 1 142 24
 864 03cc 13050000 		li	a0,0
 865              	.LVL53:
 866 03d0 6FF01FFC 		j	.L36
 867              		.cfi_endproc
 868              	.LFE13:
 870              		.align	2
 871              		.globl	_Z16thread_schedulerP3PCB
 873              	_Z16thread_schedulerP3PCB:
 874              	.LFB14:
 152:src/syscall_c.cpp **** 
 153:src/syscall_c.cpp **** void thread_scheduler(thread_t handle) {
 875              		.loc 1 153 40 is_stmt 1
 876              		.cfi_startproc
 877              	.LVL54:
 878 03d4 130101FF 		addi	sp,sp,-16
 879              		.cfi_def_cfa_offset 16
 880 03d8 23341100 		sd	ra,8(sp)
 881 03dc 23308100 		sd	s0,0(sp)
GAS LISTING /tmp/cceVBYsj.s 			page 19


 882              		.cfi_offset 1, -8
 883              		.cfi_offset 8, -16
 884 03e0 13040101 		addi	s0,sp,16
 885              		.cfi_def_cfa 8, 0
 154:src/syscall_c.cpp ****     __asm__ volatile("mv a1, %0" : : "r" (handle));
 886              		.loc 1 154 5
 887              		.loc 1 154 51 is_stmt 0
 888              	#APP
 889              	# 154 "src/syscall_c.cpp" 1
 155              	    __asm__ volatile("mv a0, %0" : : "r" (TSCHEDULER_CODE));
 890              		mv a1, a0
 891              	# 0 "" 2
 892              		.loc 1 155 5 is_stmt 1
 893              		.loc 1 155 60 is_stmt 0
 894              	#NO_APP
 895 03e8 93075001 		li	a5,21
 896              	#APP
 897              	# 155 "src/syscall_c.cpp" 1
 156              	
 157:src/syscall_c.cpp ****     syscall();
 898              		mv a0, a5
 899              	# 0 "" 2
 900              		.loc 1 157 5 is_stmt 1
 901              		.loc 1 157 12 is_stmt 0
 902              	#NO_APP
 903 03f0 97000000 		call	_Z7syscallv
 903      E7800000 
 904              	.LVL55:
 158:src/syscall_c.cpp **** }
 905              		.loc 1 158 1
 906 03f8 83308100 		ld	ra,8(sp)
 907              		.cfi_restore 1
 908 03fc 03340100 		ld	s0,0(sp)
 909              		.cfi_restore 8
 910              		.cfi_def_cfa 2, 16
 911 0400 13010101 		addi	sp,sp,16
 912              		.cfi_def_cfa_offset 0
 913 0404 67800000 		jr	ra
 914              		.cfi_endproc
 915              	.LFE14:
 917              		.align	2
 918              		.globl	_Z7userModv
 920              	_Z7userModv:
 921              	.LFB15:
 159:src/syscall_c.cpp **** 
 160:src/syscall_c.cpp **** void userMod() {
 922              		.loc 1 160 16 is_stmt 1
 923              		.cfi_startproc
 924 0408 130101FF 		addi	sp,sp,-16
 925              		.cfi_def_cfa_offset 16
 926 040c 23341100 		sd	ra,8(sp)
 927 0410 23308100 		sd	s0,0(sp)
 928              		.cfi_offset 1, -8
 929              		.cfi_offset 8, -16
 930 0414 13040101 		addi	s0,sp,16
 931              		.cfi_def_cfa 8, 0
 161:src/syscall_c.cpp ****     __asm__ volatile("mv a0, %0" : : "r" (MUSER_CODE));
GAS LISTING /tmp/cceVBYsj.s 			page 20


 932              		.loc 1 161 5
 933              		.loc 1 161 55 is_stmt 0
 934 0418 93071005 		li	a5,81
 935              	#APP
 936              	# 161 "src/syscall_c.cpp" 1
 162              	
 163:src/syscall_c.cpp ****     syscall();
 937              		mv a0, a5
 938              	# 0 "" 2
 939              		.loc 1 163 5 is_stmt 1
 940              		.loc 1 163 12 is_stmt 0
 941              	#NO_APP
 942 0420 97000000 		call	_Z7syscallv
 942      E7800000 
 943              	.LVL56:
 164:src/syscall_c.cpp **** }
 944              		.loc 1 164 1
 945 0428 83308100 		ld	ra,8(sp)
 946              		.cfi_restore 1
 947 042c 03340100 		ld	s0,0(sp)
 948              		.cfi_restore 8
 949              		.cfi_def_cfa 2, 16
 950 0430 13010101 		addi	sp,sp,16
 951              		.cfi_def_cfa_offset 0
 952 0434 67800000 		jr	ra
 953              		.cfi_endproc
 954              	.LFE15:
 956              		.align	2
 957              		.globl	_Z13supervisorModv
 959              	_Z13supervisorModv:
 960              	.LFB16:
 165:src/syscall_c.cpp **** 
 166:src/syscall_c.cpp **** void supervisorMod() {
 961              		.loc 1 166 22 is_stmt 1
 962              		.cfi_startproc
 963 0438 130101FF 		addi	sp,sp,-16
 964              		.cfi_def_cfa_offset 16
 965 043c 23341100 		sd	ra,8(sp)
 966 0440 23308100 		sd	s0,0(sp)
 967              		.cfi_offset 1, -8
 968              		.cfi_offset 8, -16
 969 0444 13040101 		addi	s0,sp,16
 970              		.cfi_def_cfa 8, 0
 167:src/syscall_c.cpp ****     __asm__ volatile("mv a0, %0" : : "r" (MSUPERVISOR_CODE));
 971              		.loc 1 167 5
 972              		.loc 1 167 61 is_stmt 0
 973 0448 93072005 		li	a5,82
 974              	#APP
 975              	# 167 "src/syscall_c.cpp" 1
 168              	
 169:src/syscall_c.cpp ****     syscall();
 976              		mv a0, a5
 977              	# 0 "" 2
 978              		.loc 1 169 5 is_stmt 1
 979              		.loc 1 169 12 is_stmt 0
 980              	#NO_APP
 981 0450 97000000 		call	_Z7syscallv
GAS LISTING /tmp/cceVBYsj.s 			page 21


 981      E7800000 
 982              	.LVL57:
 170:src/syscall_c.cpp **** }...
 983              		.loc 1 170 1
 984 0458 83308100 		ld	ra,8(sp)
 985              		.cfi_restore 1
 986 045c 03340100 		ld	s0,0(sp)
 987              		.cfi_restore 8
 988              		.cfi_def_cfa 2, 16
 989 0460 13010101 		addi	sp,sp,16
 990              		.cfi_def_cfa_offset 0
 991 0464 67800000 		jr	ra
 992              		.cfi_endproc
 993              	.LFE16:
 995              	.Letext0:
 996              		.file 2 "src/../h/../lib/hw.h"
 997              		.file 3 "src/../h/syscall_c.h"
GAS LISTING /tmp/cceVBYsj.s 			page 22


DEFINED SYMBOLS
                            *ABS*:0000000000000000 syscall_c.cpp
     /tmp/cceVBYsj.s:9      .text:0000000000000000 _Z7syscallv
     /tmp/cceVBYsj.s:13     .text:0000000000000000 .L0 
     /tmp/cceVBYsj.s:14     .text:0000000000000000 .L0 
     /tmp/cceVBYsj.s:15     .text:0000000000000004 .L0 
     /tmp/cceVBYsj.s:17     .text:0000000000000008 .L0 
     /tmp/cceVBYsj.s:19     .text:000000000000000c .L0 
     /tmp/cceVBYsj.s:21     .text:000000000000000c .L0 
   src/syscall_c.cpp:4      .text:000000000000000c .L0 
     /tmp/cceVBYsj.s:28     .text:0000000000000010 .L0 
     /tmp/cceVBYsj.s:29     .text:0000000000000014 .L0 
     /tmp/cceVBYsj.s:30     .text:0000000000000014 .L0 
     /tmp/cceVBYsj.s:32     .text:0000000000000018 .L0 
     /tmp/cceVBYsj.s:34     .text:000000000000001c .L0 
     /tmp/cceVBYsj.s:40     .text:000000000000001c _Z9mem_allocm
     /tmp/cceVBYsj.s:43     .text:000000000000001c .L0 
     /tmp/cceVBYsj.s:45     .text:000000000000001c .L0 
     /tmp/cceVBYsj.s:46     .text:0000000000000020 .L0 
     /tmp/cceVBYsj.s:49     .text:0000000000000028 .L0 
     /tmp/cceVBYsj.s:50     .text:0000000000000028 .L0 
     /tmp/cceVBYsj.s:52     .text:000000000000002c .L0 
     /tmp/cceVBYsj.s:54     .text:000000000000002c .L0 
     /tmp/cceVBYsj.s:55     .text:000000000000002c .L0 
     /tmp/cceVBYsj.s:57     .text:0000000000000030 .L0 
     /tmp/cceVBYsj.s:59     .text:0000000000000034 .L0 
     /tmp/cceVBYsj.s:63     .text:0000000000000038 .L0 
   src/syscall_c.cpp:10     .text:0000000000000038 .L0 
     /tmp/cceVBYsj.s:69     .text:000000000000003c .L0 
     /tmp/cceVBYsj.s:71     .text:000000000000003c .L0 
     /tmp/cceVBYsj.s:77     .text:0000000000000044 .L0 
     /tmp/cceVBYsj.s:79     .text:0000000000000044 .L0 
     /tmp/cceVBYsj.s:82     .text:000000000000004c .L0 
     /tmp/cceVBYsj.s:83     .text:000000000000004c .L0 
   src/syscall_c.cpp:16     .text:000000000000004c .L0 
     /tmp/cceVBYsj.s:90     .text:0000000000000050 .L0 
     /tmp/cceVBYsj.s:92     .text:0000000000000050 .L0 
     /tmp/cceVBYsj.s:93     .text:0000000000000054 .L0 
     /tmp/cceVBYsj.s:94     .text:0000000000000054 .L0 
     /tmp/cceVBYsj.s:96     .text:0000000000000058 .L0 
     /tmp/cceVBYsj.s:97     .text:0000000000000058 .L0 
     /tmp/cceVBYsj.s:99     .text:000000000000005c .L0 
     /tmp/cceVBYsj.s:103    .text:0000000000000060 .L0 
     /tmp/cceVBYsj.s:105    .text:0000000000000060 .L0 
     /tmp/cceVBYsj.s:108    .text:0000000000000064 .L0 
     /tmp/cceVBYsj.s:110    .text:000000000000006c .L0 
     /tmp/cceVBYsj.s:116    .text:000000000000006c _Z8mem_freePv
     /tmp/cceVBYsj.s:119    .text:000000000000006c .L0 
     /tmp/cceVBYsj.s:121    .text:000000000000006c .L0 
     /tmp/cceVBYsj.s:122    .text:0000000000000070 .L0 
     /tmp/cceVBYsj.s:125    .text:0000000000000078 .L0 
     /tmp/cceVBYsj.s:126    .text:0000000000000078 .L0 
     /tmp/cceVBYsj.s:128    .text:000000000000007c .L0 
     /tmp/cceVBYsj.s:130    .text:000000000000007c .L0 
   src/syscall_c.cpp:21     .text:000000000000007c .L0 
     /tmp/cceVBYsj.s:136    .text:0000000000000080 .L0 
     /tmp/cceVBYsj.s:138    .text:0000000000000080 .L0 
GAS LISTING /tmp/cceVBYsj.s 			page 23


     /tmp/cceVBYsj.s:144    .text:0000000000000088 .L0 
     /tmp/cceVBYsj.s:146    .text:0000000000000088 .L0 
     /tmp/cceVBYsj.s:149    .text:0000000000000090 .L0 
     /tmp/cceVBYsj.s:150    .text:0000000000000090 .L0 
   src/syscall_c.cpp:27     .text:0000000000000090 .L0 
     /tmp/cceVBYsj.s:157    .text:0000000000000094 .L0 
     /tmp/cceVBYsj.s:159    .text:0000000000000094 .L0 
     /tmp/cceVBYsj.s:161    .text:000000000000009c .L0 
     /tmp/cceVBYsj.s:163    .text:00000000000000a0 .L0 
     /tmp/cceVBYsj.s:164    .text:00000000000000a0 .L0 
     /tmp/cceVBYsj.s:166    .text:00000000000000a4 .L0 
     /tmp/cceVBYsj.s:168    .text:00000000000000a8 .L0 
     /tmp/cceVBYsj.s:174    .text:00000000000000a8 _Z13thread_createPP3PCBPFvPvES2_
     /tmp/cceVBYsj.s:177    .text:00000000000000a8 .L0 
     /tmp/cceVBYsj.s:179    .text:00000000000000a8 .L0 
     /tmp/cceVBYsj.s:180    .text:00000000000000ac .L0 
     /tmp/cceVBYsj.s:186    .text:00000000000000c0 .L0 
     /tmp/cceVBYsj.s:187    .text:00000000000000c0 .L0 
     /tmp/cceVBYsj.s:188    .text:00000000000000c0 .L0 
     /tmp/cceVBYsj.s:189    .text:00000000000000c0 .L0 
     /tmp/cceVBYsj.s:190    .text:00000000000000c0 .L0 
     /tmp/cceVBYsj.s:192    .text:00000000000000c4 .L0 
     /tmp/cceVBYsj.s:198    .text:00000000000000d0 .L0 
     /tmp/cceVBYsj.s:199    .text:00000000000000d0 .L0 
     /tmp/cceVBYsj.s:200    .text:00000000000000d0 .L0 
     /tmp/cceVBYsj.s:201    .text:00000000000000d0 .L0 
     /tmp/cceVBYsj.s:202    .text:00000000000000d0 .L0 
     /tmp/cceVBYsj.s:204    .text:00000000000000d4 .L0 
     /tmp/cceVBYsj.s:205    .text:00000000000000d4 .L0 
     /tmp/cceVBYsj.s:210    .text:00000000000000e0 .L0 
     /tmp/cceVBYsj.s:211    .text:00000000000000e0 .L0 
     /tmp/cceVBYsj.s:216    .text:00000000000000e8 .L0 
   src/syscall_c.cpp:40     .text:00000000000000e8 .L0 
     /tmp/cceVBYsj.s:222    .text:00000000000000ec .L0 
   src/syscall_c.cpp:41     .text:00000000000000ec .L0 
     /tmp/cceVBYsj.s:227    .text:00000000000000f0 .L0 
   src/syscall_c.cpp:42     .text:00000000000000f0 .L0 
     /tmp/cceVBYsj.s:232    .text:00000000000000f4 .L0 
   src/syscall_c.cpp:43     .text:00000000000000f4 .L0 
     /tmp/cceVBYsj.s:237    .text:00000000000000f8 .L0 
     /tmp/cceVBYsj.s:239    .text:00000000000000f8 .L0 
     /tmp/cceVBYsj.s:245    .text:0000000000000100 .L0 
     /tmp/cceVBYsj.s:247    .text:0000000000000100 .L0 
     /tmp/cceVBYsj.s:250    .text:0000000000000108 .L0 
     /tmp/cceVBYsj.s:251    .text:0000000000000108 .L0 
     /tmp/cceVBYsj.s:253    .text:000000000000010c .L0 
     /tmp/cceVBYsj.s:258    .text:0000000000000114 .L0 
     /tmp/cceVBYsj.s:259    .text:0000000000000114 .L0 
     /tmp/cceVBYsj.s:260    .text:0000000000000118 .L0 
     /tmp/cceVBYsj.s:261    .text:0000000000000118 .L0 
     /tmp/cceVBYsj.s:263    .text:000000000000011c .L0 
     /tmp/cceVBYsj.s:264    .text:000000000000011c .L0 
     /tmp/cceVBYsj.s:266    .text:0000000000000120 .L0 
     /tmp/cceVBYsj.s:269    .text:0000000000000124 .L0 
     /tmp/cceVBYsj.s:272    .text:0000000000000128 .L0 
     /tmp/cceVBYsj.s:275    .text:000000000000012c .L0 
     /tmp/cceVBYsj.s:279    .text:0000000000000130 .L0 
GAS LISTING /tmp/cceVBYsj.s 			page 24


     /tmp/cceVBYsj.s:281    .text:0000000000000130 .L0 
     /tmp/cceVBYsj.s:286    .text:0000000000000138 .L0 
     /tmp/cceVBYsj.s:288    .text:0000000000000140 .L0 
     /tmp/cceVBYsj.s:294    .text:0000000000000140 _Z15thread_dispatchv
     /tmp/cceVBYsj.s:297    .text:0000000000000140 .L0 
     /tmp/cceVBYsj.s:298    .text:0000000000000140 .L0 
     /tmp/cceVBYsj.s:299    .text:0000000000000144 .L0 
     /tmp/cceVBYsj.s:302    .text:000000000000014c .L0 
     /tmp/cceVBYsj.s:303    .text:000000000000014c .L0 
     /tmp/cceVBYsj.s:305    .text:0000000000000150 .L0 
     /tmp/cceVBYsj.s:307    .text:0000000000000150 .L0 
     /tmp/cceVBYsj.s:308    .text:0000000000000150 .L0 
     /tmp/cceVBYsj.s:314    .text:0000000000000158 .L0 
     /tmp/cceVBYsj.s:316    .text:0000000000000158 .L0 
     /tmp/cceVBYsj.s:319    .text:0000000000000160 .L0 
     /tmp/cceVBYsj.s:320    .text:0000000000000164 .L0 
     /tmp/cceVBYsj.s:322    .text:0000000000000168 .L0 
     /tmp/cceVBYsj.s:323    .text:0000000000000168 .L0 
     /tmp/cceVBYsj.s:325    .text:000000000000016c .L0 
     /tmp/cceVBYsj.s:327    .text:0000000000000170 .L0 
     /tmp/cceVBYsj.s:333    .text:0000000000000170 _Z11thread_exitv
     /tmp/cceVBYsj.s:336    .text:0000000000000170 .L0 
     /tmp/cceVBYsj.s:337    .text:0000000000000170 .L0 
     /tmp/cceVBYsj.s:338    .text:0000000000000174 .L0 
     /tmp/cceVBYsj.s:341    .text:000000000000017c .L0 
     /tmp/cceVBYsj.s:342    .text:000000000000017c .L0 
     /tmp/cceVBYsj.s:344    .text:0000000000000180 .L0 
     /tmp/cceVBYsj.s:346    .text:0000000000000180 .L0 
     /tmp/cceVBYsj.s:347    .text:0000000000000180 .L0 
     /tmp/cceVBYsj.s:353    .text:0000000000000188 .L0 
     /tmp/cceVBYsj.s:355    .text:0000000000000188 .L0 
     /tmp/cceVBYsj.s:358    .text:0000000000000190 .L0 
     /tmp/cceVBYsj.s:359    .text:0000000000000190 .L0 
     /tmp/cceVBYsj.s:361    .text:0000000000000198 .L0 
     /tmp/cceVBYsj.s:363    .text:000000000000019c .L0 
     /tmp/cceVBYsj.s:364    .text:000000000000019c .L0 
     /tmp/cceVBYsj.s:366    .text:00000000000001a0 .L0 
     /tmp/cceVBYsj.s:368    .text:00000000000001a4 .L0 
     /tmp/cceVBYsj.s:374    .text:00000000000001a4 _Z8sem_openPP3Semj
     /tmp/cceVBYsj.s:377    .text:00000000000001a4 .L0 
     /tmp/cceVBYsj.s:379    .text:00000000000001a4 .L0 
     /tmp/cceVBYsj.s:380    .text:00000000000001a8 .L0 
     /tmp/cceVBYsj.s:384    .text:00000000000001b4 .L0 
     /tmp/cceVBYsj.s:385    .text:00000000000001b4 .L0 
     /tmp/cceVBYsj.s:386    .text:00000000000001b4 .L0 
     /tmp/cceVBYsj.s:388    .text:00000000000001b8 .L0 
     /tmp/cceVBYsj.s:391    .text:00000000000001bc .L0 
   src/syscall_c.cpp:68     .text:00000000000001bc .L0 
     /tmp/cceVBYsj.s:397    .text:00000000000001c0 .L0 
   src/syscall_c.cpp:69     .text:00000000000001c0 .L0 
     /tmp/cceVBYsj.s:402    .text:00000000000001c4 .L0 
     /tmp/cceVBYsj.s:404    .text:00000000000001c4 .L0 
     /tmp/cceVBYsj.s:410    .text:00000000000001cc .L0 
     /tmp/cceVBYsj.s:412    .text:00000000000001cc .L0 
     /tmp/cceVBYsj.s:415    .text:00000000000001d4 .L0 
     /tmp/cceVBYsj.s:416    .text:00000000000001d4 .L0 
     /tmp/cceVBYsj.s:418    .text:00000000000001d8 .L0 
GAS LISTING /tmp/cceVBYsj.s 			page 25


     /tmp/cceVBYsj.s:423    .text:00000000000001e0 .L0 
     /tmp/cceVBYsj.s:424    .text:00000000000001e0 .L0 
     /tmp/cceVBYsj.s:425    .text:00000000000001e4 .L0 
     /tmp/cceVBYsj.s:426    .text:00000000000001e4 .L0 
     /tmp/cceVBYsj.s:428    .text:00000000000001e8 .L0 
     /tmp/cceVBYsj.s:429    .text:00000000000001e8 .L0 
     /tmp/cceVBYsj.s:431    .text:00000000000001ec .L0 
     /tmp/cceVBYsj.s:434    .text:00000000000001f0 .L0 
     /tmp/cceVBYsj.s:438    .text:00000000000001f4 .L0 
     /tmp/cceVBYsj.s:440    .text:00000000000001f4 .L0 
     /tmp/cceVBYsj.s:442    .text:00000000000001fc .L0 
     /tmp/cceVBYsj.s:448    .text:00000000000001fc _Z9sem_closeP3Sem
     /tmp/cceVBYsj.s:451    .text:00000000000001fc .L0 
     /tmp/cceVBYsj.s:453    .text:00000000000001fc .L0 
     /tmp/cceVBYsj.s:454    .text:0000000000000200 .L0 
     /tmp/cceVBYsj.s:457    .text:0000000000000208 .L0 
     /tmp/cceVBYsj.s:458    .text:0000000000000208 .L0 
     /tmp/cceVBYsj.s:460    .text:000000000000020c .L0 
     /tmp/cceVBYsj.s:462    .text:000000000000020c .L0 
   src/syscall_c.cpp:79     .text:000000000000020c .L0 
     /tmp/cceVBYsj.s:468    .text:0000000000000210 .L0 
     /tmp/cceVBYsj.s:470    .text:0000000000000210 .L0 
     /tmp/cceVBYsj.s:476    .text:0000000000000218 .L0 
     /tmp/cceVBYsj.s:478    .text:0000000000000218 .L0 
     /tmp/cceVBYsj.s:481    .text:0000000000000220 .L0 
     /tmp/cceVBYsj.s:482    .text:0000000000000220 .L0 
   src/syscall_c.cpp:85     .text:0000000000000220 .L0 
     /tmp/cceVBYsj.s:489    .text:0000000000000224 .L0 
     /tmp/cceVBYsj.s:491    .text:0000000000000224 .L0 
     /tmp/cceVBYsj.s:493    .text:000000000000022c .L0 
     /tmp/cceVBYsj.s:495    .text:0000000000000230 .L0 
     /tmp/cceVBYsj.s:496    .text:0000000000000230 .L0 
     /tmp/cceVBYsj.s:498    .text:0000000000000234 .L0 
     /tmp/cceVBYsj.s:500    .text:0000000000000238 .L0 
     /tmp/cceVBYsj.s:506    .text:0000000000000238 _Z10sem_deleteP3Sem
     /tmp/cceVBYsj.s:509    .text:0000000000000238 .L0 
     /tmp/cceVBYsj.s:511    .text:0000000000000238 .L0 
     /tmp/cceVBYsj.s:512    .text:000000000000023c .L0 
     /tmp/cceVBYsj.s:515    .text:0000000000000244 .L0 
     /tmp/cceVBYsj.s:516    .text:0000000000000244 .L0 
     /tmp/cceVBYsj.s:518    .text:0000000000000248 .L0 
     /tmp/cceVBYsj.s:520    .text:0000000000000248 .L0 
   src/syscall_c.cpp:90     .text:0000000000000248 .L0 
     /tmp/cceVBYsj.s:526    .text:000000000000024c .L0 
     /tmp/cceVBYsj.s:528    .text:000000000000024c .L0 
     /tmp/cceVBYsj.s:534    .text:0000000000000254 .L0 
     /tmp/cceVBYsj.s:536    .text:0000000000000254 .L0 
     /tmp/cceVBYsj.s:539    .text:000000000000025c .L0 
     /tmp/cceVBYsj.s:540    .text:0000000000000260 .L0 
     /tmp/cceVBYsj.s:542    .text:0000000000000264 .L0 
     /tmp/cceVBYsj.s:543    .text:0000000000000264 .L0 
     /tmp/cceVBYsj.s:545    .text:0000000000000268 .L0 
     /tmp/cceVBYsj.s:547    .text:000000000000026c .L0 
     /tmp/cceVBYsj.s:553    .text:000000000000026c _Z8sem_waitP3Sem
     /tmp/cceVBYsj.s:556    .text:000000000000026c .L0 
     /tmp/cceVBYsj.s:558    .text:000000000000026c .L0 
     /tmp/cceVBYsj.s:559    .text:0000000000000270 .L0 
GAS LISTING /tmp/cceVBYsj.s 			page 26


     /tmp/cceVBYsj.s:562    .text:0000000000000278 .L0 
     /tmp/cceVBYsj.s:563    .text:0000000000000278 .L0 
     /tmp/cceVBYsj.s:565    .text:000000000000027c .L0 
     /tmp/cceVBYsj.s:567    .text:000000000000027c .L0 
   src/syscall_c.cpp:97     .text:000000000000027c .L0 
     /tmp/cceVBYsj.s:573    .text:0000000000000280 .L0 
     /tmp/cceVBYsj.s:575    .text:0000000000000280 .L0 
     /tmp/cceVBYsj.s:581    .text:0000000000000288 .L0 
     /tmp/cceVBYsj.s:583    .text:0000000000000288 .L0 
     /tmp/cceVBYsj.s:586    .text:0000000000000290 .L0 
     /tmp/cceVBYsj.s:587    .text:0000000000000290 .L0 
   src/syscall_c.cpp:103    .text:0000000000000290 .L0 
     /tmp/cceVBYsj.s:594    .text:0000000000000294 .L0 
     /tmp/cceVBYsj.s:596    .text:0000000000000294 .L0 
     /tmp/cceVBYsj.s:598    .text:000000000000029c .L0 
     /tmp/cceVBYsj.s:600    .text:00000000000002a0 .L0 
     /tmp/cceVBYsj.s:601    .text:00000000000002a0 .L0 
     /tmp/cceVBYsj.s:603    .text:00000000000002a4 .L0 
     /tmp/cceVBYsj.s:605    .text:00000000000002a8 .L0 
     /tmp/cceVBYsj.s:611    .text:00000000000002a8 _Z10sem_signalP3Sem
     /tmp/cceVBYsj.s:614    .text:00000000000002a8 .L0 
     /tmp/cceVBYsj.s:616    .text:00000000000002a8 .L0 
     /tmp/cceVBYsj.s:617    .text:00000000000002ac .L0 
     /tmp/cceVBYsj.s:620    .text:00000000000002b4 .L0 
     /tmp/cceVBYsj.s:621    .text:00000000000002b4 .L0 
     /tmp/cceVBYsj.s:623    .text:00000000000002b8 .L0 
     /tmp/cceVBYsj.s:625    .text:00000000000002b8 .L0 
   src/syscall_c.cpp:108    .text:00000000000002b8 .L0 
     /tmp/cceVBYsj.s:631    .text:00000000000002bc .L0 
     /tmp/cceVBYsj.s:633    .text:00000000000002bc .L0 
     /tmp/cceVBYsj.s:639    .text:00000000000002c4 .L0 
     /tmp/cceVBYsj.s:641    .text:00000000000002c4 .L0 
     /tmp/cceVBYsj.s:644    .text:00000000000002cc .L0 
     /tmp/cceVBYsj.s:645    .text:00000000000002cc .L0 
   src/syscall_c.cpp:114    .text:00000000000002cc .L0 
     /tmp/cceVBYsj.s:652    .text:00000000000002d0 .L0 
     /tmp/cceVBYsj.s:654    .text:00000000000002d0 .L0 
     /tmp/cceVBYsj.s:656    .text:00000000000002d8 .L0 
     /tmp/cceVBYsj.s:658    .text:00000000000002dc .L0 
     /tmp/cceVBYsj.s:659    .text:00000000000002dc .L0 
     /tmp/cceVBYsj.s:661    .text:00000000000002e0 .L0 
     /tmp/cceVBYsj.s:663    .text:00000000000002e4 .L0 
     /tmp/cceVBYsj.s:669    .text:00000000000002e4 _Z4getcv
     /tmp/cceVBYsj.s:672    .text:00000000000002e4 .L0 
     /tmp/cceVBYsj.s:673    .text:00000000000002e4 .L0 
     /tmp/cceVBYsj.s:674    .text:00000000000002e8 .L0 
     /tmp/cceVBYsj.s:677    .text:00000000000002f0 .L0 
     /tmp/cceVBYsj.s:678    .text:00000000000002f0 .L0 
     /tmp/cceVBYsj.s:680    .text:00000000000002f4 .L0 
     /tmp/cceVBYsj.s:682    .text:00000000000002f4 .L0 
     /tmp/cceVBYsj.s:683    .text:00000000000002f4 .L0 
     /tmp/cceVBYsj.s:689    .text:00000000000002fc .L0 
     /tmp/cceVBYsj.s:691    .text:00000000000002fc .L0 
     /tmp/cceVBYsj.s:694    .text:0000000000000304 .L0 
     /tmp/cceVBYsj.s:695    .text:0000000000000304 .L0 
   src/syscall_c.cpp:124    .text:0000000000000304 .L0 
     /tmp/cceVBYsj.s:702    .text:0000000000000308 .L0 
GAS LISTING /tmp/cceVBYsj.s 			page 27


     /tmp/cceVBYsj.s:704    .text:0000000000000308 .L0 
     /tmp/cceVBYsj.s:706    .text:0000000000000310 .L0 
     /tmp/cceVBYsj.s:708    .text:0000000000000314 .L0 
     /tmp/cceVBYsj.s:709    .text:0000000000000314 .L0 
     /tmp/cceVBYsj.s:711    .text:0000000000000318 .L0 
     /tmp/cceVBYsj.s:713    .text:000000000000031c .L0 
     /tmp/cceVBYsj.s:719    .text:000000000000031c _Z4putcc
     /tmp/cceVBYsj.s:722    .text:000000000000031c .L0 
     /tmp/cceVBYsj.s:724    .text:000000000000031c .L0 
     /tmp/cceVBYsj.s:725    .text:0000000000000320 .L0 
     /tmp/cceVBYsj.s:728    .text:0000000000000328 .L0 
     /tmp/cceVBYsj.s:729    .text:0000000000000328 .L0 
     /tmp/cceVBYsj.s:731    .text:000000000000032c .L0 
     /tmp/cceVBYsj.s:733    .text:000000000000032c .L0 
   src/syscall_c.cpp:129    .text:000000000000032c .L0 
     /tmp/cceVBYsj.s:739    .text:0000000000000330 .L0 
     /tmp/cceVBYsj.s:741    .text:0000000000000330 .L0 
     /tmp/cceVBYsj.s:747    .text:0000000000000338 .L0 
     /tmp/cceVBYsj.s:749    .text:0000000000000338 .L0 
     /tmp/cceVBYsj.s:752    .text:0000000000000340 .L0 
     /tmp/cceVBYsj.s:753    .text:0000000000000344 .L0 
     /tmp/cceVBYsj.s:755    .text:0000000000000348 .L0 
     /tmp/cceVBYsj.s:756    .text:0000000000000348 .L0 
     /tmp/cceVBYsj.s:758    .text:000000000000034c .L0 
     /tmp/cceVBYsj.s:760    .text:0000000000000350 .L0 
     /tmp/cceVBYsj.s:766    .text:0000000000000350 _Z12thread_allocPP3PCBPFvPvES2_
     /tmp/cceVBYsj.s:769    .text:0000000000000350 .L0 
     /tmp/cceVBYsj.s:771    .text:0000000000000350 .L0 
     /tmp/cceVBYsj.s:772    .text:0000000000000354 .L0 
     /tmp/cceVBYsj.s:778    .text:0000000000000368 .L0 
     /tmp/cceVBYsj.s:779    .text:0000000000000368 .L0 
     /tmp/cceVBYsj.s:780    .text:0000000000000368 .L0 
     /tmp/cceVBYsj.s:781    .text:0000000000000368 .L0 
     /tmp/cceVBYsj.s:782    .text:0000000000000368 .L0 
     /tmp/cceVBYsj.s:784    .text:000000000000036c .L0 
     /tmp/cceVBYsj.s:790    .text:0000000000000378 .L0 
     /tmp/cceVBYsj.s:791    .text:0000000000000378 .L0 
     /tmp/cceVBYsj.s:792    .text:0000000000000378 .L0 
     /tmp/cceVBYsj.s:793    .text:0000000000000378 .L0 
     /tmp/cceVBYsj.s:794    .text:0000000000000378 .L0 
     /tmp/cceVBYsj.s:796    .text:000000000000037c .L0 
     /tmp/cceVBYsj.s:797    .text:000000000000037c .L0 
     /tmp/cceVBYsj.s:802    .text:0000000000000388 .L0 
     /tmp/cceVBYsj.s:803    .text:0000000000000388 .L0 
     /tmp/cceVBYsj.s:808    .text:0000000000000390 .L0 
   src/syscall_c.cpp:144    .text:0000000000000390 .L0 
     /tmp/cceVBYsj.s:814    .text:0000000000000394 .L0 
   src/syscall_c.cpp:145    .text:0000000000000394 .L0 
     /tmp/cceVBYsj.s:819    .text:0000000000000398 .L0 
   src/syscall_c.cpp:146    .text:0000000000000398 .L0 
     /tmp/cceVBYsj.s:824    .text:000000000000039c .L0 
   src/syscall_c.cpp:147    .text:000000000000039c .L0 
     /tmp/cceVBYsj.s:829    .text:00000000000003a0 .L0 
     /tmp/cceVBYsj.s:831    .text:00000000000003a0 .L0 
     /tmp/cceVBYsj.s:837    .text:00000000000003a8 .L0 
     /tmp/cceVBYsj.s:839    .text:00000000000003a8 .L0 
     /tmp/cceVBYsj.s:842    .text:00000000000003b0 .L0 
GAS LISTING /tmp/cceVBYsj.s 			page 28


     /tmp/cceVBYsj.s:843    .text:00000000000003b4 .L0 
     /tmp/cceVBYsj.s:844    .text:00000000000003b4 .L0 
     /tmp/cceVBYsj.s:846    .text:00000000000003b8 .L0 
     /tmp/cceVBYsj.s:847    .text:00000000000003b8 .L0 
     /tmp/cceVBYsj.s:849    .text:00000000000003bc .L0 
     /tmp/cceVBYsj.s:852    .text:00000000000003c0 .L0 
     /tmp/cceVBYsj.s:855    .text:00000000000003c4 .L0 
     /tmp/cceVBYsj.s:858    .text:00000000000003c8 .L0 
     /tmp/cceVBYsj.s:862    .text:00000000000003cc .L0 
     /tmp/cceVBYsj.s:864    .text:00000000000003cc .L0 
     /tmp/cceVBYsj.s:867    .text:00000000000003d4 .L0 
     /tmp/cceVBYsj.s:873    .text:00000000000003d4 _Z16thread_schedulerP3PCB
     /tmp/cceVBYsj.s:876    .text:00000000000003d4 .L0 
     /tmp/cceVBYsj.s:878    .text:00000000000003d4 .L0 
     /tmp/cceVBYsj.s:879    .text:00000000000003d8 .L0 
     /tmp/cceVBYsj.s:882    .text:00000000000003e0 .L0 
     /tmp/cceVBYsj.s:883    .text:00000000000003e0 .L0 
     /tmp/cceVBYsj.s:885    .text:00000000000003e4 .L0 
     /tmp/cceVBYsj.s:887    .text:00000000000003e4 .L0 
   src/syscall_c.cpp:154    .text:00000000000003e4 .L0 
     /tmp/cceVBYsj.s:893    .text:00000000000003e8 .L0 
     /tmp/cceVBYsj.s:895    .text:00000000000003e8 .L0 
     /tmp/cceVBYsj.s:901    .text:00000000000003f0 .L0 
     /tmp/cceVBYsj.s:903    .text:00000000000003f0 .L0 
     /tmp/cceVBYsj.s:906    .text:00000000000003f8 .L0 
     /tmp/cceVBYsj.s:907    .text:00000000000003fc .L0 
     /tmp/cceVBYsj.s:909    .text:0000000000000400 .L0 
     /tmp/cceVBYsj.s:910    .text:0000000000000400 .L0 
     /tmp/cceVBYsj.s:912    .text:0000000000000404 .L0 
     /tmp/cceVBYsj.s:914    .text:0000000000000408 .L0 
     /tmp/cceVBYsj.s:920    .text:0000000000000408 _Z7userModv
     /tmp/cceVBYsj.s:923    .text:0000000000000408 .L0 
     /tmp/cceVBYsj.s:924    .text:0000000000000408 .L0 
     /tmp/cceVBYsj.s:925    .text:000000000000040c .L0 
     /tmp/cceVBYsj.s:928    .text:0000000000000414 .L0 
     /tmp/cceVBYsj.s:929    .text:0000000000000414 .L0 
     /tmp/cceVBYsj.s:931    .text:0000000000000418 .L0 
     /tmp/cceVBYsj.s:933    .text:0000000000000418 .L0 
     /tmp/cceVBYsj.s:934    .text:0000000000000418 .L0 
     /tmp/cceVBYsj.s:940    .text:0000000000000420 .L0 
     /tmp/cceVBYsj.s:942    .text:0000000000000420 .L0 
     /tmp/cceVBYsj.s:945    .text:0000000000000428 .L0 
     /tmp/cceVBYsj.s:946    .text:000000000000042c .L0 
     /tmp/cceVBYsj.s:948    .text:0000000000000430 .L0 
     /tmp/cceVBYsj.s:949    .text:0000000000000430 .L0 
     /tmp/cceVBYsj.s:951    .text:0000000000000434 .L0 
     /tmp/cceVBYsj.s:953    .text:0000000000000438 .L0 
     /tmp/cceVBYsj.s:959    .text:0000000000000438 _Z13supervisorModv
     /tmp/cceVBYsj.s:962    .text:0000000000000438 .L0 
     /tmp/cceVBYsj.s:963    .text:0000000000000438 .L0 
     /tmp/cceVBYsj.s:964    .text:000000000000043c .L0 
     /tmp/cceVBYsj.s:967    .text:0000000000000444 .L0 
     /tmp/cceVBYsj.s:968    .text:0000000000000444 .L0 
     /tmp/cceVBYsj.s:970    .text:0000000000000448 .L0 
     /tmp/cceVBYsj.s:972    .text:0000000000000448 .L0 
     /tmp/cceVBYsj.s:973    .text:0000000000000448 .L0 
     /tmp/cceVBYsj.s:979    .text:0000000000000450 .L0 
GAS LISTING /tmp/cceVBYsj.s 			page 29


     /tmp/cceVBYsj.s:981    .text:0000000000000450 .L0 
     /tmp/cceVBYsj.s:984    .text:0000000000000458 .L0 
     /tmp/cceVBYsj.s:985    .text:000000000000045c .L0 
     /tmp/cceVBYsj.s:987    .text:0000000000000460 .L0 
     /tmp/cceVBYsj.s:988    .text:0000000000000460 .L0 
     /tmp/cceVBYsj.s:990    .text:0000000000000464 .L0 
     /tmp/cceVBYsj.s:992    .text:0000000000000468 .L0 
     /tmp/cceVBYsj.s:998    .text:0000000000000468 .L0 
     /tmp/cceVBYsj.s:102    .text:0000000000000060 .L4
     /tmp/cceVBYsj.s:61     .text:0000000000000038 .L5
     /tmp/cceVBYsj.s:278    .text:0000000000000130 .L12
     /tmp/cceVBYsj.s:284    .text:0000000000000138 .L13
     /tmp/cceVBYsj.s:214    .text:00000000000000e8 .L10
     /tmp/cceVBYsj.s:255    .text:0000000000000114 .L11
     /tmp/cceVBYsj.s:437    .text:00000000000001f4 .L21
     /tmp/cceVBYsj.s:420    .text:00000000000001e0 .L20
     /tmp/cceVBYsj.s:861    .text:00000000000003cc .L37
     /tmp/cceVBYsj.s:806    .text:0000000000000390 .L36
     /tmp/cceVBYsj.s:1811   .debug_abbrev:0000000000000000 .Ldebug_abbrev0
     /tmp/cceVBYsj.s:2840   .debug_str:00000000000003c1 .LASF78
     /tmp/cceVBYsj.s:2764   .debug_str:00000000000001c2 .LASF79
     /tmp/cceVBYsj.s:2796   .debug_str:00000000000002a1 .LASF80
     /tmp/cceVBYsj.s:5      .text:0000000000000000 .Ltext0
     /tmp/cceVBYsj.s:995    .text:0000000000000468 .Letext0
     /tmp/cceVBYsj.s:2692   .debug_line:0000000000000000 .Ldebug_line0
     /tmp/cceVBYsj.s:2786   .debug_str:0000000000000258 .LASF0
     /tmp/cceVBYsj.s:2794   .debug_str:000000000000028e .LASF1
     /tmp/cceVBYsj.s:2774   .debug_str:000000000000020a .LASF2
     /tmp/cceVBYsj.s:2820   .debug_str:0000000000000366 .LASF3
     /tmp/cceVBYsj.s:2760   .debug_str:00000000000001b2 .LASF4
     /tmp/cceVBYsj.s:2822   .debug_str:000000000000036d .LASF5
     /tmp/cceVBYsj.s:2710   .debug_str:0000000000000066 .LASF6
     /tmp/cceVBYsj.s:2800   .debug_str:00000000000002cc .LASF7
     /tmp/cceVBYsj.s:2784   .debug_str:0000000000000245 .LASF8
     /tmp/cceVBYsj.s:2848   .debug_str:00000000000004ab .LASF9
     /tmp/cceVBYsj.s:2754   .debug_str:000000000000018d .LASF10
     /tmp/cceVBYsj.s:2812   .debug_str:0000000000000327 .LASF11
     /tmp/cceVBYsj.s:2842   .debug_str:0000000000000485 .LASF12
     /tmp/cceVBYsj.s:2712   .debug_str:000000000000006d .LASF13
     /tmp/cceVBYsj.s:2698   .debug_str:0000000000000016 .LASF14
     /tmp/cceVBYsj.s:2716   .debug_str:0000000000000089 .LASF15
     /tmp/cceVBYsj.s:2818   .debug_str:0000000000000350 .LASF16
     /tmp/cceVBYsj.s:2726   .debug_str:00000000000000d6 .LASF17
     /tmp/cceVBYsj.s:2700   .debug_str:0000000000000026 .LASF18
     /tmp/cceVBYsj.s:2746   .debug_str:000000000000015b .LASF19
     /tmp/cceVBYsj.s:2696   .debug_str:0000000000000009 .LASF20
     /tmp/cceVBYsj.s:2724   .debug_str:00000000000000cb .LASF21
     /tmp/cceVBYsj.s:2718   .debug_str:0000000000000095 .LASF22
     /tmp/cceVBYsj.s:2844   .debug_str:0000000000000494 .LASF23
     /tmp/cceVBYsj.s:2802   .debug_str:00000000000002df .LASF24
     /tmp/cceVBYsj.s:2828   .debug_str:0000000000000391 .LASF25
     /tmp/cceVBYsj.s:2856   .debug_str:00000000000004e7 .LASF26
     /tmp/cceVBYsj.s:2780   .debug_str:0000000000000231 .LASF27
     /tmp/cceVBYsj.s:2850   .debug_str:00000000000004bb .LASF28
     /tmp/cceVBYsj.s:2744   .debug_str:000000000000014e .LASF29
     /tmp/cceVBYsj.s:2862   .debug_str:0000000000000522 .LASF30
     /tmp/cceVBYsj.s:2838   .debug_str:00000000000003b6 .LASF31
GAS LISTING /tmp/cceVBYsj.s 			page 30


     /tmp/cceVBYsj.s:2790   .debug_str:0000000000000276 .LASF32
     /tmp/cceVBYsj.s:2788   .debug_str:0000000000000265 .LASF33
     /tmp/cceVBYsj.s:2694   .debug_str:0000000000000000 .LASF34
     /tmp/cceVBYsj.s:2738   .debug_str:0000000000000133 .LASF35
     /tmp/cceVBYsj.s:2858   .debug_str:00000000000004f3 .LASF36
     /tmp/cceVBYsj.s:2854   .debug_str:00000000000004d4 .LASF38
     /tmp/cceVBYsj.s:960    .text:0000000000000438 .LFB16
     /tmp/cceVBYsj.s:993    .text:0000000000000468 .LFE16
     /tmp/cceVBYsj.s:982    .text:0000000000000458 .LVL57
     /tmp/cceVBYsj.s:2830   .debug_str:000000000000039c .LASF37
     /tmp/cceVBYsj.s:2740   .debug_str:0000000000000139 .LASF39
     /tmp/cceVBYsj.s:921    .text:0000000000000408 .LFB15
     /tmp/cceVBYsj.s:954    .text:0000000000000438 .LFE15
     /tmp/cceVBYsj.s:943    .text:0000000000000428 .LVL56
     /tmp/cceVBYsj.s:2768   .debug_str:00000000000001de .LASF40
     /tmp/cceVBYsj.s:2732   .debug_str:0000000000000102 .LASF41
     /tmp/cceVBYsj.s:874    .text:00000000000003d4 .LFB14
     /tmp/cceVBYsj.s:915    .text:0000000000000408 .LFE14
     /tmp/cceVBYsj.s:2834   .debug_str:00000000000003aa .LASF44
     /tmp/cceVBYsj.s:2200   .debug_loc:0000000000000000 .LLST26
     /tmp/cceVBYsj.s:904    .text:00000000000003f8 .LVL55
     /tmp/cceVBYsj.s:2792   .debug_str:0000000000000281 .LASF42
     /tmp/cceVBYsj.s:2810   .debug_str:0000000000000307 .LASF43
     /tmp/cceVBYsj.s:767    .text:0000000000000350 .LFB13
     /tmp/cceVBYsj.s:868    .text:00000000000003d4 .LFE13
     /tmp/cceVBYsj.s:2214   .debug_loc:0000000000000039 .LLST19
     /tmp/cceVBYsj.s:2750   .debug_str:000000000000016f .LASF45
     /tmp/cceVBYsj.s:2240   .debug_loc:00000000000000ab .LLST20
     /tmp/cceVBYsj.s:2262   .debug_loc:000000000000010a .LLST21
     /tmp/cceVBYsj.s:2758   .debug_str:00000000000001a7 .LASF46
     /tmp/cceVBYsj.s:2284   .debug_loc:0000000000000169 .LLST22
     /tmp/cceVBYsj.s:2756   .debug_str:000000000000019b .LASF47
     /tmp/cceVBYsj.s:2310   .debug_loc:00000000000001db .LLST23
     /tmp/cceVBYsj.s:2730   .debug_str:00000000000000fa .LASF48
     /tmp/cceVBYsj.s:2332   .debug_loc:000000000000023a .LLST24
     /tmp/cceVBYsj.s:2852   .debug_str:00000000000004c8 .LASF49
     /tmp/cceVBYsj.s:2354   .debug_loc:0000000000000299 .LLST25
     /tmp/cceVBYsj.s:800    .text:0000000000000388 .LVL46
     /tmp/cceVBYsj.s:840    .text:00000000000003b0 .LVL48
     /tmp/cceVBYsj.s:2776   .debug_str:0000000000000218 .LASF50
     /tmp/cceVBYsj.s:2748   .debug_str:0000000000000166 .LASF51
     /tmp/cceVBYsj.s:720    .text:000000000000031c .LFB12
     /tmp/cceVBYsj.s:761    .text:0000000000000350 .LFE12
     /tmp/cceVBYsj.s:2361   .debug_loc:00000000000002bc .LLST18
     /tmp/cceVBYsj.s:750    .text:0000000000000340 .LVL42
     /tmp/cceVBYsj.s:2804   .debug_str:00000000000002ef .LASF52
     /tmp/cceVBYsj.s:2734   .debug_str:000000000000011c .LASF53
     /tmp/cceVBYsj.s:2708   .debug_str:000000000000005d .LASF55
     /tmp/cceVBYsj.s:670    .text:00000000000002e4 .LFB11
     /tmp/cceVBYsj.s:714    .text:000000000000031c .LFE11
     /tmp/cceVBYsj.s:692    .text:0000000000000304 .LVL39
     /tmp/cceVBYsj.s:2846   .debug_str:00000000000004a0 .LASF54
     /tmp/cceVBYsj.s:2720   .debug_str:00000000000000a4 .LASF56
     /tmp/cceVBYsj.s:612    .text:00000000000002a8 .LFB10
     /tmp/cceVBYsj.s:664    .text:00000000000002e4 .LFE10
     /tmp/cceVBYsj.s:2375   .debug_loc:00000000000002f5 .LLST17
     /tmp/cceVBYsj.s:642    .text:00000000000002cc .LVL37
GAS LISTING /tmp/cceVBYsj.s 			page 31


     /tmp/cceVBYsj.s:2782   .debug_str:000000000000023c .LASF57
     /tmp/cceVBYsj.s:2704   .debug_str:0000000000000040 .LASF58
     /tmp/cceVBYsj.s:554    .text:000000000000026c .LFB9
     /tmp/cceVBYsj.s:606    .text:00000000000002a8 .LFE9
     /tmp/cceVBYsj.s:2389   .debug_loc:000000000000032e .LLST16
     /tmp/cceVBYsj.s:584    .text:0000000000000290 .LVL34
     /tmp/cceVBYsj.s:2772   .debug_str:00000000000001ff .LASF59
     /tmp/cceVBYsj.s:2778   .debug_str:000000000000021d .LASF60
     /tmp/cceVBYsj.s:507    .text:0000000000000238 .LFB8
     /tmp/cceVBYsj.s:548    .text:000000000000026c .LFE8
     /tmp/cceVBYsj.s:2403   .debug_loc:0000000000000367 .LLST15
     /tmp/cceVBYsj.s:537    .text:000000000000025c .LVL32
     /tmp/cceVBYsj.s:2766   .debug_str:00000000000001d4 .LASF61
     /tmp/cceVBYsj.s:2736   .debug_str:0000000000000121 .LASF62
     /tmp/cceVBYsj.s:449    .text:00000000000001fc .LFB7
     /tmp/cceVBYsj.s:501    .text:0000000000000238 .LFE7
     /tmp/cceVBYsj.s:2417   .debug_loc:00000000000003a0 .LLST14
     /tmp/cceVBYsj.s:479    .text:0000000000000220 .LVL29
     /tmp/cceVBYsj.s:2742   .debug_str:0000000000000145 .LASF63
     /tmp/cceVBYsj.s:2722   .debug_str:00000000000000b8 .LASF64
     /tmp/cceVBYsj.s:375    .text:00000000000001a4 .LFB6
     /tmp/cceVBYsj.s:443    .text:00000000000001fc .LFE6
     /tmp/cceVBYsj.s:2431   .debug_loc:00000000000003d9 .LLST11
     /tmp/cceVBYsj.s:2806   .debug_str:00000000000002f4 .LASF65
     /tmp/cceVBYsj.s:2453   .debug_loc:0000000000000438 .LLST12
     /tmp/cceVBYsj.s:2467   .debug_loc:0000000000000471 .LLST13
     /tmp/cceVBYsj.s:413    .text:00000000000001d4 .LVL24
     /tmp/cceVBYsj.s:2706   .debug_str:0000000000000051 .LASF66
     /tmp/cceVBYsj.s:2798   .debug_str:00000000000002bb .LASF67
     /tmp/cceVBYsj.s:334    .text:0000000000000170 .LFB5
     /tmp/cceVBYsj.s:369    .text:00000000000001a4 .LFE5
     /tmp/cceVBYsj.s:356    .text:0000000000000190 .LVL22
     /tmp/cceVBYsj.s:2770   .debug_str:00000000000001ef .LASF68
     /tmp/cceVBYsj.s:2816   .debug_str:000000000000033b .LASF69
     /tmp/cceVBYsj.s:295    .text:0000000000000140 .LFB4
     /tmp/cceVBYsj.s:328    .text:0000000000000170 .LFE4
     /tmp/cceVBYsj.s:317    .text:0000000000000160 .LVL21
     /tmp/cceVBYsj.s:2728   .debug_str:00000000000000ec .LASF70
     /tmp/cceVBYsj.s:2860   .debug_str:0000000000000501 .LASF71
     /tmp/cceVBYsj.s:175    .text:00000000000000a8 .LFB3
     /tmp/cceVBYsj.s:289    .text:0000000000000140 .LFE3
     /tmp/cceVBYsj.s:2474   .debug_loc:0000000000000494 .LLST3
     /tmp/cceVBYsj.s:2496   .debug_loc:00000000000004f3 .LLST4
     /tmp/cceVBYsj.s:2522   .debug_loc:0000000000000565 .LLST5
     /tmp/cceVBYsj.s:2548   .debug_loc:00000000000005d7 .LLST6
     /tmp/cceVBYsj.s:2570   .debug_loc:0000000000000636 .LLST7
     /tmp/cceVBYsj.s:2596   .debug_loc:00000000000006a8 .LLST8
     /tmp/cceVBYsj.s:2622   .debug_loc:000000000000071a .LLST9
     /tmp/cceVBYsj.s:2629   .debug_loc:000000000000073d .LLST10
     /tmp/cceVBYsj.s:208    .text:00000000000000e0 .LVL12
     /tmp/cceVBYsj.s:248    .text:0000000000000108 .LVL14
     /tmp/cceVBYsj.s:2762   .debug_str:00000000000001b9 .LASF72
     /tmp/cceVBYsj.s:2808   .debug_str:00000000000002f9 .LASF73
     /tmp/cceVBYsj.s:117    .text:000000000000006c .LFB2
     /tmp/cceVBYsj.s:169    .text:00000000000000a8 .LFE2
     /tmp/cceVBYsj.s:2814   .debug_str:0000000000000336 .LASF74
     /tmp/cceVBYsj.s:2636   .debug_loc:0000000000000760 .LLST2
GAS LISTING /tmp/cceVBYsj.s 			page 32


     /tmp/cceVBYsj.s:147    .text:0000000000000090 .LVL7
     /tmp/cceVBYsj.s:2824   .debug_str:000000000000037f .LASF75
     /tmp/cceVBYsj.s:2702   .debug_str:0000000000000032 .LASF76
     /tmp/cceVBYsj.s:41     .text:000000000000001c .LFB1
     /tmp/cceVBYsj.s:111    .text:000000000000006c .LFE1
     /tmp/cceVBYsj.s:2836   .debug_str:00000000000003b1 .LASF77
     /tmp/cceVBYsj.s:2650   .debug_loc:0000000000000799 .LLST0
     /tmp/cceVBYsj.s:2672   .debug_loc:00000000000007f8 .LLST1
     /tmp/cceVBYsj.s:80     .text:000000000000004c .LVL2
     /tmp/cceVBYsj.s:2826   .debug_str:0000000000000389 .LASF81
     /tmp/cceVBYsj.s:2714   .debug_str:000000000000007d .LASF82
     /tmp/cceVBYsj.s:10     .text:0000000000000000 .LFB0
     /tmp/cceVBYsj.s:35     .text:000000000000001c .LFE0
     /tmp/cceVBYsj.s:2832   .debug_str:00000000000003a4 .LASF83
     /tmp/cceVBYsj.s:2752   .debug_str:000000000000017d .LASF84
     /tmp/cceVBYsj.s:877    .text:00000000000003d4 .LVL54
     /tmp/cceVBYsj.s:770    .text:0000000000000350 .LVL43
     /tmp/cceVBYsj.s:798    .text:0000000000000380 .LVL45
     /tmp/cceVBYsj.s:853    .text:00000000000003c0 .LVL50
     /tmp/cceVBYsj.s:860    .text:00000000000003cc .LVL52
     /tmp/cceVBYsj.s:865    .text:00000000000003d0 .LVL53
     /tmp/cceVBYsj.s:850    .text:00000000000003bc .LVL49
     /tmp/cceVBYsj.s:856    .text:00000000000003c4 .LVL51
     /tmp/cceVBYsj.s:789    .text:0000000000000378 .LVL44
     /tmp/cceVBYsj.s:723    .text:000000000000031c .LVL41
     /tmp/cceVBYsj.s:615    .text:00000000000002a8 .LVL36
     /tmp/cceVBYsj.s:557    .text:000000000000026c .LVL33
     /tmp/cceVBYsj.s:510    .text:0000000000000238 .LVL31
     /tmp/cceVBYsj.s:452    .text:00000000000001fc .LVL28
     /tmp/cceVBYsj.s:378    .text:00000000000001a4 .LVL23
     /tmp/cceVBYsj.s:432    .text:00000000000001ec .LVL26
     /tmp/cceVBYsj.s:436    .text:00000000000001f4 .LVL27
     /tmp/cceVBYsj.s:421    .text:00000000000001e0 .LVL25
     /tmp/cceVBYsj.s:178    .text:00000000000000a8 .LVL9
     /tmp/cceVBYsj.s:206    .text:00000000000000d8 .LVL11
     /tmp/cceVBYsj.s:267    .text:0000000000000120 .LVL16
     /tmp/cceVBYsj.s:277    .text:0000000000000130 .LVL19
     /tmp/cceVBYsj.s:270    .text:0000000000000124 .LVL17
     /tmp/cceVBYsj.s:283    .text:0000000000000138 .LVL20
     /tmp/cceVBYsj.s:273    .text:0000000000000128 .LVL18
     /tmp/cceVBYsj.s:197    .text:00000000000000d0 .LVL10
     /tmp/cceVBYsj.s:256    .text:0000000000000114 .LVL15
     /tmp/cceVBYsj.s:120    .text:000000000000006c .LVL6
     /tmp/cceVBYsj.s:44     .text:000000000000001c .LVL0
     /tmp/cceVBYsj.s:60     .text:0000000000000038 .LVL1
     /tmp/cceVBYsj.s:101    .text:0000000000000060 .LVL4
     /tmp/cceVBYsj.s:106    .text:0000000000000064 .LVL5
     /tmp/cceVBYsj.s:88     .text:0000000000000050 .LVL3
     /tmp/cceVBYsj.s:999    .debug_info:0000000000000000 .Ldebug_info0

UNDEFINED SYMBOLS
_Znam
