GAS LISTING /tmp/cc5s914M.s 			page 1


   1              		.file	"syscall_cpp.cpp"
   2              		.option pic
   3              		.option norelax
   4              		.text
   5              	.Ltext0:
   6              		.section	.text._ZN6ThreadD2Ev,"axG",@progbits,_ZN6ThreadD5Ev,comdat
   7              		.align	2
   8              		.weak	_ZN6ThreadD2Ev
  10              	_ZN6ThreadD2Ev:
  11              	.LFB1:
  12              		.file 1 "src/../h/syscall_cpp.h"
   1:src/../h/syscall_cpp.h **** #ifndef _syscall_cpp
   2:src/../h/syscall_cpp.h **** #define _syscall_cpp
   3:src/../h/syscall_cpp.h **** 
   4:src/../h/syscall_cpp.h **** #include "syscall_c.h"
   5:src/../h/syscall_cpp.h **** 
   6:src/../h/syscall_cpp.h **** class Thread {
   7:src/../h/syscall_cpp.h **** public:
   8:src/../h/syscall_cpp.h ****     Thread (void (*body)(void*), void* arg);
   9:src/../h/syscall_cpp.h **** 
  10:src/../h/syscall_cpp.h ****     virtual ~Thread () {};
  13              		.loc 1 10 13
  14              		.cfi_startproc
  15              	.LVL0:
  16 0000 130101FF 		addi	sp,sp,-16
  17              		.cfi_def_cfa_offset 16
  18 0004 23348100 		sd	s0,8(sp)
  19              		.cfi_offset 8, -8
  20 0008 13040101 		addi	s0,sp,16
  21              		.cfi_def_cfa 8, 0
  22              		.loc 1 10 25 is_stmt 0
  23 000c 03348100 		ld	s0,8(sp)
  24              		.cfi_restore 8
  25              		.cfi_def_cfa 2, 16
  26 0010 13010101 		addi	sp,sp,16
  27              		.cfi_def_cfa_offset 0
  28 0014 67800000 		jr	ra
  29              		.cfi_endproc
  30              	.LFE1:
  32              		.weak	_ZN6ThreadD1Ev
  33              		.set	_ZN6ThreadD1Ev,_ZN6ThreadD2Ev
  34              		.section	.text._ZN6Thread3runEv,"axG",@progbits,_ZN6Thread3runEv,comdat
  35              		.align	2
  36              		.weak	_ZN6Thread3runEv
  38              	_ZN6Thread3runEv:
  39              	.LFB4:
  11:src/../h/syscall_cpp.h **** 
  12:src/../h/syscall_cpp.h ****     int start ();
  13:src/../h/syscall_cpp.h **** 
  14:src/../h/syscall_cpp.h ****     static void dispatch ();
  15:src/../h/syscall_cpp.h **** 
  16:src/../h/syscall_cpp.h ****     //static int sleep (time_t);
  17:src/../h/syscall_cpp.h **** 
  18:src/../h/syscall_cpp.h **** protected:
  19:src/../h/syscall_cpp.h ****     Thread ();
  20:src/../h/syscall_cpp.h **** 
  21:src/../h/syscall_cpp.h ****     virtual void run () {};
GAS LISTING /tmp/cc5s914M.s 			page 2


  40              		.loc 1 21 18 is_stmt 1
  41              		.cfi_startproc
  42              	.LVL1:
  43 0000 130101FF 		addi	sp,sp,-16
  44              		.cfi_def_cfa_offset 16
  45 0004 23348100 		sd	s0,8(sp)
  46              		.cfi_offset 8, -8
  47 0008 13040101 		addi	s0,sp,16
  48              		.cfi_def_cfa 8, 0
  49              		.loc 1 21 26 is_stmt 0
  50 000c 03348100 		ld	s0,8(sp)
  51              		.cfi_restore 8
  52              		.cfi_def_cfa 2, 16
  53 0010 13010101 		addi	sp,sp,16
  54              		.cfi_def_cfa_offset 0
  55 0014 67800000 		jr	ra
  56              		.cfi_endproc
  57              	.LFE4:
  59              		.text
  60              		.align	2
  61              		.globl	_ZN6Thread10runWrapperEPv
  63              	_ZN6Thread10runWrapperEPv:
  64              	.LFB13:
  65              		.file 2 "src/syscall_cpp.cpp"
   1:src/syscall_cpp.cpp **** #include "../h/syscall_cpp.h"
   2:src/syscall_cpp.cpp **** 
   3:src/syscall_cpp.cpp **** Thread::Thread(void (*body)(void *), void *arg) {
   4:src/syscall_cpp.cpp ****     thread_alloc(&myHandle, body, arg);
   5:src/syscall_cpp.cpp **** }
   6:src/syscall_cpp.cpp **** 
   7:src/syscall_cpp.cpp **** int Thread::start() {
   8:src/syscall_cpp.cpp ****     thread_scheduler(myHandle); //stavlja nit u scheduler
   9:src/syscall_cpp.cpp ****     return 0;
  10:src/syscall_cpp.cpp **** }
  11:src/syscall_cpp.cpp **** 
  12:src/syscall_cpp.cpp **** void Thread::dispatch() {
  13:src/syscall_cpp.cpp ****     thread_dispatch();
  14:src/syscall_cpp.cpp **** }
  15:src/syscall_cpp.cpp **** 
  16:src/syscall_cpp.cpp **** Thread::Thread() {
  17:src/syscall_cpp.cpp ****     thread_alloc(&myHandle, runWrapper, this); //samo alocira nit
  18:src/syscall_cpp.cpp **** }
  19:src/syscall_cpp.cpp **** 
  20:src/syscall_cpp.cpp **** void Thread::runWrapper(void *arg) {
  66              		.loc 2 20 36 is_stmt 1
  67              		.cfi_startproc
  68              	.LVL2:
  69 0000 130101FF 		addi	sp,sp,-16
  70              		.cfi_def_cfa_offset 16
  71 0004 23341100 		sd	ra,8(sp)
  72 0008 23308100 		sd	s0,0(sp)
  73              		.cfi_offset 1, -8
  74              		.cfi_offset 8, -16
  75 000c 13040101 		addi	s0,sp,16
  76              		.cfi_def_cfa 8, 0
  21:src/syscall_cpp.cpp ****     ((Thread*)arg)->run();
  77              		.loc 2 21 5
GAS LISTING /tmp/cc5s914M.s 			page 3


  78              		.loc 2 21 25 is_stmt 0
  79 0010 83370500 		ld	a5,0(a0)
  80 0014 83B70701 		ld	a5,16(a5)
  81              		.loc 2 21 24
  82 0018 E7800700 		jalr	a5
  83              	.LVL3:
  22:src/syscall_cpp.cpp **** }
  84              		.loc 2 22 1
  85 001c 83308100 		ld	ra,8(sp)
  86              		.cfi_restore 1
  87 0020 03340100 		ld	s0,0(sp)
  88              		.cfi_restore 8
  89              		.cfi_def_cfa 2, 16
  90 0024 13010101 		addi	sp,sp,16
  91              		.cfi_def_cfa_offset 0
  92 0028 67800000 		jr	ra
  93              		.cfi_endproc
  94              	.LFE13:
  96              		.section	.text._ZN6ThreadD0Ev,"axG",@progbits,_ZN6ThreadD5Ev,comdat
  97              		.align	2
  98              		.weak	_ZN6ThreadD0Ev
 100              	_ZN6ThreadD0Ev:
 101              	.LFB3:
  10:src/../h/syscall_cpp.h **** 
 102              		.loc 1 10 13 is_stmt 1
 103              		.cfi_startproc
 104              	.LVL4:
 105 0000 130101FF 		addi	sp,sp,-16
 106              		.cfi_def_cfa_offset 16
 107 0004 23341100 		sd	ra,8(sp)
 108 0008 23308100 		sd	s0,0(sp)
 109              		.cfi_offset 1, -8
 110              		.cfi_offset 8, -16
 111 000c 13040101 		addi	s0,sp,16
 112              		.cfi_def_cfa 8, 0
  10:src/../h/syscall_cpp.h **** 
 113              		.loc 1 10 25 is_stmt 0
 114 0010 97000000 		call	_ZdlPv@plt
 114      E7800000 
 115              	.LVL5:
 116 0018 83308100 		ld	ra,8(sp)
 117              		.cfi_restore 1
 118 001c 03340100 		ld	s0,0(sp)
 119              		.cfi_restore 8
 120              		.cfi_def_cfa 2, 16
 121 0020 13010101 		addi	sp,sp,16
 122              		.cfi_def_cfa_offset 0
 123 0024 67800000 		jr	ra
 124              		.cfi_endproc
 125              	.LFE3:
 127              		.text
 128              		.align	2
 129              		.globl	_ZN9SemaphoreD2Ev
 131              	_ZN9SemaphoreD2Ev:
 132              	.LFB18:
  23:src/syscall_cpp.cpp **** 
  24:src/syscall_cpp.cpp **** Semaphore::Semaphore(unsigned int init) {
GAS LISTING /tmp/cc5s914M.s 			page 4


  25:src/syscall_cpp.cpp ****     sem_open(&myHandle, init);
  26:src/syscall_cpp.cpp **** }
  27:src/syscall_cpp.cpp **** 
  28:src/syscall_cpp.cpp **** Semaphore::~Semaphore() {
 133              		.loc 2 28 1 is_stmt 1
 134              		.cfi_startproc
 135              		.cfi_personality 0x9b,DW.ref.__gxx_personality_v0
 136              		.cfi_lsda 0x1b,.LLSDA18
 137              	.LVL6:
 138 002c 130101FE 		addi	sp,sp,-32
 139              		.cfi_def_cfa_offset 32
 140 0030 233C1100 		sd	ra,24(sp)
 141 0034 23388100 		sd	s0,16(sp)
 142 0038 23349100 		sd	s1,8(sp)
 143              		.cfi_offset 1, -8
 144              		.cfi_offset 8, -16
 145              		.cfi_offset 9, -24
 146 003c 13040102 		addi	s0,sp,32
 147              		.cfi_def_cfa 8, 0
 148 0040 93040500 		mv	s1,a0
 149              	.LBB5:
 150              		.loc 2 28 23 is_stmt 0
 151 0044 97070000 		lla	a5,_ZTV9Semaphore+16
 151      93870700 
 152 004c 2330F500 		sd	a5,0(a0)
  29:src/syscall_cpp.cpp ****     sem_close(myHandle);
 153              		.loc 2 29 5 is_stmt 1
 154              		.loc 2 29 14 is_stmt 0
 155 0050 03358500 		ld	a0,8(a0)
 156              	.LVL7:
 157 0054 97000000 		call	_Z9sem_closeP3Sem@plt
 157      E7800000 
 158              	.LVL8:
  30:src/syscall_cpp.cpp ****     sem_delete(myHandle);
 159              		.loc 2 30 5 is_stmt 1
 160              		.loc 2 30 15 is_stmt 0
 161 005c 03B58400 		ld	a0,8(s1)
 162 0060 97000000 		call	_Z10sem_deleteP3Sem@plt
 162      E7800000 
 163              	.LVL9:
 164              	.LBE5:
  31:src/syscall_cpp.cpp **** }
 165              		.loc 2 31 1
 166 0068 83308101 		ld	ra,24(sp)
 167              		.cfi_restore 1
 168 006c 03340101 		ld	s0,16(sp)
 169              		.cfi_restore 8
 170              		.cfi_def_cfa 2, 32
 171 0070 83348100 		ld	s1,8(sp)
 172              		.cfi_restore 9
 173              	.LVL10:
 174 0074 13010102 		addi	sp,sp,32
 175              		.cfi_def_cfa_offset 0
 176 0078 67800000 		jr	ra
 177              		.cfi_endproc
 178              	.LFE18:
 179              		.globl	__gxx_personality_v0
GAS LISTING /tmp/cc5s914M.s 			page 5


 180              		.section	.gcc_except_table,"a",@progbits
 181              	.LLSDA18:
 182 0000 FF       		.byte	0xff
 183 0001 FF       		.byte	0xff
 184 0002 03       		.byte	0x3
 185 0003 00       		.byte	0
 186              		.text
 188              		.globl	_ZN9SemaphoreD1Ev
 189              		.set	_ZN9SemaphoreD1Ev,_ZN9SemaphoreD2Ev
 190              		.align	2
 191              		.globl	_ZN9SemaphoreD0Ev
 193              	_ZN9SemaphoreD0Ev:
 194              	.LFB20:
  28:src/syscall_cpp.cpp ****     sem_close(myHandle);
 195              		.loc 2 28 1 is_stmt 1
 196              		.cfi_startproc
 197              	.LVL11:
 198 007c 130101FE 		addi	sp,sp,-32
 199              		.cfi_def_cfa_offset 32
 200 0080 233C1100 		sd	ra,24(sp)
 201 0084 23388100 		sd	s0,16(sp)
 202 0088 23349100 		sd	s1,8(sp)
 203              		.cfi_offset 1, -8
 204              		.cfi_offset 8, -16
 205              		.cfi_offset 9, -24
 206 008c 13040102 		addi	s0,sp,32
 207              		.cfi_def_cfa 8, 0
 208 0090 93040500 		mv	s1,a0
 209              		.loc 2 31 1 is_stmt 0
 210 0094 97000000 		call	_ZN9SemaphoreD1Ev
 210      E7800000 
 211              	.LVL12:
 212 009c 13850400 		mv	a0,s1
 213 00a0 97000000 		call	_ZdlPv@plt
 213      E7800000 
 214              	.LVL13:
 215 00a8 83308101 		ld	ra,24(sp)
 216              		.cfi_restore 1
 217 00ac 03340101 		ld	s0,16(sp)
 218              		.cfi_restore 8
 219              		.cfi_def_cfa 2, 32
 220 00b0 83348100 		ld	s1,8(sp)
 221              		.cfi_restore 9
 222              	.LVL14:
 223 00b4 13010102 		addi	sp,sp,32
 224              		.cfi_def_cfa_offset 0
 225 00b8 67800000 		jr	ra
 226              		.cfi_endproc
 227              	.LFE20:
 229              		.align	2
 230              		.globl	_ZN6ThreadC2EPFvPvES0_
 232              	_ZN6ThreadC2EPFvPvES0_:
 233              	.LFB6:
   3:src/syscall_cpp.cpp ****     thread_alloc(&myHandle, body, arg);
 234              		.loc 2 3 1 is_stmt 1
 235              		.cfi_startproc
 236              	.LVL15:
GAS LISTING /tmp/cc5s914M.s 			page 6


 237 00bc 130101FF 		addi	sp,sp,-16
 238              		.cfi_def_cfa_offset 16
 239 00c0 23341100 		sd	ra,8(sp)
 240 00c4 23308100 		sd	s0,0(sp)
 241              		.cfi_offset 1, -8
 242              		.cfi_offset 8, -16
 243 00c8 13040101 		addi	s0,sp,16
 244              		.cfi_def_cfa 8, 0
 245              	.LBB6:
   3:src/syscall_cpp.cpp ****     thread_alloc(&myHandle, body, arg);
 246              		.loc 2 3 47 is_stmt 0
 247 00cc 97070000 		lla	a5,_ZTV6Thread+16
 247      93870700 
 248 00d4 2330F500 		sd	a5,0(a0)
   4:src/syscall_cpp.cpp **** }
 249              		.loc 2 4 5 is_stmt 1
   4:src/syscall_cpp.cpp **** }
 250              		.loc 2 4 17 is_stmt 0
 251 00d8 13058500 		addi	a0,a0,8
 252              	.LVL16:
 253 00dc 97000000 		call	_Z12thread_allocPP3PCBPFvPvES2_@plt
 253      E7800000 
 254              	.LVL17:
 255              	.LBE6:
   5:src/syscall_cpp.cpp **** 
 256              		.loc 2 5 1
 257 00e4 83308100 		ld	ra,8(sp)
 258              		.cfi_restore 1
 259 00e8 03340100 		ld	s0,0(sp)
 260              		.cfi_restore 8
 261              		.cfi_def_cfa 2, 16
 262 00ec 13010101 		addi	sp,sp,16
 263              		.cfi_def_cfa_offset 0
 264 00f0 67800000 		jr	ra
 265              		.cfi_endproc
 266              	.LFE6:
 268              		.globl	_ZN6ThreadC1EPFvPvES0_
 269              		.set	_ZN6ThreadC1EPFvPvES0_,_ZN6ThreadC2EPFvPvES0_
 270              		.align	2
 271              		.globl	_ZN6Thread5startEv
 273              	_ZN6Thread5startEv:
 274              	.LFB8:
   7:src/syscall_cpp.cpp ****     thread_scheduler(myHandle); //stavlja nit u scheduler
 275              		.loc 2 7 21 is_stmt 1
 276              		.cfi_startproc
 277              	.LVL18:
 278 00f4 130101FF 		addi	sp,sp,-16
 279              		.cfi_def_cfa_offset 16
 280 00f8 23341100 		sd	ra,8(sp)
 281 00fc 23308100 		sd	s0,0(sp)
 282              		.cfi_offset 1, -8
 283              		.cfi_offset 8, -16
 284 0100 13040101 		addi	s0,sp,16
 285              		.cfi_def_cfa 8, 0
   8:src/syscall_cpp.cpp ****     return 0;
 286              		.loc 2 8 5
   8:src/syscall_cpp.cpp ****     return 0;
GAS LISTING /tmp/cc5s914M.s 			page 7


 287              		.loc 2 8 21 is_stmt 0
 288 0104 03358500 		ld	a0,8(a0)
 289              	.LVL19:
 290 0108 97000000 		call	_Z16thread_schedulerP3PCB@plt
 290      E7800000 
 291              	.LVL20:
   9:src/syscall_cpp.cpp **** }
 292              		.loc 2 9 5 is_stmt 1
  10:src/syscall_cpp.cpp **** 
 293              		.loc 2 10 1 is_stmt 0
 294 0110 13050000 		li	a0,0
 295 0114 83308100 		ld	ra,8(sp)
 296              		.cfi_restore 1
 297 0118 03340100 		ld	s0,0(sp)
 298              		.cfi_restore 8
 299              		.cfi_def_cfa 2, 16
 300 011c 13010101 		addi	sp,sp,16
 301              		.cfi_def_cfa_offset 0
 302 0120 67800000 		jr	ra
 303              		.cfi_endproc
 304              	.LFE8:
 306              		.align	2
 307              		.globl	_ZN6Thread8dispatchEv
 309              	_ZN6Thread8dispatchEv:
 310              	.LFB9:
  12:src/syscall_cpp.cpp ****     thread_dispatch();
 311              		.loc 2 12 25 is_stmt 1
 312              		.cfi_startproc
 313 0124 130101FF 		addi	sp,sp,-16
 314              		.cfi_def_cfa_offset 16
 315 0128 23341100 		sd	ra,8(sp)
 316 012c 23308100 		sd	s0,0(sp)
 317              		.cfi_offset 1, -8
 318              		.cfi_offset 8, -16
 319 0130 13040101 		addi	s0,sp,16
 320              		.cfi_def_cfa 8, 0
  13:src/syscall_cpp.cpp **** }
 321              		.loc 2 13 5
  13:src/syscall_cpp.cpp **** }
 322              		.loc 2 13 20 is_stmt 0
 323 0134 97000000 		call	_Z15thread_dispatchv@plt
 323      E7800000 
 324              	.LVL21:
  14:src/syscall_cpp.cpp **** 
 325              		.loc 2 14 1
 326 013c 83308100 		ld	ra,8(sp)
 327              		.cfi_restore 1
 328 0140 03340100 		ld	s0,0(sp)
 329              		.cfi_restore 8
 330              		.cfi_def_cfa 2, 16
 331 0144 13010101 		addi	sp,sp,16
 332              		.cfi_def_cfa_offset 0
 333 0148 67800000 		jr	ra
 334              		.cfi_endproc
 335              	.LFE9:
 337              		.align	2
 338              		.globl	_ZN6ThreadC2Ev
GAS LISTING /tmp/cc5s914M.s 			page 8


 340              	_ZN6ThreadC2Ev:
 341              	.LFB11:
  16:src/syscall_cpp.cpp ****     thread_alloc(&myHandle, runWrapper, this); //samo alocira nit
 342              		.loc 2 16 1 is_stmt 1
 343              		.cfi_startproc
 344              	.LVL22:
 345 014c 130101FF 		addi	sp,sp,-16
 346              		.cfi_def_cfa_offset 16
 347 0150 23341100 		sd	ra,8(sp)
 348 0154 23308100 		sd	s0,0(sp)
 349              		.cfi_offset 1, -8
 350              		.cfi_offset 8, -16
 351 0158 13040101 		addi	s0,sp,16
 352              		.cfi_def_cfa 8, 0
 353              	.LBB7:
  16:src/syscall_cpp.cpp ****     thread_alloc(&myHandle, runWrapper, this); //samo alocira nit
 354              		.loc 2 16 16 is_stmt 0
 355 015c 97070000 		lla	a5,_ZTV6Thread+16
 355      93870700 
 356 0164 2330F500 		sd	a5,0(a0)
  17:src/syscall_cpp.cpp **** }
 357              		.loc 2 17 5 is_stmt 1
  17:src/syscall_cpp.cpp **** }
 358              		.loc 2 17 17 is_stmt 0
 359 0168 13060500 		mv	a2,a0
 360 016c 97050000 		lla	a1,_ZN6Thread10runWrapperEPv
 360      93850500 
 361 0174 13058500 		addi	a0,a0,8
 362              	.LVL23:
 363 0178 97000000 		call	_Z12thread_allocPP3PCBPFvPvES2_@plt
 363      E7800000 
 364              	.LVL24:
 365              	.LBE7:
  18:src/syscall_cpp.cpp **** 
 366              		.loc 2 18 1
 367 0180 83308100 		ld	ra,8(sp)
 368              		.cfi_restore 1
 369 0184 03340100 		ld	s0,0(sp)
 370              		.cfi_restore 8
 371              		.cfi_def_cfa 2, 16
 372 0188 13010101 		addi	sp,sp,16
 373              		.cfi_def_cfa_offset 0
 374 018c 67800000 		jr	ra
 375              		.cfi_endproc
 376              	.LFE11:
 378              		.globl	_ZN6ThreadC1Ev
 379              		.set	_ZN6ThreadC1Ev,_ZN6ThreadC2Ev
 380              		.align	2
 381              		.globl	_ZN9SemaphoreC2Ej
 383              	_ZN9SemaphoreC2Ej:
 384              	.LFB15:
  24:src/syscall_cpp.cpp ****     sem_open(&myHandle, init);
 385              		.loc 2 24 1 is_stmt 1
 386              		.cfi_startproc
 387              	.LVL25:
 388 0190 130101FF 		addi	sp,sp,-16
 389              		.cfi_def_cfa_offset 16
GAS LISTING /tmp/cc5s914M.s 			page 9


 390 0194 23341100 		sd	ra,8(sp)
 391 0198 23308100 		sd	s0,0(sp)
 392              		.cfi_offset 1, -8
 393              		.cfi_offset 8, -16
 394 019c 13040101 		addi	s0,sp,16
 395              		.cfi_def_cfa 8, 0
 396              	.LBB8:
  24:src/syscall_cpp.cpp ****     sem_open(&myHandle, init);
 397              		.loc 2 24 39 is_stmt 0
 398 01a0 97070000 		lla	a5,_ZTV9Semaphore+16
 398      93870700 
 399 01a8 2330F500 		sd	a5,0(a0)
  25:src/syscall_cpp.cpp **** }
 400              		.loc 2 25 5 is_stmt 1
  25:src/syscall_cpp.cpp **** }
 401              		.loc 2 25 13 is_stmt 0
 402 01ac 13058500 		addi	a0,a0,8
 403              	.LVL26:
 404 01b0 97000000 		call	_Z8sem_openPP3Semj@plt
 404      E7800000 
 405              	.LVL27:
 406              	.LBE8:
  26:src/syscall_cpp.cpp **** 
 407              		.loc 2 26 1
 408 01b8 83308100 		ld	ra,8(sp)
 409              		.cfi_restore 1
 410 01bc 03340100 		ld	s0,0(sp)
 411              		.cfi_restore 8
 412              		.cfi_def_cfa 2, 16
 413 01c0 13010101 		addi	sp,sp,16
 414              		.cfi_def_cfa_offset 0
 415 01c4 67800000 		jr	ra
 416              		.cfi_endproc
 417              	.LFE15:
 419              		.globl	_ZN9SemaphoreC1Ej
 420              		.set	_ZN9SemaphoreC1Ej,_ZN9SemaphoreC2Ej
 421              		.align	2
 422              		.globl	_ZN9Semaphore4waitEv
 424              	_ZN9Semaphore4waitEv:
 425              	.LFB21:
  32:src/syscall_cpp.cpp **** 
  33:src/syscall_cpp.cpp **** int Semaphore::wait() {
 426              		.loc 2 33 23 is_stmt 1
 427              		.cfi_startproc
 428              	.LVL28:
 429 01c8 130101FF 		addi	sp,sp,-16
 430              		.cfi_def_cfa_offset 16
 431 01cc 23341100 		sd	ra,8(sp)
 432 01d0 23308100 		sd	s0,0(sp)
 433              		.cfi_offset 1, -8
 434              		.cfi_offset 8, -16
 435 01d4 13040101 		addi	s0,sp,16
 436              		.cfi_def_cfa 8, 0
  34:src/syscall_cpp.cpp ****     return sem_wait(myHandle);
 437              		.loc 2 34 5
 438              		.loc 2 34 20 is_stmt 0
 439 01d8 03358500 		ld	a0,8(a0)
GAS LISTING /tmp/cc5s914M.s 			page 10


 440              	.LVL29:
 441 01dc 97000000 		call	_Z8sem_waitP3Sem@plt
 441      E7800000 
 442              	.LVL30:
  35:src/syscall_cpp.cpp **** }
 443              		.loc 2 35 1
 444 01e4 83308100 		ld	ra,8(sp)
 445              		.cfi_restore 1
 446 01e8 03340100 		ld	s0,0(sp)
 447              		.cfi_restore 8
 448              		.cfi_def_cfa 2, 16
 449 01ec 13010101 		addi	sp,sp,16
 450              		.cfi_def_cfa_offset 0
 451 01f0 67800000 		jr	ra
 452              		.cfi_endproc
 453              	.LFE21:
 455              		.align	2
 456              		.globl	_ZN9Semaphore6signalEv
 458              	_ZN9Semaphore6signalEv:
 459              	.LFB22:
  36:src/syscall_cpp.cpp **** 
  37:src/syscall_cpp.cpp **** int Semaphore::signal() {
 460              		.loc 2 37 25 is_stmt 1
 461              		.cfi_startproc
 462              	.LVL31:
 463 01f4 130101FF 		addi	sp,sp,-16
 464              		.cfi_def_cfa_offset 16
 465 01f8 23341100 		sd	ra,8(sp)
 466 01fc 23308100 		sd	s0,0(sp)
 467              		.cfi_offset 1, -8
 468              		.cfi_offset 8, -16
 469 0200 13040101 		addi	s0,sp,16
 470              		.cfi_def_cfa 8, 0
  38:src/syscall_cpp.cpp ****     return sem_signal(myHandle);
 471              		.loc 2 38 5
 472              		.loc 2 38 22 is_stmt 0
 473 0204 03358500 		ld	a0,8(a0)
 474              	.LVL32:
 475 0208 97000000 		call	_Z10sem_signalP3Sem@plt
 475      E7800000 
 476              	.LVL33:
  39:src/syscall_cpp.cpp **** }
 477              		.loc 2 39 1
 478 0210 83308100 		ld	ra,8(sp)
 479              		.cfi_restore 1
 480 0214 03340100 		ld	s0,0(sp)
 481              		.cfi_restore 8
 482              		.cfi_def_cfa 2, 16
 483 0218 13010101 		addi	sp,sp,16
 484              		.cfi_def_cfa_offset 0
 485 021c 67800000 		jr	ra
 486              		.cfi_endproc
 487              	.LFE22:
 489              		.align	2
 490              		.globl	_ZN7Console4getcEv
 492              	_ZN7Console4getcEv:
 493              	.LFB23:
GAS LISTING /tmp/cc5s914M.s 			page 11


  40:src/syscall_cpp.cpp **** 
  41:src/syscall_cpp.cpp **** char Console::getc() {
 494              		.loc 2 41 22 is_stmt 1
 495              		.cfi_startproc
 496 0220 130101FF 		addi	sp,sp,-16
 497              		.cfi_def_cfa_offset 16
 498 0224 23341100 		sd	ra,8(sp)
 499 0228 23308100 		sd	s0,0(sp)
 500              		.cfi_offset 1, -8
 501              		.cfi_offset 8, -16
 502 022c 13040101 		addi	s0,sp,16
 503              		.cfi_def_cfa 8, 0
  42:src/syscall_cpp.cpp ****     return ::getc();
 504              		.loc 2 42 5
 505              		.loc 2 42 18 is_stmt 0
 506 0230 97000000 		call	_Z4getcv@plt
 506      E7800000 
 507              	.LVL34:
  43:src/syscall_cpp.cpp **** }
 508              		.loc 2 43 1
 509 0238 83308100 		ld	ra,8(sp)
 510              		.cfi_restore 1
 511 023c 03340100 		ld	s0,0(sp)
 512              		.cfi_restore 8
 513              		.cfi_def_cfa 2, 16
 514 0240 13010101 		addi	sp,sp,16
 515              		.cfi_def_cfa_offset 0
 516 0244 67800000 		jr	ra
 517              		.cfi_endproc
 518              	.LFE23:
 520              		.align	2
 521              		.globl	_ZN7Console4putcEc
 523              	_ZN7Console4putcEc:
 524              	.LFB24:
  44:src/syscall_cpp.cpp **** 
  45:src/syscall_cpp.cpp **** void Console::putc(char c) {
 525              		.loc 2 45 28 is_stmt 1
 526              		.cfi_startproc
 527              	.LVL35:
 528 0248 130101FF 		addi	sp,sp,-16
 529              		.cfi_def_cfa_offset 16
 530 024c 23341100 		sd	ra,8(sp)
 531 0250 23308100 		sd	s0,0(sp)
 532              		.cfi_offset 1, -8
 533              		.cfi_offset 8, -16
 534 0254 13040101 		addi	s0,sp,16
 535              		.cfi_def_cfa 8, 0
  46:src/syscall_cpp.cpp ****     return ::putc(c);
 536              		.loc 2 46 5
 537              		.loc 2 46 18 is_stmt 0
 538 0258 97000000 		call	_Z4putcc@plt
 538      E7800000 
 539              	.LVL36:
  47:src/syscall_cpp.cpp **** }
 540              		.loc 2 47 1
 541 0260 83308100 		ld	ra,8(sp)
 542              		.cfi_restore 1
GAS LISTING /tmp/cc5s914M.s 			page 12


 543 0264 03340100 		ld	s0,0(sp)
 544              		.cfi_restore 8
 545              		.cfi_def_cfa 2, 16
 546 0268 13010101 		addi	sp,sp,16
 547              		.cfi_def_cfa_offset 0
 548 026c 67800000 		jr	ra
 549              		.cfi_endproc
 550              	.LFE24:
 552              		.weak	_ZTV6Thread
 553              		.section	.data.rel.ro.local._ZTV6Thread,"awG",@progbits,_ZTV6Thread,comdat
 554              		.align	3
 557              	_ZTV6Thread:
 558 0000 00000000 		.dword	0
 558      00000000 
 559 0008 00000000 		.dword	0
 559      00000000 
 560 0010 00000000 		.dword	_ZN6ThreadD1Ev
 560      00000000 
 561 0018 00000000 		.dword	_ZN6ThreadD0Ev
 561      00000000 
 562 0020 00000000 		.dword	_ZN6Thread3runEv
 562      00000000 
 563              		.weak	_ZTV9Semaphore
 564              		.section	.data.rel.ro.local._ZTV9Semaphore,"awG",@progbits,_ZTV9Semaphore,comdat
 565              		.align	3
 568              	_ZTV9Semaphore:
 569 0000 00000000 		.dword	0
 569      00000000 
 570 0008 00000000 		.dword	0
 570      00000000 
 571 0010 00000000 		.dword	_ZN9SemaphoreD1Ev
 571      00000000 
 572 0018 00000000 		.dword	_ZN9SemaphoreD0Ev
 572      00000000 
 573              		.text
 574              	.Letext0:
 575              		.file 3 "src/../h/../lib/hw.h"
 576              		.file 4 "src/../h/syscall_c.h"
 2839              		.align	3
 2842              	DW.ref.__gxx_personality_v0:
 2843 0000 00000000 		.dword	__gxx_personality_v0
 2843      00000000 
 2844              		.ident	"GCC: (Ubuntu 9.4.0-1ubuntu1~20.04) 9.4.0"
 2845              		.section	.note.GNU-stack,"",@progbits
GAS LISTING /tmp/cc5s914M.s 			page 13


DEFINED SYMBOLS
                            *ABS*:0000000000000000 syscall_cpp.cpp
     /tmp/cc5s914M.s:10     .text._ZN6ThreadD2Ev:0000000000000000 _ZN6ThreadD2Ev
     /tmp/cc5s914M.s:14     .text._ZN6ThreadD2Ev:0000000000000000 .L0 
     /tmp/cc5s914M.s:16     .text._ZN6ThreadD2Ev:0000000000000000 .L0 
     /tmp/cc5s914M.s:17     .text._ZN6ThreadD2Ev:0000000000000004 .L0 
     /tmp/cc5s914M.s:19     .text._ZN6ThreadD2Ev:0000000000000008 .L0 
     /tmp/cc5s914M.s:21     .text._ZN6ThreadD2Ev:000000000000000c .L0 
     /tmp/cc5s914M.s:23     .text._ZN6ThreadD2Ev:000000000000000c .L0 
     /tmp/cc5s914M.s:24     .text._ZN6ThreadD2Ev:0000000000000010 .L0 
     /tmp/cc5s914M.s:25     .text._ZN6ThreadD2Ev:0000000000000010 .L0 
     /tmp/cc5s914M.s:27     .text._ZN6ThreadD2Ev:0000000000000014 .L0 
     /tmp/cc5s914M.s:29     .text._ZN6ThreadD2Ev:0000000000000018 .L0 
     /tmp/cc5s914M.s:10     .text._ZN6ThreadD2Ev:0000000000000000 _ZN6ThreadD1Ev
     /tmp/cc5s914M.s:38     .text._ZN6Thread3runEv:0000000000000000 _ZN6Thread3runEv
     /tmp/cc5s914M.s:41     .text._ZN6Thread3runEv:0000000000000000 .L0 
     /tmp/cc5s914M.s:43     .text._ZN6Thread3runEv:0000000000000000 .L0 
     /tmp/cc5s914M.s:44     .text._ZN6Thread3runEv:0000000000000004 .L0 
     /tmp/cc5s914M.s:46     .text._ZN6Thread3runEv:0000000000000008 .L0 
     /tmp/cc5s914M.s:48     .text._ZN6Thread3runEv:000000000000000c .L0 
     /tmp/cc5s914M.s:50     .text._ZN6Thread3runEv:000000000000000c .L0 
     /tmp/cc5s914M.s:51     .text._ZN6Thread3runEv:0000000000000010 .L0 
     /tmp/cc5s914M.s:52     .text._ZN6Thread3runEv:0000000000000010 .L0 
     /tmp/cc5s914M.s:54     .text._ZN6Thread3runEv:0000000000000014 .L0 
     /tmp/cc5s914M.s:56     .text._ZN6Thread3runEv:0000000000000018 .L0 
     /tmp/cc5s914M.s:63     .text:0000000000000000 _ZN6Thread10runWrapperEPv
     /tmp/cc5s914M.s:67     .text:0000000000000000 .L0 
     /tmp/cc5s914M.s:69     .text:0000000000000000 .L0 
     /tmp/cc5s914M.s:70     .text:0000000000000004 .L0 
     /tmp/cc5s914M.s:73     .text:000000000000000c .L0 
     /tmp/cc5s914M.s:74     .text:000000000000000c .L0 
     /tmp/cc5s914M.s:76     .text:0000000000000010 .L0 
     /tmp/cc5s914M.s:78     .text:0000000000000010 .L0 
     /tmp/cc5s914M.s:79     .text:0000000000000010 .L0 
     /tmp/cc5s914M.s:82     .text:0000000000000018 .L0 
     /tmp/cc5s914M.s:85     .text:000000000000001c .L0 
     /tmp/cc5s914M.s:86     .text:0000000000000020 .L0 
     /tmp/cc5s914M.s:88     .text:0000000000000024 .L0 
     /tmp/cc5s914M.s:89     .text:0000000000000024 .L0 
     /tmp/cc5s914M.s:91     .text:0000000000000028 .L0 
     /tmp/cc5s914M.s:93     .text:000000000000002c .L0 
     /tmp/cc5s914M.s:100    .text._ZN6ThreadD0Ev:0000000000000000 _ZN6ThreadD0Ev
     /tmp/cc5s914M.s:103    .text._ZN6ThreadD0Ev:0000000000000000 .L0 
     /tmp/cc5s914M.s:105    .text._ZN6ThreadD0Ev:0000000000000000 .L0 
     /tmp/cc5s914M.s:106    .text._ZN6ThreadD0Ev:0000000000000004 .L0 
     /tmp/cc5s914M.s:109    .text._ZN6ThreadD0Ev:000000000000000c .L0 
     /tmp/cc5s914M.s:110    .text._ZN6ThreadD0Ev:000000000000000c .L0 
     /tmp/cc5s914M.s:112    .text._ZN6ThreadD0Ev:0000000000000010 .L0 
     /tmp/cc5s914M.s:114    .text._ZN6ThreadD0Ev:0000000000000010 .L0 
     /tmp/cc5s914M.s:117    .text._ZN6ThreadD0Ev:000000000000001c .L0 
     /tmp/cc5s914M.s:119    .text._ZN6ThreadD0Ev:0000000000000020 .L0 
     /tmp/cc5s914M.s:120    .text._ZN6ThreadD0Ev:0000000000000020 .L0 
     /tmp/cc5s914M.s:122    .text._ZN6ThreadD0Ev:0000000000000024 .L0 
     /tmp/cc5s914M.s:124    .text._ZN6ThreadD0Ev:0000000000000028 .L0 
     /tmp/cc5s914M.s:131    .text:000000000000002c _ZN9SemaphoreD2Ev
     /tmp/cc5s914M.s:134    .text:000000000000002c .L0 
     /tmp/cc5s914M.s:2842   .data.rel.local.DW.ref.__gxx_personality_v0:0000000000000000 DW.ref.__gxx_personality_v0
GAS LISTING /tmp/cc5s914M.s 			page 14


     /tmp/cc5s914M.s:138    .text:000000000000002c .L0 
     /tmp/cc5s914M.s:139    .text:0000000000000030 .L0 
     /tmp/cc5s914M.s:143    .text:000000000000003c .L0 
     /tmp/cc5s914M.s:144    .text:000000000000003c .L0 
     /tmp/cc5s914M.s:145    .text:000000000000003c .L0 
     /tmp/cc5s914M.s:147    .text:0000000000000040 .L0 
     /tmp/cc5s914M.s:568    .data.rel.ro.local._ZTV9Semaphore:0000000000000000 _ZTV9Semaphore
     /tmp/cc5s914M.s:151    .text:0000000000000044 .L0 
     /tmp/cc5s914M.s:154    .text:0000000000000050 .L0 
     /tmp/cc5s914M.s:155    .text:0000000000000050 .L0 
     /tmp/cc5s914M.s:160    .text:000000000000005c .L0 
     /tmp/cc5s914M.s:161    .text:000000000000005c .L0 
     /tmp/cc5s914M.s:166    .text:0000000000000068 .L0 
     /tmp/cc5s914M.s:167    .text:000000000000006c .L0 
     /tmp/cc5s914M.s:169    .text:0000000000000070 .L0 
     /tmp/cc5s914M.s:170    .text:0000000000000070 .L0 
     /tmp/cc5s914M.s:172    .text:0000000000000074 .L0 
     /tmp/cc5s914M.s:175    .text:0000000000000078 .L0 
     /tmp/cc5s914M.s:177    .text:000000000000007c .L0 
     /tmp/cc5s914M.s:131    .text:000000000000002c _ZN9SemaphoreD1Ev
     /tmp/cc5s914M.s:193    .text:000000000000007c _ZN9SemaphoreD0Ev
     /tmp/cc5s914M.s:196    .text:000000000000007c .L0 
     /tmp/cc5s914M.s:198    .text:000000000000007c .L0 
     /tmp/cc5s914M.s:199    .text:0000000000000080 .L0 
     /tmp/cc5s914M.s:203    .text:000000000000008c .L0 
     /tmp/cc5s914M.s:204    .text:000000000000008c .L0 
     /tmp/cc5s914M.s:205    .text:000000000000008c .L0 
     /tmp/cc5s914M.s:207    .text:0000000000000090 .L0 
     /tmp/cc5s914M.s:210    .text:0000000000000094 .L0 
     /tmp/cc5s914M.s:216    .text:00000000000000ac .L0 
     /tmp/cc5s914M.s:218    .text:00000000000000b0 .L0 
     /tmp/cc5s914M.s:219    .text:00000000000000b0 .L0 
     /tmp/cc5s914M.s:221    .text:00000000000000b4 .L0 
     /tmp/cc5s914M.s:224    .text:00000000000000b8 .L0 
     /tmp/cc5s914M.s:226    .text:00000000000000bc .L0 
     /tmp/cc5s914M.s:232    .text:00000000000000bc _ZN6ThreadC2EPFvPvES0_
     /tmp/cc5s914M.s:235    .text:00000000000000bc .L0 
     /tmp/cc5s914M.s:237    .text:00000000000000bc .L0 
     /tmp/cc5s914M.s:238    .text:00000000000000c0 .L0 
     /tmp/cc5s914M.s:241    .text:00000000000000c8 .L0 
     /tmp/cc5s914M.s:242    .text:00000000000000c8 .L0 
     /tmp/cc5s914M.s:244    .text:00000000000000cc .L0 
     /tmp/cc5s914M.s:557    .data.rel.ro.local._ZTV6Thread:0000000000000000 _ZTV6Thread
     /tmp/cc5s914M.s:247    .text:00000000000000cc .L0 
     /tmp/cc5s914M.s:250    .text:00000000000000d8 .L0 
     /tmp/cc5s914M.s:251    .text:00000000000000d8 .L0 
     /tmp/cc5s914M.s:257    .text:00000000000000e4 .L0 
     /tmp/cc5s914M.s:258    .text:00000000000000e8 .L0 
     /tmp/cc5s914M.s:260    .text:00000000000000ec .L0 
     /tmp/cc5s914M.s:261    .text:00000000000000ec .L0 
     /tmp/cc5s914M.s:263    .text:00000000000000f0 .L0 
     /tmp/cc5s914M.s:265    .text:00000000000000f4 .L0 
     /tmp/cc5s914M.s:232    .text:00000000000000bc _ZN6ThreadC1EPFvPvES0_
     /tmp/cc5s914M.s:273    .text:00000000000000f4 _ZN6Thread5startEv
     /tmp/cc5s914M.s:276    .text:00000000000000f4 .L0 
     /tmp/cc5s914M.s:278    .text:00000000000000f4 .L0 
     /tmp/cc5s914M.s:279    .text:00000000000000f8 .L0 
GAS LISTING /tmp/cc5s914M.s 			page 15


     /tmp/cc5s914M.s:282    .text:0000000000000100 .L0 
     /tmp/cc5s914M.s:283    .text:0000000000000100 .L0 
     /tmp/cc5s914M.s:285    .text:0000000000000104 .L0 
     /tmp/cc5s914M.s:287    .text:0000000000000104 .L0 
     /tmp/cc5s914M.s:288    .text:0000000000000104 .L0 
     /tmp/cc5s914M.s:293    .text:0000000000000110 .L0 
     /tmp/cc5s914M.s:294    .text:0000000000000110 .L0 
     /tmp/cc5s914M.s:296    .text:0000000000000118 .L0 
     /tmp/cc5s914M.s:298    .text:000000000000011c .L0 
     /tmp/cc5s914M.s:299    .text:000000000000011c .L0 
     /tmp/cc5s914M.s:301    .text:0000000000000120 .L0 
     /tmp/cc5s914M.s:303    .text:0000000000000124 .L0 
     /tmp/cc5s914M.s:309    .text:0000000000000124 _ZN6Thread8dispatchEv
     /tmp/cc5s914M.s:312    .text:0000000000000124 .L0 
     /tmp/cc5s914M.s:313    .text:0000000000000124 .L0 
     /tmp/cc5s914M.s:314    .text:0000000000000128 .L0 
     /tmp/cc5s914M.s:317    .text:0000000000000130 .L0 
     /tmp/cc5s914M.s:318    .text:0000000000000130 .L0 
     /tmp/cc5s914M.s:320    .text:0000000000000134 .L0 
     /tmp/cc5s914M.s:322    .text:0000000000000134 .L0 
     /tmp/cc5s914M.s:323    .text:0000000000000134 .L0 
     /tmp/cc5s914M.s:326    .text:000000000000013c .L0 
     /tmp/cc5s914M.s:327    .text:0000000000000140 .L0 
     /tmp/cc5s914M.s:329    .text:0000000000000144 .L0 
     /tmp/cc5s914M.s:330    .text:0000000000000144 .L0 
     /tmp/cc5s914M.s:332    .text:0000000000000148 .L0 
     /tmp/cc5s914M.s:334    .text:000000000000014c .L0 
     /tmp/cc5s914M.s:340    .text:000000000000014c _ZN6ThreadC2Ev
     /tmp/cc5s914M.s:343    .text:000000000000014c .L0 
     /tmp/cc5s914M.s:345    .text:000000000000014c .L0 
     /tmp/cc5s914M.s:346    .text:0000000000000150 .L0 
     /tmp/cc5s914M.s:349    .text:0000000000000158 .L0 
     /tmp/cc5s914M.s:350    .text:0000000000000158 .L0 
     /tmp/cc5s914M.s:352    .text:000000000000015c .L0 
     /tmp/cc5s914M.s:355    .text:000000000000015c .L0 
     /tmp/cc5s914M.s:358    .text:0000000000000168 .L0 
     /tmp/cc5s914M.s:359    .text:0000000000000168 .L0 
     /tmp/cc5s914M.s:367    .text:0000000000000180 .L0 
     /tmp/cc5s914M.s:368    .text:0000000000000184 .L0 
     /tmp/cc5s914M.s:370    .text:0000000000000188 .L0 
     /tmp/cc5s914M.s:371    .text:0000000000000188 .L0 
     /tmp/cc5s914M.s:373    .text:000000000000018c .L0 
     /tmp/cc5s914M.s:375    .text:0000000000000190 .L0 
     /tmp/cc5s914M.s:340    .text:000000000000014c _ZN6ThreadC1Ev
     /tmp/cc5s914M.s:383    .text:0000000000000190 _ZN9SemaphoreC2Ej
     /tmp/cc5s914M.s:386    .text:0000000000000190 .L0 
     /tmp/cc5s914M.s:388    .text:0000000000000190 .L0 
     /tmp/cc5s914M.s:389    .text:0000000000000194 .L0 
     /tmp/cc5s914M.s:392    .text:000000000000019c .L0 
     /tmp/cc5s914M.s:393    .text:000000000000019c .L0 
     /tmp/cc5s914M.s:395    .text:00000000000001a0 .L0 
     /tmp/cc5s914M.s:398    .text:00000000000001a0 .L0 
     /tmp/cc5s914M.s:401    .text:00000000000001ac .L0 
     /tmp/cc5s914M.s:402    .text:00000000000001ac .L0 
     /tmp/cc5s914M.s:408    .text:00000000000001b8 .L0 
     /tmp/cc5s914M.s:409    .text:00000000000001bc .L0 
     /tmp/cc5s914M.s:411    .text:00000000000001c0 .L0 
GAS LISTING /tmp/cc5s914M.s 			page 16


     /tmp/cc5s914M.s:412    .text:00000000000001c0 .L0 
     /tmp/cc5s914M.s:414    .text:00000000000001c4 .L0 
     /tmp/cc5s914M.s:416    .text:00000000000001c8 .L0 
     /tmp/cc5s914M.s:383    .text:0000000000000190 _ZN9SemaphoreC1Ej
     /tmp/cc5s914M.s:424    .text:00000000000001c8 _ZN9Semaphore4waitEv
     /tmp/cc5s914M.s:427    .text:00000000000001c8 .L0 
     /tmp/cc5s914M.s:429    .text:00000000000001c8 .L0 
     /tmp/cc5s914M.s:430    .text:00000000000001cc .L0 
     /tmp/cc5s914M.s:433    .text:00000000000001d4 .L0 
     /tmp/cc5s914M.s:434    .text:00000000000001d4 .L0 
     /tmp/cc5s914M.s:436    .text:00000000000001d8 .L0 
     /tmp/cc5s914M.s:438    .text:00000000000001d8 .L0 
     /tmp/cc5s914M.s:439    .text:00000000000001d8 .L0 
     /tmp/cc5s914M.s:444    .text:00000000000001e4 .L0 
     /tmp/cc5s914M.s:445    .text:00000000000001e8 .L0 
     /tmp/cc5s914M.s:447    .text:00000000000001ec .L0 
     /tmp/cc5s914M.s:448    .text:00000000000001ec .L0 
     /tmp/cc5s914M.s:450    .text:00000000000001f0 .L0 
     /tmp/cc5s914M.s:452    .text:00000000000001f4 .L0 
     /tmp/cc5s914M.s:458    .text:00000000000001f4 _ZN9Semaphore6signalEv
     /tmp/cc5s914M.s:461    .text:00000000000001f4 .L0 
     /tmp/cc5s914M.s:463    .text:00000000000001f4 .L0 
     /tmp/cc5s914M.s:464    .text:00000000000001f8 .L0 
     /tmp/cc5s914M.s:467    .text:0000000000000200 .L0 
     /tmp/cc5s914M.s:468    .text:0000000000000200 .L0 
     /tmp/cc5s914M.s:470    .text:0000000000000204 .L0 
     /tmp/cc5s914M.s:472    .text:0000000000000204 .L0 
     /tmp/cc5s914M.s:473    .text:0000000000000204 .L0 
     /tmp/cc5s914M.s:478    .text:0000000000000210 .L0 
     /tmp/cc5s914M.s:479    .text:0000000000000214 .L0 
     /tmp/cc5s914M.s:481    .text:0000000000000218 .L0 
     /tmp/cc5s914M.s:482    .text:0000000000000218 .L0 
     /tmp/cc5s914M.s:484    .text:000000000000021c .L0 
     /tmp/cc5s914M.s:486    .text:0000000000000220 .L0 
     /tmp/cc5s914M.s:492    .text:0000000000000220 _ZN7Console4getcEv
     /tmp/cc5s914M.s:495    .text:0000000000000220 .L0 
     /tmp/cc5s914M.s:496    .text:0000000000000220 .L0 
     /tmp/cc5s914M.s:497    .text:0000000000000224 .L0 
     /tmp/cc5s914M.s:500    .text:000000000000022c .L0 
     /tmp/cc5s914M.s:501    .text:000000000000022c .L0 
     /tmp/cc5s914M.s:503    .text:0000000000000230 .L0 
     /tmp/cc5s914M.s:505    .text:0000000000000230 .L0 
     /tmp/cc5s914M.s:506    .text:0000000000000230 .L0 
     /tmp/cc5s914M.s:509    .text:0000000000000238 .L0 
     /tmp/cc5s914M.s:510    .text:000000000000023c .L0 
     /tmp/cc5s914M.s:512    .text:0000000000000240 .L0 
     /tmp/cc5s914M.s:513    .text:0000000000000240 .L0 
     /tmp/cc5s914M.s:515    .text:0000000000000244 .L0 
     /tmp/cc5s914M.s:517    .text:0000000000000248 .L0 
     /tmp/cc5s914M.s:523    .text:0000000000000248 _ZN7Console4putcEc
     /tmp/cc5s914M.s:526    .text:0000000000000248 .L0 
     /tmp/cc5s914M.s:528    .text:0000000000000248 .L0 
     /tmp/cc5s914M.s:529    .text:000000000000024c .L0 
     /tmp/cc5s914M.s:532    .text:0000000000000254 .L0 
     /tmp/cc5s914M.s:533    .text:0000000000000254 .L0 
     /tmp/cc5s914M.s:535    .text:0000000000000258 .L0 
     /tmp/cc5s914M.s:537    .text:0000000000000258 .L0 
GAS LISTING /tmp/cc5s914M.s 			page 17


     /tmp/cc5s914M.s:538    .text:0000000000000258 .L0 
     /tmp/cc5s914M.s:541    .text:0000000000000260 .L0 
     /tmp/cc5s914M.s:542    .text:0000000000000264 .L0 
     /tmp/cc5s914M.s:544    .text:0000000000000268 .L0 
     /tmp/cc5s914M.s:545    .text:0000000000000268 .L0 
     /tmp/cc5s914M.s:547    .text:000000000000026c .L0 
     /tmp/cc5s914M.s:549    .text:0000000000000270 .L0 
     /tmp/cc5s914M.s:34     .text._ZN6ThreadD2Ev:0000000000000018 .L0 
     /tmp/cc5s914M.s:59     .text._ZN6Thread3runEv:0000000000000018 .L0 
     /tmp/cc5s914M.s:577    .text:0000000000000270 .L0 
     /tmp/cc5s914M.s:127    .text._ZN6ThreadD0Ev:0000000000000028 .L0 
     /tmp/cc5s914M.s:151    .text:0000000000000044 .L0 
     /tmp/cc5s914M.s:247    .text:00000000000000cc .L0 
     /tmp/cc5s914M.s:355    .text:000000000000015c .L0 
     /tmp/cc5s914M.s:360    .text:000000000000016c .L0 
     /tmp/cc5s914M.s:398    .text:00000000000001a0 .L0 
     /tmp/cc5s914M.s:1600   .debug_abbrev:0000000000000000 .Ldebug_abbrev0
     /tmp/cc5s914M.s:2800   .debug_str:00000000000004d1 .LASF90
     /tmp/cc5s914M.s:2788   .debug_str:0000000000000469 .LASF91
     /tmp/cc5s914M.s:2668   .debug_str:00000000000000e5 .LASF92
     /tmp/cc5s914M.s:2620   .debug_ranges:0000000000000000 .Ldebug_ranges0
     /tmp/cc5s914M.s:2632   .debug_line:0000000000000000 .Ldebug_line0
     /tmp/cc5s914M.s:2822   .debug_str:0000000000000619 .LASF0
     /tmp/cc5s914M.s:2758   .debug_str:0000000000000378 .LASF1
     /tmp/cc5s914M.s:2730   .debug_str:00000000000002b6 .LASF2
     /tmp/cc5s914M.s:2742   .debug_str:0000000000000318 .LASF4
     /tmp/cc5s914M.s:2746   .debug_str:0000000000000328 .LASF3
     /tmp/cc5s914M.s:2652   .debug_str:0000000000000078 .LASF5
     /tmp/cc5s914M.s:2762   .debug_str:000000000000039e .LASF6
     /tmp/cc5s914M.s:2740   .debug_str:0000000000000305 .LASF7
     /tmp/cc5s914M.s:2814   .debug_str:00000000000005df .LASF8
     /tmp/cc5s914M.s:2702   .debug_str:00000000000001f5 .LASF9
     /tmp/cc5s914M.s:2772   .debug_str:00000000000003ed .LASF10
     /tmp/cc5s914M.s:2802   .debug_str:0000000000000595 .LASF11
     /tmp/cc5s914M.s:2722   .debug_str:000000000000027e .LASF12
     /tmp/cc5s914M.s:2640   .debug_str:0000000000000020 .LASF13
     /tmp/cc5s914M.s:2662   .debug_str:00000000000000c1 .LASF14
     /tmp/cc5s914M.s:2792   .debug_str:0000000000000491 .LASF15
     /tmp/cc5s914M.s:2672   .debug_str:000000000000010a .LASF16
     /tmp/cc5s914M.s:2642   .debug_str:0000000000000030 .LASF17
     /tmp/cc5s914M.s:2690   .debug_str:0000000000000197 .LASF18
     /tmp/cc5s914M.s:2720   .debug_str:0000000000000271 .LASF19
     /tmp/cc5s914M.s:2670   .debug_str:00000000000000ff .LASF20
     /tmp/cc5s914M.s:2664   .debug_str:00000000000000cd .LASF21
     /tmp/cc5s914M.s:2810   .debug_str:00000000000005c8 .LASF22
     /tmp/cc5s914M.s:2764   .debug_str:00000000000003b1 .LASF23
     /tmp/cc5s914M.s:2794   .debug_str:00000000000004a7 .LASF24
     /tmp/cc5s914M.s:2824   .debug_str:0000000000000626 .LASF25
     /tmp/cc5s914M.s:2738   .debug_str:00000000000002fa .LASF26
     /tmp/cc5s914M.s:2638   .debug_str:0000000000000013 .LASF27
     /tmp/cc5s914M.s:2688   .debug_str:000000000000018a .LASF28
     /tmp/cc5s914M.s:2804   .debug_str:00000000000005a4 .LASF29
     /tmp/cc5s914M.s:2820   .debug_str:000000000000060e .LASF30
     /tmp/cc5s914M.s:2750   .debug_str:000000000000034b .LASF31
     /tmp/cc5s914M.s:2748   .debug_str:000000000000033a .LASF32
     /tmp/cc5s914M.s:2634   .debug_str:0000000000000000 .LASF33
     /tmp/cc5s914M.s:2680   .debug_str:0000000000000151 .LASF34
GAS LISTING /tmp/cc5s914M.s 			page 18


     /tmp/cc5s914M.s:2706   .debug_str:000000000000021a .LASF93
     /tmp/cc5s914M.s:2676   .debug_str:000000000000013a .LASF73
     /tmp/cc5s914M.s:2650   .debug_str:0000000000000065 .LASF94
     /tmp/cc5s914M.s:2656   .debug_str:0000000000000090 .LASF36
     /tmp/cc5s914M.s:2760   .debug_str:000000000000038b .LASF57
     /tmp/cc5s914M.s:2766   .debug_str:00000000000003c1 .LASF35
     /tmp/cc5s914M.s:2636   .debug_str:0000000000000009 .LASF37
     /tmp/cc5s914M.s:2716   .debug_str:000000000000024b .LASF43
     /tmp/cc5s914M.s:2732   .debug_str:00000000000002c4 .LASF45
     /tmp/cc5s914M.s:2806   .debug_str:00000000000005af .LASF47
     /tmp/cc5s914M.s:2786   .debug_str:000000000000045e .LASF49
     /tmp/cc5s914M.s:2660   .debug_str:00000000000000af .LASF51
     /tmp/cc5s914M.s:2830   .debug_str:0000000000000646 .LASF38
     /tmp/cc5s914M.s:2784   .debug_str:0000000000000449 .LASF40
     /tmp/cc5s914M.s:2768   .debug_str:00000000000003c6 .LASF39
     /tmp/cc5s914M.s:2686   .debug_str:0000000000000173 .LASF41
     /tmp/cc5s914M.s:2828   .debug_str:000000000000063d .LASF59
     /tmp/cc5s914M.s:2816   .debug_str:00000000000005ef .LASF95
     /tmp/cc5s914M.s:2808   .debug_str:00000000000005c1 .LASF42
     /tmp/cc5s914M.s:2734   .debug_str:00000000000002d4 .LASF44
     /tmp/cc5s914M.s:2728   .debug_str:00000000000002a9 .LASF46
     /tmp/cc5s914M.s:2776   .debug_str:0000000000000406 .LASF48
     /tmp/cc5s914M.s:2714   .debug_str:0000000000000243 .LASF50
     /tmp/cc5s914M.s:2752   .debug_str:0000000000000356 .LASF52
     /tmp/cc5s914M.s:2756   .debug_str:0000000000000372 .LASF53
     /tmp/cc5s914M.s:2698   .debug_str:00000000000001d3 .LASF54
     /tmp/cc5s914M.s:2744   .debug_str:000000000000031f .LASF96
     /tmp/cc5s914M.s:2696   .debug_str:00000000000001bd .LASF97
     /tmp/cc5s914M.s:2700   .debug_str:00000000000001e6 .LASF55
     /tmp/cc5s914M.s:2654   .debug_str:000000000000007f .LASF98
     /tmp/cc5s914M.s:2826   .debug_str:0000000000000632 .LASF56
     /tmp/cc5s914M.s:2658   .debug_str:0000000000000095 .LASF58
     /tmp/cc5s914M.s:524    .text:0000000000000248 .LFB24
     /tmp/cc5s914M.s:550    .text:0000000000000270 .LFE24
     /tmp/cc5s914M.s:2381   .debug_loc:0000000000000000 .LLST13
     /tmp/cc5s914M.s:539    .text:0000000000000260 .LVL36
     /tmp/cc5s914M.s:493    .text:0000000000000220 .LFB23
     /tmp/cc5s914M.s:518    .text:0000000000000248 .LFE23
     /tmp/cc5s914M.s:507    .text:0000000000000238 .LVL34
     /tmp/cc5s914M.s:459    .text:00000000000001f4 .LFB22
     /tmp/cc5s914M.s:487    .text:0000000000000220 .LFE22
     /tmp/cc5s914M.s:2780   .debug_str:0000000000000432 .LASF60
     /tmp/cc5s914M.s:2395   .debug_loc:0000000000000039 .LLST12
     /tmp/cc5s914M.s:476    .text:0000000000000210 .LVL33
     /tmp/cc5s914M.s:425    .text:00000000000001c8 .LFB21
     /tmp/cc5s914M.s:453    .text:00000000000001f4 .LFE21
     /tmp/cc5s914M.s:2409   .debug_loc:0000000000000072 .LLST11
     /tmp/cc5s914M.s:442    .text:00000000000001e4 .LVL30
     /tmp/cc5s914M.s:2774   .debug_str:00000000000003fc .LASF61
     /tmp/cc5s914M.s:2694   .debug_str:00000000000001ab .LASF62
     /tmp/cc5s914M.s:194    .text:000000000000007c .LFB20
     /tmp/cc5s914M.s:227    .text:00000000000000bc .LFE20
     /tmp/cc5s914M.s:2423   .debug_loc:00000000000000ab .LLST3
     /tmp/cc5s914M.s:211    .text:000000000000009c .LVL12
     /tmp/cc5s914M.s:214    .text:00000000000000a8 .LVL13
     /tmp/cc5s914M.s:2708   .debug_str:0000000000000222 .LASF63
     /tmp/cc5s914M.s:132    .text:000000000000002c .LFB18
GAS LISTING /tmp/cc5s914M.s 			page 19


     /tmp/cc5s914M.s:178    .text:000000000000007c .LFE18
     /tmp/cc5s914M.s:2441   .debug_loc:00000000000000f7 .LLST2
     /tmp/cc5s914M.s:158    .text:000000000000005c .LVL8
     /tmp/cc5s914M.s:163    .text:0000000000000068 .LVL9
     /tmp/cc5s914M.s:2832   .debug_str:000000000000064b .LASF66
     /tmp/cc5s914M.s:2782   .debug_str:0000000000000437 .LASF64
     /tmp/cc5s914M.s:384    .text:0000000000000190 .LFB15
     /tmp/cc5s914M.s:417    .text:00000000000001c8 .LFE15
     /tmp/cc5s914M.s:2459   .debug_loc:0000000000000143 .LLST9
     /tmp/cc5s914M.s:2479   .debug_loc:0000000000000191 .LLST10
     /tmp/cc5s914M.s:405    .text:00000000000001b8 .LVL27
     /tmp/cc5s914M.s:64     .text:0000000000000000 .LFB13
     /tmp/cc5s914M.s:94     .text:000000000000002c .LFE13
     /tmp/cc5s914M.s:2493   .debug_loc:00000000000001ca .LLST0
     /tmp/cc5s914M.s:83     .text:000000000000001c .LVL3
     /tmp/cc5s914M.s:2818   .debug_str:00000000000005ff .LASF65
     /tmp/cc5s914M.s:341    .text:000000000000014c .LFB11
     /tmp/cc5s914M.s:376    .text:0000000000000190 .LFE11
     /tmp/cc5s914M.s:2507   .debug_loc:0000000000000203 .LLST8
     /tmp/cc5s914M.s:364    .text:0000000000000180 .LVL24
     /tmp/cc5s914M.s:310    .text:0000000000000124 .LFB9
     /tmp/cc5s914M.s:335    .text:000000000000014c .LFE9
     /tmp/cc5s914M.s:324    .text:000000000000013c .LVL21
     /tmp/cc5s914M.s:274    .text:00000000000000f4 .LFB8
     /tmp/cc5s914M.s:304    .text:0000000000000124 .LFE8
     /tmp/cc5s914M.s:2525   .debug_loc:000000000000024f .LLST7
     /tmp/cc5s914M.s:291    .text:0000000000000110 .LVL20
     /tmp/cc5s914M.s:2710   .debug_str:0000000000000234 .LASF67
     /tmp/cc5s914M.s:2704   .debug_str:0000000000000203 .LASF68
     /tmp/cc5s914M.s:233    .text:00000000000000bc .LFB6
     /tmp/cc5s914M.s:266    .text:00000000000000f4 .LFE6
     /tmp/cc5s914M.s:2539   .debug_loc:0000000000000288 .LLST4
     /tmp/cc5s914M.s:2559   .debug_loc:00000000000002d6 .LLST5
     /tmp/cc5s914M.s:2573   .debug_loc:000000000000030f .LLST6
     /tmp/cc5s914M.s:254    .text:00000000000000e4 .LVL17
     /tmp/cc5s914M.s:39     .text._ZN6Thread3runEv:0000000000000000 .LFB4
     /tmp/cc5s914M.s:57     .text._ZN6Thread3runEv:0000000000000018 .LFE4
     /tmp/cc5s914M.s:2644   .debug_str:000000000000003c .LASF69
     /tmp/cc5s914M.s:101    .text._ZN6ThreadD0Ev:0000000000000000 .LFB3
     /tmp/cc5s914M.s:125    .text._ZN6ThreadD0Ev:0000000000000028 .LFE3
     /tmp/cc5s914M.s:2587   .debug_loc:0000000000000348 .LLST1
     /tmp/cc5s914M.s:115    .text._ZN6ThreadD0Ev:0000000000000018 .LVL5
     /tmp/cc5s914M.s:2798   .debug_str:00000000000004c2 .LASF70
     /tmp/cc5s914M.s:11     .text._ZN6ThreadD2Ev:0000000000000000 .LFB1
     /tmp/cc5s914M.s:30     .text._ZN6ThreadD2Ev:0000000000000018 .LFE1
     /tmp/cc5s914M.s:2692   .debug_str:00000000000001a2 .LASF71
     /tmp/cc5s914M.s:2648   .debug_str:000000000000005c .LASF72
     /tmp/cc5s914M.s:2790   .debug_str:000000000000047d .LASF74
     /tmp/cc5s914M.s:2812   .debug_str:00000000000005d4 .LASF75
     /tmp/cc5s914M.s:2646   .debug_str:000000000000004b .LASF76
     /tmp/cc5s914M.s:2666   .debug_str:00000000000000dc .LASF77
     /tmp/cc5s914M.s:2834   .debug_str:0000000000000650 .LASF99
     /tmp/cc5s914M.s:2796   .debug_str:00000000000004b2 .LASF100
     /tmp/cc5s914M.s:2678   .debug_str:000000000000013f .LASF78
     /tmp/cc5s914M.s:2712   .debug_str:0000000000000239 .LASF79
     /tmp/cc5s914M.s:2736   .debug_str:00000000000002e6 .LASF80
     /tmp/cc5s914M.s:2726   .debug_str:000000000000029e .LASF81
GAS LISTING /tmp/cc5s914M.s 			page 20


     /tmp/cc5s914M.s:2682   .debug_str:0000000000000157 .LASF82
     /tmp/cc5s914M.s:2684   .debug_str:000000000000016a .LASF83
     /tmp/cc5s914M.s:2770   .debug_str:00000000000003cd .LASF84
     /tmp/cc5s914M.s:2754   .debug_str:0000000000000365 .LASF85
     /tmp/cc5s914M.s:2778   .debug_str:000000000000041d .LASF86
     /tmp/cc5s914M.s:2724   .debug_str:000000000000028e .LASF87
     /tmp/cc5s914M.s:2674   .debug_str:0000000000000120 .LASF88
     /tmp/cc5s914M.s:2718   .debug_str:0000000000000260 .LASF89
     /tmp/cc5s914M.s:527    .text:0000000000000248 .LVL35
     /tmp/cc5s914M.s:462    .text:00000000000001f4 .LVL31
     /tmp/cc5s914M.s:474    .text:0000000000000208 .LVL32
     /tmp/cc5s914M.s:428    .text:00000000000001c8 .LVL28
     /tmp/cc5s914M.s:440    .text:00000000000001dc .LVL29
     /tmp/cc5s914M.s:197    .text:000000000000007c .LVL11
     /tmp/cc5s914M.s:222    .text:00000000000000b4 .LVL14
     /tmp/cc5s914M.s:137    .text:000000000000002c .LVL6
     /tmp/cc5s914M.s:156    .text:0000000000000054 .LVL7
     /tmp/cc5s914M.s:173    .text:0000000000000074 .LVL10
     /tmp/cc5s914M.s:387    .text:0000000000000190 .LVL25
     /tmp/cc5s914M.s:403    .text:00000000000001b0 .LVL26
     /tmp/cc5s914M.s:68     .text:0000000000000000 .LVL2
     /tmp/cc5s914M.s:344    .text:000000000000014c .LVL22
     /tmp/cc5s914M.s:362    .text:0000000000000178 .LVL23
     /tmp/cc5s914M.s:277    .text:00000000000000f4 .LVL18
     /tmp/cc5s914M.s:289    .text:0000000000000108 .LVL19
     /tmp/cc5s914M.s:236    .text:00000000000000bc .LVL15
     /tmp/cc5s914M.s:252    .text:00000000000000dc .LVL16
     /tmp/cc5s914M.s:104    .text._ZN6ThreadD0Ev:0000000000000000 .LVL4
     /tmp/cc5s914M.s:578    .debug_info:0000000000000000 .Ldebug_info0
     /tmp/cc5s914M.s:5      .text:0000000000000000 .Ltext0
     /tmp/cc5s914M.s:574    .text:0000000000000270 .Letext0
     /tmp/cc5s914M.s:181    .gcc_except_table:0000000000000000 .LLSDA18
                           .group:0000000000000000 _ZN6ThreadD5Ev

UNDEFINED SYMBOLS
_ZdlPv
_Z9sem_closeP3Sem
_Z10sem_deleteP3Sem
__gxx_personality_v0
_Z12thread_allocPP3PCBPFvPvES2_
_Z16thread_schedulerP3PCB
_Z15thread_dispatchv
_Z8sem_openPP3Semj
_Z8sem_waitP3Sem
_Z10sem_signalP3Sem
_Z4getcv
_Z4putcc
