GAS LISTING /tmp/ccGTScPG.s 			page 1


   1              		.file	"syscall_c.cpp"
   2              		.option pic
   3              		.option norelax
   4              		.text
   5              	.Ltext0:
   6              		.align	2
   7              		.globl	_Z7syscallv
   9              	_Z7syscallv:
  10              	.LFB28:
  11              		.file 1 "src/syscall_c.cpp"
   1:src/syscall_c.cpp **** #include "../h/syscall_c.h"
   2:src/syscall_c.cpp **** 
   3:src/syscall_c.cpp **** #include "../h/pcb.h"
   4:src/syscall_c.cpp **** #include "../lib/console.h"
   5:src/syscall_c.cpp **** 
   6:src/syscall_c.cpp **** 
   7:src/syscall_c.cpp **** void syscall() {
  12              		.loc 1 7 16
  13              		.cfi_startproc
  14 0000 130101FF 		addi	sp,sp,-16
  15              		.cfi_def_cfa_offset 16
  16 0004 23348100 		sd	s0,8(sp)
  17              		.cfi_offset 8, -8
  18 0008 13040101 		addi	s0,sp,16
  19              		.cfi_def_cfa 8, 0
   8:src/syscall_c.cpp ****     __asm__ volatile("ecall");
  20              		.loc 1 8 5
  21              		.loc 1 8 30 is_stmt 0
  22              	#APP
  23              	# 8 "src/syscall_c.cpp" 1
   9              	}
  24              		ecall
  25              	# 0 "" 2
  26              		.loc 1 9 1
  27              	#NO_APP
  28 0010 03348100 		ld	s0,8(sp)
  29              		.cfi_restore 8
  30              		.cfi_def_cfa 2, 16
  31 0014 13010101 		addi	sp,sp,16
  32              		.cfi_def_cfa_offset 0
  33 0018 67800000 		jr	ra
  34              		.cfi_endproc
  35              	.LFE28:
  37              		.align	2
  38              		.globl	_Z9mem_allocm
  40              	_Z9mem_allocm:
  41              	.LFB29:
  10:src/syscall_c.cpp **** 
  11:src/syscall_c.cpp **** void *mem_alloc(size_t size) {
  42              		.loc 1 11 30 is_stmt 1
  43              		.cfi_startproc
  44              	.LVL0:
  45 001c 130101FF 		addi	sp,sp,-16
  46              		.cfi_def_cfa_offset 16
  47 0020 23341100 		sd	ra,8(sp)
  48 0024 23308100 		sd	s0,0(sp)
  49              		.cfi_offset 1, -8
GAS LISTING /tmp/ccGTScPG.s 			page 2


  50              		.cfi_offset 8, -16
  51 0028 13040101 		addi	s0,sp,16
  52              		.cfi_def_cfa 8, 0
  12:src/syscall_c.cpp ****     size = size % MEM_BLOCK_SIZE == 0 ? size / MEM_BLOCK_SIZE : (size / MEM_BLOCK_SIZE + 1 ); //pre
  53              		.loc 1 12 5
  54              		.loc 1 12 17 is_stmt 0
  55 002c 9377F503 		andi	a5,a0,63
  56              		.loc 1 12 39
  57 0030 63980702 		bnez	a5,.L4
  58              		.loc 1 12 39 discriminator 1
  59 0034 13556500 		srli	a0,a0,6
  60              	.LVL1:
  61              	.L5:
  13:src/syscall_c.cpp **** 
  14:src/syscall_c.cpp ****     __asm__ volatile("mv a1, %0" : : "r" (size));
  62              		.loc 1 14 5 is_stmt 1 discriminator 4
  63              		.loc 1 14 49 is_stmt 0 discriminator 4
  64              	#APP
  65              	# 14 "src/syscall_c.cpp" 1
  15              	    __asm__ volatile("mv a0, %0" : : "r" (MALLOC_CODE));
  66              		mv a1, a0
  67              	# 0 "" 2
  68              		.loc 1 15 5 is_stmt 1 discriminator 4
  69              		.loc 1 15 56 is_stmt 0 discriminator 4
  70              	#NO_APP
  71 003c 93071000 		li	a5,1
  72              	#APP
  73              	# 15 "src/syscall_c.cpp" 1
  16              	
  17:src/syscall_c.cpp ****     syscall();
  74              		mv a0, a5
  75              	# 0 "" 2
  76              		.loc 1 17 5 is_stmt 1 discriminator 4
  77              		.loc 1 17 12 is_stmt 0 discriminator 4
  78              	#NO_APP
  79 0044 97000000 		call	_Z7syscallv
  79      E7800000 
  80              	.LVL2:
  18:src/syscall_c.cpp **** 
  19:src/syscall_c.cpp ****     void* ret;
  81              		.loc 1 19 5 is_stmt 1 discriminator 4
  20:src/syscall_c.cpp ****     __asm__ volatile("mv %0, a0" : "=r" (ret));
  82              		.loc 1 20 5 discriminator 4
  83              		.loc 1 20 47 is_stmt 0 discriminator 4
  84              	#APP
  85              	# 20 "src/syscall_c.cpp" 1
  21              	    return ret;
  86              		mv a0, a0
  87              	# 0 "" 2
  88              	.LVL3:
  89              		.loc 1 21 5 is_stmt 1 discriminator 4
  22:src/syscall_c.cpp **** }
  90              		.loc 1 22 1 is_stmt 0 discriminator 4
  91              	#NO_APP
  92 0050 83308100 		ld	ra,8(sp)
  93              		.cfi_remember_state
  94              		.cfi_restore 1
GAS LISTING /tmp/ccGTScPG.s 			page 3


  95 0054 03340100 		ld	s0,0(sp)
  96              		.cfi_restore 8
  97              		.cfi_def_cfa 2, 16
  98 0058 13010101 		addi	sp,sp,16
  99              		.cfi_def_cfa_offset 0
 100 005c 67800000 		jr	ra
 101              	.LVL4:
 102              	.L4:
 103              		.cfi_restore_state
  12:src/syscall_c.cpp **** 
 104              		.loc 1 12 71 discriminator 2
 105 0060 13556500 		srli	a0,a0,6
 106              	.LVL5:
  12:src/syscall_c.cpp **** 
 107              		.loc 1 12 39 discriminator 2
 108 0064 13051500 		addi	a0,a0,1
 109 0068 6FF01FFD 		j	.L5
 110              		.cfi_endproc
 111              	.LFE29:
 113              		.align	2
 114              		.globl	_Z8mem_freePv
 116              	_Z8mem_freePv:
 117              	.LFB30:
  23:src/syscall_c.cpp **** 
  24:src/syscall_c.cpp **** int mem_free(void *addr) {
 118              		.loc 1 24 26 is_stmt 1
 119              		.cfi_startproc
 120              	.LVL6:
 121 006c 130101FF 		addi	sp,sp,-16
 122              		.cfi_def_cfa_offset 16
 123 0070 23341100 		sd	ra,8(sp)
 124 0074 23308100 		sd	s0,0(sp)
 125              		.cfi_offset 1, -8
 126              		.cfi_offset 8, -16
 127 0078 13040101 		addi	s0,sp,16
 128              		.cfi_def_cfa 8, 0
  25:src/syscall_c.cpp ****     __asm__ volatile("mv a1, %0" : : "r" (addr));
 129              		.loc 1 25 5
 130              		.loc 1 25 49 is_stmt 0
 131              	#APP
 132              	# 25 "src/syscall_c.cpp" 1
  26              	    __asm__ volatile("mv a0, %0" : : "r" (MFREE_CODE));
 133              		mv a1, a0
 134              	# 0 "" 2
 135              		.loc 1 26 5 is_stmt 1
 136              		.loc 1 26 55 is_stmt 0
 137              	#NO_APP
 138 0080 93072000 		li	a5,2
 139              	#APP
 140              	# 26 "src/syscall_c.cpp" 1
  27              	
  28:src/syscall_c.cpp ****     syscall();
 141              		mv a0, a5
 142              	# 0 "" 2
 143              		.loc 1 28 5 is_stmt 1
 144              		.loc 1 28 12 is_stmt 0
 145              	#NO_APP
GAS LISTING /tmp/ccGTScPG.s 			page 4


 146 0088 97000000 		call	_Z7syscallv
 146      E7800000 
 147              	.LVL7:
  29:src/syscall_c.cpp **** 
  30:src/syscall_c.cpp ****     int ret;
 148              		.loc 1 30 5 is_stmt 1
  31:src/syscall_c.cpp ****     __asm__ volatile("mv %0, a0" : "=r" (ret));
 149              		.loc 1 31 5
 150              		.loc 1 31 47 is_stmt 0
 151              	#APP
 152              	# 31 "src/syscall_c.cpp" 1
  32              	    return ret;
 153              		mv a0, a0
 154              	# 0 "" 2
 155              	.LVL8:
 156              		.loc 1 32 5 is_stmt 1
  33:src/syscall_c.cpp **** }
 157              		.loc 1 33 1 is_stmt 0
 158              	#NO_APP
 159 0094 1B050500 		sext.w	a0,a0
 160 0098 83308100 		ld	ra,8(sp)
 161              		.cfi_restore 1
 162 009c 03340100 		ld	s0,0(sp)
 163              		.cfi_restore 8
 164              		.cfi_def_cfa 2, 16
 165 00a0 13010101 		addi	sp,sp,16
 166              		.cfi_def_cfa_offset 0
 167 00a4 67800000 		jr	ra
 168              		.cfi_endproc
 169              	.LFE30:
 171              		.align	2
 172              		.globl	_Z13thread_createPP3PCBPFvPvES2_
 174              	_Z13thread_createPP3PCBPFvPvES2_:
 175              	.LFB31:
  34:src/syscall_c.cpp **** 
  35:src/syscall_c.cpp **** int thread_create (thread_t* handle, void(*start_routine)(void*), void* arg) {
 176              		.loc 1 35 78 is_stmt 1
 177              		.cfi_startproc
 178              	.LVL9:
 179 00a8 130101FD 		addi	sp,sp,-48
 180              		.cfi_def_cfa_offset 48
 181 00ac 23341102 		sd	ra,40(sp)
 182 00b0 23308102 		sd	s0,32(sp)
 183 00b4 233C9100 		sd	s1,24(sp)
 184 00b8 23382101 		sd	s2,16(sp)
 185 00bc 23343101 		sd	s3,8(sp)
 186              		.cfi_offset 1, -8
 187              		.cfi_offset 8, -16
 188              		.cfi_offset 9, -24
 189              		.cfi_offset 18, -32
 190              		.cfi_offset 19, -40
 191 00c0 13040103 		addi	s0,sp,48
 192              		.cfi_def_cfa 8, 0
 193 00c4 93040500 		mv	s1,a0
 194 00c8 13890500 		mv	s2,a1
 195 00cc 93090600 		mv	s3,a2
  36:src/syscall_c.cpp ****     thread_t *tempHandle = handle; void(*tempRoutine)(void*) = start_routine; void* tempArg = arg;
GAS LISTING /tmp/ccGTScPG.s 			page 5


 196              		.loc 1 36 5
 197              	.LVL10:
 198              		.loc 1 36 36
 199              		.loc 1 36 79
  37:src/syscall_c.cpp **** 
  38:src/syscall_c.cpp ****     uint64* stack_space;
 200              		.loc 1 38 5
  39:src/syscall_c.cpp ****     if (start_routine != nullptr) {
 201              		.loc 1 39 5
 202 00d0 63800506 		beqz	a1,.L12
  40:src/syscall_c.cpp ****         stack_space = new uint64[DEFAULT_STACK_SIZE];
 203              		.loc 1 40 9
 204              		.loc 1 40 52 is_stmt 0
 205 00d4 37850000 		li	a0,32768
 206              	.LVL11:
 207 00d8 97000000 		call	_Znam@plt
 207      E7800000 
 208              	.LVL12:
  41:src/syscall_c.cpp ****         stack_space = &stack_space[DEFAULT_STACK_SIZE];
 209              		.loc 1 41 9 is_stmt 1
 210              		.loc 1 41 21 is_stmt 0
 211 00e0 B7870000 		li	a5,32768
 212 00e4 3305F500 		add	a0,a0,a5
 213              	.LVL13:
 214              	.L10:
  42:src/syscall_c.cpp ****     } else stack_space = nullptr;
  43:src/syscall_c.cpp **** 
  44:src/syscall_c.cpp ****     __asm__ volatile("mv a7, %0" : : "r" (stack_space));
 215              		.loc 1 44 5 is_stmt 1
 216              		.loc 1 44 56 is_stmt 0
 217              	#APP
 218              	# 44 "src/syscall_c.cpp" 1
  45              	    __asm__ volatile("mv a3, %0" : : "r" (tempArg));
 219              		mv a7, a0
 220              	# 0 "" 2
 221              		.loc 1 45 5 is_stmt 1
 222              		.loc 1 45 52 is_stmt 0
 223              	# 45 "src/syscall_c.cpp" 1
  46              	    __asm__ volatile("mv a2, %0" : : "r" (tempRoutine));
 224              		mv a3, s3
 225              	# 0 "" 2
 226              		.loc 1 46 5 is_stmt 1
 227              		.loc 1 46 56 is_stmt 0
 228              	# 46 "src/syscall_c.cpp" 1
  47              	    __asm__ volatile("mv a1, %0" : : "r" (tempHandle));
 229              		mv a2, s2
 230              	# 0 "" 2
 231              		.loc 1 47 5 is_stmt 1
 232              		.loc 1 47 55 is_stmt 0
 233              	# 47 "src/syscall_c.cpp" 1
  48              	    __asm__ volatile("mv a0, %0" : : "r" (TCREATE_CODE));
 234              		mv a1, s1
 235              	# 0 "" 2
 236              		.loc 1 48 5 is_stmt 1
 237              		.loc 1 48 57 is_stmt 0
 238              	#NO_APP
 239 00f8 93071001 		li	a5,17
GAS LISTING /tmp/ccGTScPG.s 			page 6


 240              	#APP
 241              	# 48 "src/syscall_c.cpp" 1
  49              	
  50:src/syscall_c.cpp ****     syscall();
 242              		mv a0, a5
 243              	# 0 "" 2
 244              		.loc 1 50 5 is_stmt 1
 245              		.loc 1 50 12 is_stmt 0
 246              	#NO_APP
 247 0100 97000000 		call	_Z7syscallv
 247      E7800000 
 248              	.LVL14:
  51:src/syscall_c.cpp **** 
  52:src/syscall_c.cpp ****     int ret = *handle ? 0 : -1;
 249              		.loc 1 52 5 is_stmt 1
 250              		.loc 1 52 15 is_stmt 0
 251 0108 83B70400 		ld	a5,0(s1)
 252              		.loc 1 52 23
 253 010c 63860702 		beqz	a5,.L13
 254 0110 13050000 		li	a0,0
 255              	.L11:
 256              	.LVL15:
  53:src/syscall_c.cpp ****     return ret;
 257              		.loc 1 53 5 is_stmt 1 discriminator 4
  54:src/syscall_c.cpp **** }
 258              		.loc 1 54 1 is_stmt 0 discriminator 4
 259 0114 83308102 		ld	ra,40(sp)
 260              		.cfi_remember_state
 261              		.cfi_restore 1
 262 0118 03340102 		ld	s0,32(sp)
 263              		.cfi_restore 8
 264              		.cfi_def_cfa 2, 48
 265 011c 83348101 		ld	s1,24(sp)
 266              		.cfi_restore 9
 267              	.LVL16:
 268 0120 03390101 		ld	s2,16(sp)
 269              		.cfi_restore 18
 270              	.LVL17:
 271 0124 83398100 		ld	s3,8(sp)
 272              		.cfi_restore 19
 273              	.LVL18:
 274 0128 13010103 		addi	sp,sp,48
 275              		.cfi_def_cfa_offset 0
 276 012c 67800000 		jr	ra
 277              	.LVL19:
 278              	.L12:
 279              		.cfi_restore_state
  42:src/syscall_c.cpp **** 
 280              		.loc 1 42 24
 281 0130 13050000 		li	a0,0
 282 0134 6FF05FFB 		j	.L10
 283              	.LVL20:
 284              	.L13:
  52:src/syscall_c.cpp ****     return ret;
 285              		.loc 1 52 23
 286 0138 1305F0FF 		li	a0,-1
 287 013c 6FF09FFD 		j	.L11
GAS LISTING /tmp/ccGTScPG.s 			page 7


 288              		.cfi_endproc
 289              	.LFE31:
 291              		.align	2
 292              		.globl	_Z15thread_dispatchv
 294              	_Z15thread_dispatchv:
 295              	.LFB32:
  55:src/syscall_c.cpp **** 
  56:src/syscall_c.cpp **** void thread_dispatch () {
 296              		.loc 1 56 25 is_stmt 1
 297              		.cfi_startproc
 298 0140 130101FF 		addi	sp,sp,-16
 299              		.cfi_def_cfa_offset 16
 300 0144 23341100 		sd	ra,8(sp)
 301 0148 23308100 		sd	s0,0(sp)
 302              		.cfi_offset 1, -8
 303              		.cfi_offset 8, -16
 304 014c 13040101 		addi	s0,sp,16
 305              		.cfi_def_cfa 8, 0
  57:src/syscall_c.cpp ****     __asm__ volatile("mv a0, %0" : : "r" (TDISPATCH_CODE));
 306              		.loc 1 57 5
 307              		.loc 1 57 59 is_stmt 0
 308 0150 93073001 		li	a5,19
 309              	#APP
 310              	# 57 "src/syscall_c.cpp" 1
  58              	
  59:src/syscall_c.cpp ****     syscall();
 311              		mv a0, a5
 312              	# 0 "" 2
 313              		.loc 1 59 5 is_stmt 1
 314              		.loc 1 59 12 is_stmt 0
 315              	#NO_APP
 316 0158 97000000 		call	_Z7syscallv
 316      E7800000 
 317              	.LVL21:
  60:src/syscall_c.cpp **** }
 318              		.loc 1 60 1
 319 0160 83308100 		ld	ra,8(sp)
 320              		.cfi_restore 1
 321 0164 03340100 		ld	s0,0(sp)
 322              		.cfi_restore 8
 323              		.cfi_def_cfa 2, 16
 324 0168 13010101 		addi	sp,sp,16
 325              		.cfi_def_cfa_offset 0
 326 016c 67800000 		jr	ra
 327              		.cfi_endproc
 328              	.LFE32:
 330              		.align	2
 331              		.globl	_Z11thread_exitv
 333              	_Z11thread_exitv:
 334              	.LFB33:
  61:src/syscall_c.cpp **** 
  62:src/syscall_c.cpp **** 
  63:src/syscall_c.cpp **** int thread_exit() {
 335              		.loc 1 63 19 is_stmt 1
 336              		.cfi_startproc
 337 0170 130101FF 		addi	sp,sp,-16
 338              		.cfi_def_cfa_offset 16
GAS LISTING /tmp/ccGTScPG.s 			page 8


 339 0174 23341100 		sd	ra,8(sp)
 340 0178 23308100 		sd	s0,0(sp)
 341              		.cfi_offset 1, -8
 342              		.cfi_offset 8, -16
 343 017c 13040101 		addi	s0,sp,16
 344              		.cfi_def_cfa 8, 0
  64:src/syscall_c.cpp ****     __asm__ volatile("mv a0, %0" : : "r" (TEXIT_CODE));
 345              		.loc 1 64 5
 346              		.loc 1 64 55 is_stmt 0
 347 0180 93072001 		li	a5,18
 348              	#APP
 349              	# 64 "src/syscall_c.cpp" 1
  65              	
  66:src/syscall_c.cpp ****     syscall();
 350              		mv a0, a5
 351              	# 0 "" 2
 352              		.loc 1 66 5 is_stmt 1
 353              		.loc 1 66 12 is_stmt 0
 354              	#NO_APP
 355 0188 97000000 		call	_Z7syscallv
 355      E7800000 
 356              	.LVL22:
  67:src/syscall_c.cpp **** 
  68:src/syscall_c.cpp ****     return 0; //ne znam kad moze da dodje do greske
 357              		.loc 1 68 5 is_stmt 1
  69:src/syscall_c.cpp **** }
 358              		.loc 1 69 1 is_stmt 0
 359 0190 13050000 		li	a0,0
 360 0194 83308100 		ld	ra,8(sp)
 361              		.cfi_restore 1
 362 0198 03340100 		ld	s0,0(sp)
 363              		.cfi_restore 8
 364              		.cfi_def_cfa 2, 16
 365 019c 13010101 		addi	sp,sp,16
 366              		.cfi_def_cfa_offset 0
 367 01a0 67800000 		jr	ra
 368              		.cfi_endproc
 369              	.LFE33:
 371              		.align	2
 372              		.globl	_Z8sem_openPP3Semj
 374              	_Z8sem_openPP3Semj:
 375              	.LFB34:
  70:src/syscall_c.cpp **** 
  71:src/syscall_c.cpp **** int sem_open(sem_t* handle, uint32 init) {
 376              		.loc 1 71 42 is_stmt 1
 377              		.cfi_startproc
 378              	.LVL23:
 379 01a4 130101FE 		addi	sp,sp,-32
 380              		.cfi_def_cfa_offset 32
 381 01a8 233C1100 		sd	ra,24(sp)
 382 01ac 23388100 		sd	s0,16(sp)
 383 01b0 23349100 		sd	s1,8(sp)
 384              		.cfi_offset 1, -8
 385              		.cfi_offset 8, -16
 386              		.cfi_offset 9, -24
 387 01b4 13040102 		addi	s0,sp,32
 388              		.cfi_def_cfa 8, 0
GAS LISTING /tmp/ccGTScPG.s 			page 9


 389 01b8 93040500 		mv	s1,a0
  72:src/syscall_c.cpp ****     __asm__ volatile("mv a2, %0" : : "r" (init));
 390              		.loc 1 72 5
 391              		.loc 1 72 49 is_stmt 0
 392              	#APP
 393              	# 72 "src/syscall_c.cpp" 1
  73              	    __asm__ volatile("mv a1, %0" : : "r" (handle));
 394              		mv a2, a1
 395              	# 0 "" 2
 396              		.loc 1 73 5 is_stmt 1
 397              		.loc 1 73 51 is_stmt 0
 398              	# 73 "src/syscall_c.cpp" 1
  74              	    __asm__ volatile("mv a0, %0" : : "r" (SOPEN_CODE));
 399              		mv a1, a0
 400              	# 0 "" 2
 401              		.loc 1 74 5 is_stmt 1
 402              		.loc 1 74 55 is_stmt 0
 403              	#NO_APP
 404 01c4 93071002 		li	a5,33
 405              	#APP
 406              	# 74 "src/syscall_c.cpp" 1
  75              	
  76:src/syscall_c.cpp ****     syscall();
 407              		mv a0, a5
 408              	# 0 "" 2
 409              		.loc 1 76 5 is_stmt 1
 410              		.loc 1 76 12 is_stmt 0
 411              	#NO_APP
 412 01cc 97000000 		call	_Z7syscallv
 412      E7800000 
 413              	.LVL24:
  77:src/syscall_c.cpp **** 
  78:src/syscall_c.cpp ****     int ret = *handle ? 0 : -1;
 414              		.loc 1 78 5 is_stmt 1
 415              		.loc 1 78 15 is_stmt 0
 416 01d4 83B70400 		ld	a5,0(s1)
 417              		.loc 1 78 23
 418 01d8 638E0700 		beqz	a5,.L21
 419 01dc 13050000 		li	a0,0
 420              	.L20:
 421              	.LVL25:
  79:src/syscall_c.cpp ****     return ret;
 422              		.loc 1 79 5 is_stmt 1 discriminator 4
  80:src/syscall_c.cpp **** }
 423              		.loc 1 80 1 is_stmt 0 discriminator 4
 424 01e0 83308101 		ld	ra,24(sp)
 425              		.cfi_remember_state
 426              		.cfi_restore 1
 427 01e4 03340101 		ld	s0,16(sp)
 428              		.cfi_restore 8
 429              		.cfi_def_cfa 2, 32
 430 01e8 83348100 		ld	s1,8(sp)
 431              		.cfi_restore 9
 432              	.LVL26:
 433 01ec 13010102 		addi	sp,sp,32
 434              		.cfi_def_cfa_offset 0
 435 01f0 67800000 		jr	ra
GAS LISTING /tmp/ccGTScPG.s 			page 10


 436              	.LVL27:
 437              	.L21:
 438              		.cfi_restore_state
  78:src/syscall_c.cpp ****     return ret;
 439              		.loc 1 78 23
 440 01f4 1305F0FF 		li	a0,-1
 441 01f8 6FF09FFE 		j	.L20
 442              		.cfi_endproc
 443              	.LFE34:
 445              		.align	2
 446              		.globl	_Z9sem_closeP3Sem
 448              	_Z9sem_closeP3Sem:
 449              	.LFB35:
  81:src/syscall_c.cpp **** 
  82:src/syscall_c.cpp **** int sem_close(sem_t handle) {
 450              		.loc 1 82 29 is_stmt 1
 451              		.cfi_startproc
 452              	.LVL28:
 453 01fc 130101FF 		addi	sp,sp,-16
 454              		.cfi_def_cfa_offset 16
 455 0200 23341100 		sd	ra,8(sp)
 456 0204 23308100 		sd	s0,0(sp)
 457              		.cfi_offset 1, -8
 458              		.cfi_offset 8, -16
 459 0208 13040101 		addi	s0,sp,16
 460              		.cfi_def_cfa 8, 0
  83:src/syscall_c.cpp ****     __asm__ volatile("mv a1, %0" : : "r" (handle));
 461              		.loc 1 83 5
 462              		.loc 1 83 51 is_stmt 0
 463              	#APP
 464              	# 83 "src/syscall_c.cpp" 1
  84              	    __asm__ volatile("mv a0, %0" : : "r" (SCLOSE_CODE));
 465              		mv a1, a0
 466              	# 0 "" 2
 467              		.loc 1 84 5 is_stmt 1
 468              		.loc 1 84 56 is_stmt 0
 469              	#NO_APP
 470 0210 93072002 		li	a5,34
 471              	#APP
 472              	# 84 "src/syscall_c.cpp" 1
  85              	
  86:src/syscall_c.cpp ****     syscall();
 473              		mv a0, a5
 474              	# 0 "" 2
 475              		.loc 1 86 5 is_stmt 1
 476              		.loc 1 86 12 is_stmt 0
 477              	#NO_APP
 478 0218 97000000 		call	_Z7syscallv
 478      E7800000 
 479              	.LVL29:
  87:src/syscall_c.cpp **** 
  88:src/syscall_c.cpp ****     return 0;
 480              		.loc 1 88 5 is_stmt 1
  89:src/syscall_c.cpp **** }
 481              		.loc 1 89 1 is_stmt 0
 482 0220 13050000 		li	a0,0
 483 0224 83308100 		ld	ra,8(sp)
GAS LISTING /tmp/ccGTScPG.s 			page 11


 484              		.cfi_restore 1
 485 0228 03340100 		ld	s0,0(sp)
 486              		.cfi_restore 8
 487              		.cfi_def_cfa 2, 16
 488 022c 13010101 		addi	sp,sp,16
 489              		.cfi_def_cfa_offset 0
 490 0230 67800000 		jr	ra
 491              		.cfi_endproc
 492              	.LFE35:
 494              		.align	2
 495              		.globl	_Z8sem_waitP3Sem
 497              	_Z8sem_waitP3Sem:
 498              	.LFB36:
  90:src/syscall_c.cpp **** 
  91:src/syscall_c.cpp **** int sem_wait(sem_t id) {
 499              		.loc 1 91 24 is_stmt 1
 500              		.cfi_startproc
 501              	.LVL30:
 502 0234 130101FF 		addi	sp,sp,-16
 503              		.cfi_def_cfa_offset 16
 504 0238 23341100 		sd	ra,8(sp)
 505 023c 23308100 		sd	s0,0(sp)
 506              		.cfi_offset 1, -8
 507              		.cfi_offset 8, -16
 508 0240 13040101 		addi	s0,sp,16
 509              		.cfi_def_cfa 8, 0
  92:src/syscall_c.cpp ****     __asm__ volatile("mv a1, %0" : : "r" (id));
 510              		.loc 1 92 5
 511              		.loc 1 92 47 is_stmt 0
 512              	#APP
 513              	# 92 "src/syscall_c.cpp" 1
  93              	    __asm__ volatile("mv a0, %0" : : "r" (SWAIT_CODE));
 514              		mv a1, a0
 515              	# 0 "" 2
 516              		.loc 1 93 5 is_stmt 1
 517              		.loc 1 93 55 is_stmt 0
 518              	#NO_APP
 519 0248 93073002 		li	a5,35
 520              	#APP
 521              	# 93 "src/syscall_c.cpp" 1
  94              	
  95:src/syscall_c.cpp ****     syscall();
 522              		mv a0, a5
 523              	# 0 "" 2
 524              		.loc 1 95 5 is_stmt 1
 525              		.loc 1 95 12 is_stmt 0
 526              	#NO_APP
 527 0250 97000000 		call	_Z7syscallv
 527      E7800000 
 528              	.LVL31:
  96:src/syscall_c.cpp **** 
  97:src/syscall_c.cpp ****     int ret;
 529              		.loc 1 97 5 is_stmt 1
  98:src/syscall_c.cpp ****     __asm__ volatile("mv %0, a0" : "=r" (ret));
 530              		.loc 1 98 5
 531              		.loc 1 98 47 is_stmt 0
 532              	#APP
GAS LISTING /tmp/ccGTScPG.s 			page 12


 533              	# 98 "src/syscall_c.cpp" 1
  99              	    return ret;
 534              		mv a0, a0
 535              	# 0 "" 2
 536              	.LVL32:
 537              		.loc 1 99 5 is_stmt 1
 100:src/syscall_c.cpp **** }
 538              		.loc 1 100 1 is_stmt 0
 539              	#NO_APP
 540 025c 1B050500 		sext.w	a0,a0
 541 0260 83308100 		ld	ra,8(sp)
 542              		.cfi_restore 1
 543 0264 03340100 		ld	s0,0(sp)
 544              		.cfi_restore 8
 545              		.cfi_def_cfa 2, 16
 546 0268 13010101 		addi	sp,sp,16
 547              		.cfi_def_cfa_offset 0
 548 026c 67800000 		jr	ra
 549              		.cfi_endproc
 550              	.LFE36:
 552              		.align	2
 553              		.globl	_Z10sem_signalP3Sem
 555              	_Z10sem_signalP3Sem:
 556              	.LFB37:
 101:src/syscall_c.cpp **** 
 102:src/syscall_c.cpp **** int sem_signal(sem_t id) {
 557              		.loc 1 102 26 is_stmt 1
 558              		.cfi_startproc
 559              	.LVL33:
 560 0270 130101FF 		addi	sp,sp,-16
 561              		.cfi_def_cfa_offset 16
 562 0274 23341100 		sd	ra,8(sp)
 563 0278 23308100 		sd	s0,0(sp)
 564              		.cfi_offset 1, -8
 565              		.cfi_offset 8, -16
 566 027c 13040101 		addi	s0,sp,16
 567              		.cfi_def_cfa 8, 0
 103:src/syscall_c.cpp ****     __asm__ volatile("mv a1, %0" : : "r" (id));
 568              		.loc 1 103 5
 569              		.loc 1 103 47 is_stmt 0
 570              	#APP
 571              	# 103 "src/syscall_c.cpp" 1
 104              	    __asm__ volatile("mv a0, %0" : : "r" (SSIGNAL_CODE));
 572              		mv a1, a0
 573              	# 0 "" 2
 574              		.loc 1 104 5 is_stmt 1
 575              		.loc 1 104 57 is_stmt 0
 576              	#NO_APP
 577 0284 93074002 		li	a5,36
 578              	#APP
 579              	# 104 "src/syscall_c.cpp" 1
 105              	
 106:src/syscall_c.cpp ****     syscall();
 580              		mv a0, a5
 581              	# 0 "" 2
 582              		.loc 1 106 5 is_stmt 1
 583              		.loc 1 106 12 is_stmt 0
GAS LISTING /tmp/ccGTScPG.s 			page 13


 584              	#NO_APP
 585 028c 97000000 		call	_Z7syscallv
 585      E7800000 
 586              	.LVL34:
 107:src/syscall_c.cpp **** 
 108:src/syscall_c.cpp ****     int ret;
 587              		.loc 1 108 5 is_stmt 1
 109:src/syscall_c.cpp ****     __asm__ volatile("mv %0, a0" : "=r" (ret));
 588              		.loc 1 109 5
 589              		.loc 1 109 47 is_stmt 0
 590              	#APP
 591              	# 109 "src/syscall_c.cpp" 1
 110              	    return ret;
 592              		mv a0, a0
 593              	# 0 "" 2
 594              	.LVL35:
 595              		.loc 1 110 5 is_stmt 1
 111:src/syscall_c.cpp **** }
 596              		.loc 1 111 1 is_stmt 0
 597              	#NO_APP
 598 0298 1B050500 		sext.w	a0,a0
 599 029c 83308100 		ld	ra,8(sp)
 600              		.cfi_restore 1
 601 02a0 03340100 		ld	s0,0(sp)
 602              		.cfi_restore 8
 603              		.cfi_def_cfa 2, 16
 604 02a4 13010101 		addi	sp,sp,16
 605              		.cfi_def_cfa_offset 0
 606 02a8 67800000 		jr	ra
 607              		.cfi_endproc
 608              	.LFE37:
 610              		.align	2
 611              		.globl	_Z4getcv
 613              	_Z4getcv:
 614              	.LFB38:
 112:src/syscall_c.cpp **** 
 113:src/syscall_c.cpp **** char getc() {
 615              		.loc 1 113 13 is_stmt 1
 616              		.cfi_startproc
 617 02ac 130101FF 		addi	sp,sp,-16
 618              		.cfi_def_cfa_offset 16
 619 02b0 23341100 		sd	ra,8(sp)
 620 02b4 23308100 		sd	s0,0(sp)
 621              		.cfi_offset 1, -8
 622              		.cfi_offset 8, -16
 623 02b8 13040101 		addi	s0,sp,16
 624              		.cfi_def_cfa 8, 0
 114:src/syscall_c.cpp ****     __asm__ volatile("mv a0, %0" : : "r" (CGETC_CODE));
 625              		.loc 1 114 5
 626              		.loc 1 114 55 is_stmt 0
 627 02bc 93071004 		li	a5,65
 628              	#APP
 629              	# 114 "src/syscall_c.cpp" 1
 115              	
 116:src/syscall_c.cpp ****     syscall();
 630              		mv a0, a5
 631              	# 0 "" 2
GAS LISTING /tmp/ccGTScPG.s 			page 14


 632              		.loc 1 116 5 is_stmt 1
 633              		.loc 1 116 12 is_stmt 0
 634              	#NO_APP
 635 02c4 97000000 		call	_Z7syscallv
 635      E7800000 
 636              	.LVL36:
 117:src/syscall_c.cpp **** 
 118:src/syscall_c.cpp ****     char c;
 637              		.loc 1 118 5 is_stmt 1
 119:src/syscall_c.cpp ****     __asm__ volatile("mv %0, a0" : "=r" (c));
 638              		.loc 1 119 5
 639              		.loc 1 119 45 is_stmt 0
 640              	#APP
 641              	# 119 "src/syscall_c.cpp" 1
 120              	    return c;
 642              		mv a0, a0
 643              	# 0 "" 2
 644              	.LVL37:
 645              		.loc 1 120 5 is_stmt 1
 121:src/syscall_c.cpp **** }
 646              		.loc 1 121 1 is_stmt 0
 647              	#NO_APP
 648 02d0 1375F50F 		andi	a0,a0,0xff
 649 02d4 83308100 		ld	ra,8(sp)
 650              		.cfi_restore 1
 651 02d8 03340100 		ld	s0,0(sp)
 652              		.cfi_restore 8
 653              		.cfi_def_cfa 2, 16
 654 02dc 13010101 		addi	sp,sp,16
 655              		.cfi_def_cfa_offset 0
 656 02e0 67800000 		jr	ra
 657              		.cfi_endproc
 658              	.LFE38:
 660              		.align	2
 661              		.globl	_Z4putcc
 663              	_Z4putcc:
 664              	.LFB39:
 122:src/syscall_c.cpp **** 
 123:src/syscall_c.cpp **** void putc(char c) {
 665              		.loc 1 123 19 is_stmt 1
 666              		.cfi_startproc
 667              	.LVL38:
 668 02e4 130101FF 		addi	sp,sp,-16
 669              		.cfi_def_cfa_offset 16
 670 02e8 23341100 		sd	ra,8(sp)
 671 02ec 23308100 		sd	s0,0(sp)
 672              		.cfi_offset 1, -8
 673              		.cfi_offset 8, -16
 674 02f0 13040101 		addi	s0,sp,16
 675              		.cfi_def_cfa 8, 0
 124:src/syscall_c.cpp ****     __asm__ volatile("mv a1, %0" : : "r" (c));
 676              		.loc 1 124 5
 677              		.loc 1 124 46 is_stmt 0
 678              	#APP
 679              	# 124 "src/syscall_c.cpp" 1
 125              	    __asm__ volatile("mv a0, %0" : : "r" (CPUTC_CODE));
 680              		mv a1, a0
GAS LISTING /tmp/ccGTScPG.s 			page 15


 681              	# 0 "" 2
 682              		.loc 1 125 5 is_stmt 1
 683              		.loc 1 125 55 is_stmt 0
 684              	#NO_APP
 685 02f8 93072004 		li	a5,66
 686              	#APP
 687              	# 125 "src/syscall_c.cpp" 1
 126              	
 127:src/syscall_c.cpp ****     syscall();
 688              		mv a0, a5
 689              	# 0 "" 2
 690              		.loc 1 127 5 is_stmt 1
 691              		.loc 1 127 12 is_stmt 0
 692              	#NO_APP
 693 0300 97000000 		call	_Z7syscallv
 693      E7800000 
 694              	.LVL39:
 128:src/syscall_c.cpp **** }
 695              		.loc 1 128 1
 696 0308 83308100 		ld	ra,8(sp)
 697              		.cfi_restore 1
 698 030c 03340100 		ld	s0,0(sp)
 699              		.cfi_restore 8
 700              		.cfi_def_cfa 2, 16
 701 0310 13010101 		addi	sp,sp,16
 702              		.cfi_def_cfa_offset 0
 703 0314 67800000 		jr	ra
 704              		.cfi_endproc
 705              	.LFE39:
 707              		.align	2
 708              		.globl	_Z12thread_allocPP3PCBPFvPvES2_
 710              	_Z12thread_allocPP3PCBPFvPvES2_:
 711              	.LFB40:
 129:src/syscall_c.cpp **** 
 130:src/syscall_c.cpp **** void thread_alloc(thread_t* handle, void(*start_routine)(void*), void* arg) {
 712              		.loc 1 130 77 is_stmt 1
 713              		.cfi_startproc
 714              	.LVL40:
 715 0318 130101FD 		addi	sp,sp,-48
 716              		.cfi_def_cfa_offset 48
 717 031c 23341102 		sd	ra,40(sp)
 718 0320 23308102 		sd	s0,32(sp)
 719 0324 233C9100 		sd	s1,24(sp)
 720 0328 23382101 		sd	s2,16(sp)
 721 032c 23343101 		sd	s3,8(sp)
 722              		.cfi_offset 1, -8
 723              		.cfi_offset 8, -16
 724              		.cfi_offset 9, -24
 725              		.cfi_offset 18, -32
 726              		.cfi_offset 19, -40
 727 0330 13040103 		addi	s0,sp,48
 728              		.cfi_def_cfa 8, 0
 729 0334 13090500 		mv	s2,a0
 730 0338 93840500 		mv	s1,a1
 731 033c 93090600 		mv	s3,a2
 131:src/syscall_c.cpp ****     thread_t *tempHandle = handle; void(*tempRoutine)(void*) = start_routine; void* tempArg = arg;
 732              		.loc 1 131 5
GAS LISTING /tmp/ccGTScPG.s 			page 16


 733              	.LVL41:
 734              		.loc 1 131 36
 735              		.loc 1 131 79
 132:src/syscall_c.cpp **** 
 133:src/syscall_c.cpp ****     uint64* stack_space;
 736              		.loc 1 133 5
 134:src/syscall_c.cpp ****     if (start_routine != nullptr) {
 737              		.loc 1 134 5
 738 0340 638A0504 		beqz	a1,.L35
 135:src/syscall_c.cpp ****         stack_space = new uint64[DEFAULT_STACK_SIZE];
 739              		.loc 1 135 9
 740              		.loc 1 135 52 is_stmt 0
 741 0344 37850000 		li	a0,32768
 742              	.LVL42:
 743 0348 97000000 		call	_Znam@plt
 743      E7800000 
 744              	.LVL43:
 136:src/syscall_c.cpp ****         stack_space = &stack_space[DEFAULT_STACK_SIZE];
 745              		.loc 1 136 9 is_stmt 1
 746              		.loc 1 136 21 is_stmt 0
 747 0350 B7870000 		li	a5,32768
 748 0354 3305F500 		add	a0,a0,a5
 749              	.LVL44:
 750              	.L34:
 137:src/syscall_c.cpp ****     } else stack_space = nullptr;
 138:src/syscall_c.cpp **** 
 139:src/syscall_c.cpp ****     __asm__ volatile("mv a7, %0" : : "r" (stack_space));
 751              		.loc 1 139 5 is_stmt 1
 752              		.loc 1 139 56 is_stmt 0
 753              	#APP
 754              	# 139 "src/syscall_c.cpp" 1
 140              	    __asm__ volatile("mv a3, %0" : : "r" (tempArg));
 755              		mv a7, a0
 756              	# 0 "" 2
 757              		.loc 1 140 5 is_stmt 1
 758              		.loc 1 140 52 is_stmt 0
 759              	# 140 "src/syscall_c.cpp" 1
 141              	    __asm__ volatile("mv a2, %0" : : "r" (tempRoutine));
 760              		mv a3, s3
 761              	# 0 "" 2
 762              		.loc 1 141 5 is_stmt 1
 763              		.loc 1 141 56 is_stmt 0
 764              	# 141 "src/syscall_c.cpp" 1
 142              	    __asm__ volatile("mv a1, %0" : : "r" (tempHandle));
 765              		mv a2, s1
 766              	# 0 "" 2
 767              		.loc 1 142 5 is_stmt 1
 768              		.loc 1 142 55 is_stmt 0
 769              	# 142 "src/syscall_c.cpp" 1
 143              	    __asm__ volatile("mv a0, %0" : : "r" (TALLOC_CODE));
 770              		mv a1, s2
 771              	# 0 "" 2
 772              		.loc 1 143 5 is_stmt 1
 773              		.loc 1 143 56 is_stmt 0
 774              	#NO_APP
 775 0368 93074001 		li	a5,20
 776              	#APP
GAS LISTING /tmp/ccGTScPG.s 			page 17


 777              	# 143 "src/syscall_c.cpp" 1
 144              	
 145:src/syscall_c.cpp ****     syscall();
 778              		mv a0, a5
 779              	# 0 "" 2
 780              		.loc 1 145 5 is_stmt 1
 781              		.loc 1 145 12 is_stmt 0
 782              	#NO_APP
 783 0370 97000000 		call	_Z7syscallv
 783      E7800000 
 784              	.LVL45:
 146:src/syscall_c.cpp **** }
 785              		.loc 1 146 1
 786 0378 83308102 		ld	ra,40(sp)
 787              		.cfi_remember_state
 788              		.cfi_restore 1
 789 037c 03340102 		ld	s0,32(sp)
 790              		.cfi_restore 8
 791              		.cfi_def_cfa 2, 48
 792 0380 83348101 		ld	s1,24(sp)
 793              		.cfi_restore 9
 794              	.LVL46:
 795 0384 03390101 		ld	s2,16(sp)
 796              		.cfi_restore 18
 797              	.LVL47:
 798 0388 83398100 		ld	s3,8(sp)
 799              		.cfi_restore 19
 800              	.LVL48:
 801 038c 13010103 		addi	sp,sp,48
 802              		.cfi_def_cfa_offset 0
 803 0390 67800000 		jr	ra
 804              	.LVL49:
 805              	.L35:
 806              		.cfi_restore_state
 137:src/syscall_c.cpp ****     } else stack_space = nullptr;
 807              		.loc 1 137 24
 808 0394 13050000 		li	a0,0
 809              	.LVL50:
 810 0398 6FF01FFC 		j	.L34
 811              		.cfi_endproc
 812              	.LFE40:
 814              		.align	2
 815              		.globl	_Z16thread_schedulerP3PCB
 817              	_Z16thread_schedulerP3PCB:
 818              	.LFB41:
 147:src/syscall_c.cpp **** 
 148:src/syscall_c.cpp **** void thread_scheduler(thread_t handle) {
 819              		.loc 1 148 40 is_stmt 1
 820              		.cfi_startproc
 821              	.LVL51:
 822 039c 130101FF 		addi	sp,sp,-16
 823              		.cfi_def_cfa_offset 16
 824 03a0 23341100 		sd	ra,8(sp)
 825 03a4 23308100 		sd	s0,0(sp)
 826              		.cfi_offset 1, -8
 827              		.cfi_offset 8, -16
 828 03a8 13040101 		addi	s0,sp,16
GAS LISTING /tmp/ccGTScPG.s 			page 18


 829              		.cfi_def_cfa 8, 0
 149:src/syscall_c.cpp ****     __asm__ volatile("mv a1, %0" : : "r" (handle));
 830              		.loc 1 149 5
 831              		.loc 1 149 51 is_stmt 0
 832              	#APP
 833              	# 149 "src/syscall_c.cpp" 1
 150              	    __asm__ volatile("mv a0, %0" : : "r" (TSCHEDULER_CODE));
 834              		mv a1, a0
 835              	# 0 "" 2
 836              		.loc 1 150 5 is_stmt 1
 837              		.loc 1 150 60 is_stmt 0
 838              	#NO_APP
 839 03b0 93075001 		li	a5,21
 840              	#APP
 841              	# 150 "src/syscall_c.cpp" 1
 151              	
 152:src/syscall_c.cpp ****     syscall();
 842              		mv a0, a5
 843              	# 0 "" 2
 844              		.loc 1 152 5 is_stmt 1
 845              		.loc 1 152 12 is_stmt 0
 846              	#NO_APP
 847 03b8 97000000 		call	_Z7syscallv
 847      E7800000 
 848              	.LVL52:
 153:src/syscall_c.cpp **** }...
 849              		.loc 1 153 1
 850 03c0 83308100 		ld	ra,8(sp)
 851              		.cfi_restore 1
 852 03c4 03340100 		ld	s0,0(sp)
 853              		.cfi_restore 8
 854              		.cfi_def_cfa 2, 16
 855 03c8 13010101 		addi	sp,sp,16
 856              		.cfi_def_cfa_offset 0
 857 03cc 67800000 		jr	ra
 858              		.cfi_endproc
 859              	.LFE41:
 861              	.Letext0:
 862              		.file 2 "src/../h/../lib/hw.h"
 863              		.file 3 "src/../h/syscall_c.h"
 864              		.file 4 "src/../h/pcb.h"
GAS LISTING /tmp/ccGTScPG.s 			page 19


DEFINED SYMBOLS
                            *ABS*:0000000000000000 syscall_c.cpp
     /tmp/ccGTScPG.s:9      .text:0000000000000000 _Z7syscallv
     /tmp/ccGTScPG.s:13     .text:0000000000000000 .L0 
     /tmp/ccGTScPG.s:14     .text:0000000000000000 .L0 
     /tmp/ccGTScPG.s:15     .text:0000000000000004 .L0 
     /tmp/ccGTScPG.s:17     .text:0000000000000008 .L0 
     /tmp/ccGTScPG.s:19     .text:000000000000000c .L0 
     /tmp/ccGTScPG.s:21     .text:000000000000000c .L0 
   src/syscall_c.cpp:8      .text:000000000000000c .L0 
     /tmp/ccGTScPG.s:28     .text:0000000000000010 .L0 
     /tmp/ccGTScPG.s:29     .text:0000000000000014 .L0 
     /tmp/ccGTScPG.s:30     .text:0000000000000014 .L0 
     /tmp/ccGTScPG.s:32     .text:0000000000000018 .L0 
     /tmp/ccGTScPG.s:34     .text:000000000000001c .L0 
     /tmp/ccGTScPG.s:40     .text:000000000000001c _Z9mem_allocm
     /tmp/ccGTScPG.s:43     .text:000000000000001c .L0 
     /tmp/ccGTScPG.s:45     .text:000000000000001c .L0 
     /tmp/ccGTScPG.s:46     .text:0000000000000020 .L0 
     /tmp/ccGTScPG.s:49     .text:0000000000000028 .L0 
     /tmp/ccGTScPG.s:50     .text:0000000000000028 .L0 
     /tmp/ccGTScPG.s:52     .text:000000000000002c .L0 
     /tmp/ccGTScPG.s:54     .text:000000000000002c .L0 
     /tmp/ccGTScPG.s:55     .text:000000000000002c .L0 
     /tmp/ccGTScPG.s:57     .text:0000000000000030 .L0 
     /tmp/ccGTScPG.s:59     .text:0000000000000034 .L0 
     /tmp/ccGTScPG.s:63     .text:0000000000000038 .L0 
   src/syscall_c.cpp:14     .text:0000000000000038 .L0 
     /tmp/ccGTScPG.s:69     .text:000000000000003c .L0 
     /tmp/ccGTScPG.s:71     .text:000000000000003c .L0 
     /tmp/ccGTScPG.s:77     .text:0000000000000044 .L0 
     /tmp/ccGTScPG.s:79     .text:0000000000000044 .L0 
     /tmp/ccGTScPG.s:82     .text:000000000000004c .L0 
     /tmp/ccGTScPG.s:83     .text:000000000000004c .L0 
   src/syscall_c.cpp:20     .text:000000000000004c .L0 
     /tmp/ccGTScPG.s:90     .text:0000000000000050 .L0 
     /tmp/ccGTScPG.s:92     .text:0000000000000050 .L0 
     /tmp/ccGTScPG.s:93     .text:0000000000000054 .L0 
     /tmp/ccGTScPG.s:94     .text:0000000000000054 .L0 
     /tmp/ccGTScPG.s:96     .text:0000000000000058 .L0 
     /tmp/ccGTScPG.s:97     .text:0000000000000058 .L0 
     /tmp/ccGTScPG.s:99     .text:000000000000005c .L0 
     /tmp/ccGTScPG.s:103    .text:0000000000000060 .L0 
     /tmp/ccGTScPG.s:105    .text:0000000000000060 .L0 
     /tmp/ccGTScPG.s:108    .text:0000000000000064 .L0 
     /tmp/ccGTScPG.s:110    .text:000000000000006c .L0 
     /tmp/ccGTScPG.s:116    .text:000000000000006c _Z8mem_freePv
     /tmp/ccGTScPG.s:119    .text:000000000000006c .L0 
     /tmp/ccGTScPG.s:121    .text:000000000000006c .L0 
     /tmp/ccGTScPG.s:122    .text:0000000000000070 .L0 
     /tmp/ccGTScPG.s:125    .text:0000000000000078 .L0 
     /tmp/ccGTScPG.s:126    .text:0000000000000078 .L0 
     /tmp/ccGTScPG.s:128    .text:000000000000007c .L0 
     /tmp/ccGTScPG.s:130    .text:000000000000007c .L0 
   src/syscall_c.cpp:25     .text:000000000000007c .L0 
     /tmp/ccGTScPG.s:136    .text:0000000000000080 .L0 
     /tmp/ccGTScPG.s:138    .text:0000000000000080 .L0 
GAS LISTING /tmp/ccGTScPG.s 			page 20


     /tmp/ccGTScPG.s:144    .text:0000000000000088 .L0 
     /tmp/ccGTScPG.s:146    .text:0000000000000088 .L0 
     /tmp/ccGTScPG.s:149    .text:0000000000000090 .L0 
     /tmp/ccGTScPG.s:150    .text:0000000000000090 .L0 
   src/syscall_c.cpp:31     .text:0000000000000090 .L0 
     /tmp/ccGTScPG.s:157    .text:0000000000000094 .L0 
     /tmp/ccGTScPG.s:159    .text:0000000000000094 .L0 
     /tmp/ccGTScPG.s:161    .text:000000000000009c .L0 
     /tmp/ccGTScPG.s:163    .text:00000000000000a0 .L0 
     /tmp/ccGTScPG.s:164    .text:00000000000000a0 .L0 
     /tmp/ccGTScPG.s:166    .text:00000000000000a4 .L0 
     /tmp/ccGTScPG.s:168    .text:00000000000000a8 .L0 
     /tmp/ccGTScPG.s:174    .text:00000000000000a8 _Z13thread_createPP3PCBPFvPvES2_
     /tmp/ccGTScPG.s:177    .text:00000000000000a8 .L0 
     /tmp/ccGTScPG.s:179    .text:00000000000000a8 .L0 
     /tmp/ccGTScPG.s:180    .text:00000000000000ac .L0 
     /tmp/ccGTScPG.s:186    .text:00000000000000c0 .L0 
     /tmp/ccGTScPG.s:187    .text:00000000000000c0 .L0 
     /tmp/ccGTScPG.s:188    .text:00000000000000c0 .L0 
     /tmp/ccGTScPG.s:189    .text:00000000000000c0 .L0 
     /tmp/ccGTScPG.s:190    .text:00000000000000c0 .L0 
     /tmp/ccGTScPG.s:192    .text:00000000000000c4 .L0 
     /tmp/ccGTScPG.s:198    .text:00000000000000d0 .L0 
     /tmp/ccGTScPG.s:199    .text:00000000000000d0 .L0 
     /tmp/ccGTScPG.s:200    .text:00000000000000d0 .L0 
     /tmp/ccGTScPG.s:201    .text:00000000000000d0 .L0 
     /tmp/ccGTScPG.s:202    .text:00000000000000d0 .L0 
     /tmp/ccGTScPG.s:204    .text:00000000000000d4 .L0 
     /tmp/ccGTScPG.s:205    .text:00000000000000d4 .L0 
     /tmp/ccGTScPG.s:210    .text:00000000000000e0 .L0 
     /tmp/ccGTScPG.s:211    .text:00000000000000e0 .L0 
     /tmp/ccGTScPG.s:216    .text:00000000000000e8 .L0 
   src/syscall_c.cpp:44     .text:00000000000000e8 .L0 
     /tmp/ccGTScPG.s:222    .text:00000000000000ec .L0 
   src/syscall_c.cpp:45     .text:00000000000000ec .L0 
     /tmp/ccGTScPG.s:227    .text:00000000000000f0 .L0 
   src/syscall_c.cpp:46     .text:00000000000000f0 .L0 
     /tmp/ccGTScPG.s:232    .text:00000000000000f4 .L0 
   src/syscall_c.cpp:47     .text:00000000000000f4 .L0 
     /tmp/ccGTScPG.s:237    .text:00000000000000f8 .L0 
     /tmp/ccGTScPG.s:239    .text:00000000000000f8 .L0 
     /tmp/ccGTScPG.s:245    .text:0000000000000100 .L0 
     /tmp/ccGTScPG.s:247    .text:0000000000000100 .L0 
     /tmp/ccGTScPG.s:250    .text:0000000000000108 .L0 
     /tmp/ccGTScPG.s:251    .text:0000000000000108 .L0 
     /tmp/ccGTScPG.s:253    .text:000000000000010c .L0 
     /tmp/ccGTScPG.s:258    .text:0000000000000114 .L0 
     /tmp/ccGTScPG.s:259    .text:0000000000000114 .L0 
     /tmp/ccGTScPG.s:260    .text:0000000000000118 .L0 
     /tmp/ccGTScPG.s:261    .text:0000000000000118 .L0 
     /tmp/ccGTScPG.s:263    .text:000000000000011c .L0 
     /tmp/ccGTScPG.s:264    .text:000000000000011c .L0 
     /tmp/ccGTScPG.s:266    .text:0000000000000120 .L0 
     /tmp/ccGTScPG.s:269    .text:0000000000000124 .L0 
     /tmp/ccGTScPG.s:272    .text:0000000000000128 .L0 
     /tmp/ccGTScPG.s:275    .text:000000000000012c .L0 
     /tmp/ccGTScPG.s:279    .text:0000000000000130 .L0 
GAS LISTING /tmp/ccGTScPG.s 			page 21


     /tmp/ccGTScPG.s:281    .text:0000000000000130 .L0 
     /tmp/ccGTScPG.s:286    .text:0000000000000138 .L0 
     /tmp/ccGTScPG.s:288    .text:0000000000000140 .L0 
     /tmp/ccGTScPG.s:294    .text:0000000000000140 _Z15thread_dispatchv
     /tmp/ccGTScPG.s:297    .text:0000000000000140 .L0 
     /tmp/ccGTScPG.s:298    .text:0000000000000140 .L0 
     /tmp/ccGTScPG.s:299    .text:0000000000000144 .L0 
     /tmp/ccGTScPG.s:302    .text:000000000000014c .L0 
     /tmp/ccGTScPG.s:303    .text:000000000000014c .L0 
     /tmp/ccGTScPG.s:305    .text:0000000000000150 .L0 
     /tmp/ccGTScPG.s:307    .text:0000000000000150 .L0 
     /tmp/ccGTScPG.s:308    .text:0000000000000150 .L0 
     /tmp/ccGTScPG.s:314    .text:0000000000000158 .L0 
     /tmp/ccGTScPG.s:316    .text:0000000000000158 .L0 
     /tmp/ccGTScPG.s:319    .text:0000000000000160 .L0 
     /tmp/ccGTScPG.s:320    .text:0000000000000164 .L0 
     /tmp/ccGTScPG.s:322    .text:0000000000000168 .L0 
     /tmp/ccGTScPG.s:323    .text:0000000000000168 .L0 
     /tmp/ccGTScPG.s:325    .text:000000000000016c .L0 
     /tmp/ccGTScPG.s:327    .text:0000000000000170 .L0 
     /tmp/ccGTScPG.s:333    .text:0000000000000170 _Z11thread_exitv
     /tmp/ccGTScPG.s:336    .text:0000000000000170 .L0 
     /tmp/ccGTScPG.s:337    .text:0000000000000170 .L0 
     /tmp/ccGTScPG.s:338    .text:0000000000000174 .L0 
     /tmp/ccGTScPG.s:341    .text:000000000000017c .L0 
     /tmp/ccGTScPG.s:342    .text:000000000000017c .L0 
     /tmp/ccGTScPG.s:344    .text:0000000000000180 .L0 
     /tmp/ccGTScPG.s:346    .text:0000000000000180 .L0 
     /tmp/ccGTScPG.s:347    .text:0000000000000180 .L0 
     /tmp/ccGTScPG.s:353    .text:0000000000000188 .L0 
     /tmp/ccGTScPG.s:355    .text:0000000000000188 .L0 
     /tmp/ccGTScPG.s:358    .text:0000000000000190 .L0 
     /tmp/ccGTScPG.s:359    .text:0000000000000190 .L0 
     /tmp/ccGTScPG.s:361    .text:0000000000000198 .L0 
     /tmp/ccGTScPG.s:363    .text:000000000000019c .L0 
     /tmp/ccGTScPG.s:364    .text:000000000000019c .L0 
     /tmp/ccGTScPG.s:366    .text:00000000000001a0 .L0 
     /tmp/ccGTScPG.s:368    .text:00000000000001a4 .L0 
     /tmp/ccGTScPG.s:374    .text:00000000000001a4 _Z8sem_openPP3Semj
     /tmp/ccGTScPG.s:377    .text:00000000000001a4 .L0 
     /tmp/ccGTScPG.s:379    .text:00000000000001a4 .L0 
     /tmp/ccGTScPG.s:380    .text:00000000000001a8 .L0 
     /tmp/ccGTScPG.s:384    .text:00000000000001b4 .L0 
     /tmp/ccGTScPG.s:385    .text:00000000000001b4 .L0 
     /tmp/ccGTScPG.s:386    .text:00000000000001b4 .L0 
     /tmp/ccGTScPG.s:388    .text:00000000000001b8 .L0 
     /tmp/ccGTScPG.s:391    .text:00000000000001bc .L0 
   src/syscall_c.cpp:72     .text:00000000000001bc .L0 
     /tmp/ccGTScPG.s:397    .text:00000000000001c0 .L0 
   src/syscall_c.cpp:73     .text:00000000000001c0 .L0 
     /tmp/ccGTScPG.s:402    .text:00000000000001c4 .L0 
     /tmp/ccGTScPG.s:404    .text:00000000000001c4 .L0 
     /tmp/ccGTScPG.s:410    .text:00000000000001cc .L0 
     /tmp/ccGTScPG.s:412    .text:00000000000001cc .L0 
     /tmp/ccGTScPG.s:415    .text:00000000000001d4 .L0 
     /tmp/ccGTScPG.s:416    .text:00000000000001d4 .L0 
     /tmp/ccGTScPG.s:418    .text:00000000000001d8 .L0 
GAS LISTING /tmp/ccGTScPG.s 			page 22


     /tmp/ccGTScPG.s:423    .text:00000000000001e0 .L0 
     /tmp/ccGTScPG.s:424    .text:00000000000001e0 .L0 
     /tmp/ccGTScPG.s:425    .text:00000000000001e4 .L0 
     /tmp/ccGTScPG.s:426    .text:00000000000001e4 .L0 
     /tmp/ccGTScPG.s:428    .text:00000000000001e8 .L0 
     /tmp/ccGTScPG.s:429    .text:00000000000001e8 .L0 
     /tmp/ccGTScPG.s:431    .text:00000000000001ec .L0 
     /tmp/ccGTScPG.s:434    .text:00000000000001f0 .L0 
     /tmp/ccGTScPG.s:438    .text:00000000000001f4 .L0 
     /tmp/ccGTScPG.s:440    .text:00000000000001f4 .L0 
     /tmp/ccGTScPG.s:442    .text:00000000000001fc .L0 
     /tmp/ccGTScPG.s:448    .text:00000000000001fc _Z9sem_closeP3Sem
     /tmp/ccGTScPG.s:451    .text:00000000000001fc .L0 
     /tmp/ccGTScPG.s:453    .text:00000000000001fc .L0 
     /tmp/ccGTScPG.s:454    .text:0000000000000200 .L0 
     /tmp/ccGTScPG.s:457    .text:0000000000000208 .L0 
     /tmp/ccGTScPG.s:458    .text:0000000000000208 .L0 
     /tmp/ccGTScPG.s:460    .text:000000000000020c .L0 
     /tmp/ccGTScPG.s:462    .text:000000000000020c .L0 
   src/syscall_c.cpp:83     .text:000000000000020c .L0 
     /tmp/ccGTScPG.s:468    .text:0000000000000210 .L0 
     /tmp/ccGTScPG.s:470    .text:0000000000000210 .L0 
     /tmp/ccGTScPG.s:476    .text:0000000000000218 .L0 
     /tmp/ccGTScPG.s:478    .text:0000000000000218 .L0 
     /tmp/ccGTScPG.s:481    .text:0000000000000220 .L0 
     /tmp/ccGTScPG.s:482    .text:0000000000000220 .L0 
     /tmp/ccGTScPG.s:484    .text:0000000000000228 .L0 
     /tmp/ccGTScPG.s:486    .text:000000000000022c .L0 
     /tmp/ccGTScPG.s:487    .text:000000000000022c .L0 
     /tmp/ccGTScPG.s:489    .text:0000000000000230 .L0 
     /tmp/ccGTScPG.s:491    .text:0000000000000234 .L0 
     /tmp/ccGTScPG.s:497    .text:0000000000000234 _Z8sem_waitP3Sem
     /tmp/ccGTScPG.s:500    .text:0000000000000234 .L0 
     /tmp/ccGTScPG.s:502    .text:0000000000000234 .L0 
     /tmp/ccGTScPG.s:503    .text:0000000000000238 .L0 
     /tmp/ccGTScPG.s:506    .text:0000000000000240 .L0 
     /tmp/ccGTScPG.s:507    .text:0000000000000240 .L0 
     /tmp/ccGTScPG.s:509    .text:0000000000000244 .L0 
     /tmp/ccGTScPG.s:511    .text:0000000000000244 .L0 
   src/syscall_c.cpp:92     .text:0000000000000244 .L0 
     /tmp/ccGTScPG.s:517    .text:0000000000000248 .L0 
     /tmp/ccGTScPG.s:519    .text:0000000000000248 .L0 
     /tmp/ccGTScPG.s:525    .text:0000000000000250 .L0 
     /tmp/ccGTScPG.s:527    .text:0000000000000250 .L0 
     /tmp/ccGTScPG.s:530    .text:0000000000000258 .L0 
     /tmp/ccGTScPG.s:531    .text:0000000000000258 .L0 
   src/syscall_c.cpp:98     .text:0000000000000258 .L0 
     /tmp/ccGTScPG.s:538    .text:000000000000025c .L0 
     /tmp/ccGTScPG.s:540    .text:000000000000025c .L0 
     /tmp/ccGTScPG.s:542    .text:0000000000000264 .L0 
     /tmp/ccGTScPG.s:544    .text:0000000000000268 .L0 
     /tmp/ccGTScPG.s:545    .text:0000000000000268 .L0 
     /tmp/ccGTScPG.s:547    .text:000000000000026c .L0 
     /tmp/ccGTScPG.s:549    .text:0000000000000270 .L0 
     /tmp/ccGTScPG.s:555    .text:0000000000000270 _Z10sem_signalP3Sem
     /tmp/ccGTScPG.s:558    .text:0000000000000270 .L0 
     /tmp/ccGTScPG.s:560    .text:0000000000000270 .L0 
GAS LISTING /tmp/ccGTScPG.s 			page 23


     /tmp/ccGTScPG.s:561    .text:0000000000000274 .L0 
     /tmp/ccGTScPG.s:564    .text:000000000000027c .L0 
     /tmp/ccGTScPG.s:565    .text:000000000000027c .L0 
     /tmp/ccGTScPG.s:567    .text:0000000000000280 .L0 
     /tmp/ccGTScPG.s:569    .text:0000000000000280 .L0 
   src/syscall_c.cpp:103    .text:0000000000000280 .L0 
     /tmp/ccGTScPG.s:575    .text:0000000000000284 .L0 
     /tmp/ccGTScPG.s:577    .text:0000000000000284 .L0 
     /tmp/ccGTScPG.s:583    .text:000000000000028c .L0 
     /tmp/ccGTScPG.s:585    .text:000000000000028c .L0 
     /tmp/ccGTScPG.s:588    .text:0000000000000294 .L0 
     /tmp/ccGTScPG.s:589    .text:0000000000000294 .L0 
   src/syscall_c.cpp:109    .text:0000000000000294 .L0 
     /tmp/ccGTScPG.s:596    .text:0000000000000298 .L0 
     /tmp/ccGTScPG.s:598    .text:0000000000000298 .L0 
     /tmp/ccGTScPG.s:600    .text:00000000000002a0 .L0 
     /tmp/ccGTScPG.s:602    .text:00000000000002a4 .L0 
     /tmp/ccGTScPG.s:603    .text:00000000000002a4 .L0 
     /tmp/ccGTScPG.s:605    .text:00000000000002a8 .L0 
     /tmp/ccGTScPG.s:607    .text:00000000000002ac .L0 
     /tmp/ccGTScPG.s:613    .text:00000000000002ac _Z4getcv
     /tmp/ccGTScPG.s:616    .text:00000000000002ac .L0 
     /tmp/ccGTScPG.s:617    .text:00000000000002ac .L0 
     /tmp/ccGTScPG.s:618    .text:00000000000002b0 .L0 
     /tmp/ccGTScPG.s:621    .text:00000000000002b8 .L0 
     /tmp/ccGTScPG.s:622    .text:00000000000002b8 .L0 
     /tmp/ccGTScPG.s:624    .text:00000000000002bc .L0 
     /tmp/ccGTScPG.s:626    .text:00000000000002bc .L0 
     /tmp/ccGTScPG.s:627    .text:00000000000002bc .L0 
     /tmp/ccGTScPG.s:633    .text:00000000000002c4 .L0 
     /tmp/ccGTScPG.s:635    .text:00000000000002c4 .L0 
     /tmp/ccGTScPG.s:638    .text:00000000000002cc .L0 
     /tmp/ccGTScPG.s:639    .text:00000000000002cc .L0 
   src/syscall_c.cpp:119    .text:00000000000002cc .L0 
     /tmp/ccGTScPG.s:646    .text:00000000000002d0 .L0 
     /tmp/ccGTScPG.s:648    .text:00000000000002d0 .L0 
     /tmp/ccGTScPG.s:650    .text:00000000000002d8 .L0 
     /tmp/ccGTScPG.s:652    .text:00000000000002dc .L0 
     /tmp/ccGTScPG.s:653    .text:00000000000002dc .L0 
     /tmp/ccGTScPG.s:655    .text:00000000000002e0 .L0 
     /tmp/ccGTScPG.s:657    .text:00000000000002e4 .L0 
     /tmp/ccGTScPG.s:663    .text:00000000000002e4 _Z4putcc
     /tmp/ccGTScPG.s:666    .text:00000000000002e4 .L0 
     /tmp/ccGTScPG.s:668    .text:00000000000002e4 .L0 
     /tmp/ccGTScPG.s:669    .text:00000000000002e8 .L0 
     /tmp/ccGTScPG.s:672    .text:00000000000002f0 .L0 
     /tmp/ccGTScPG.s:673    .text:00000000000002f0 .L0 
     /tmp/ccGTScPG.s:675    .text:00000000000002f4 .L0 
     /tmp/ccGTScPG.s:677    .text:00000000000002f4 .L0 
   src/syscall_c.cpp:124    .text:00000000000002f4 .L0 
     /tmp/ccGTScPG.s:683    .text:00000000000002f8 .L0 
     /tmp/ccGTScPG.s:685    .text:00000000000002f8 .L0 
     /tmp/ccGTScPG.s:691    .text:0000000000000300 .L0 
     /tmp/ccGTScPG.s:693    .text:0000000000000300 .L0 
     /tmp/ccGTScPG.s:696    .text:0000000000000308 .L0 
     /tmp/ccGTScPG.s:697    .text:000000000000030c .L0 
     /tmp/ccGTScPG.s:699    .text:0000000000000310 .L0 
GAS LISTING /tmp/ccGTScPG.s 			page 24


     /tmp/ccGTScPG.s:700    .text:0000000000000310 .L0 
     /tmp/ccGTScPG.s:702    .text:0000000000000314 .L0 
     /tmp/ccGTScPG.s:704    .text:0000000000000318 .L0 
     /tmp/ccGTScPG.s:710    .text:0000000000000318 _Z12thread_allocPP3PCBPFvPvES2_
     /tmp/ccGTScPG.s:713    .text:0000000000000318 .L0 
     /tmp/ccGTScPG.s:715    .text:0000000000000318 .L0 
     /tmp/ccGTScPG.s:716    .text:000000000000031c .L0 
     /tmp/ccGTScPG.s:722    .text:0000000000000330 .L0 
     /tmp/ccGTScPG.s:723    .text:0000000000000330 .L0 
     /tmp/ccGTScPG.s:724    .text:0000000000000330 .L0 
     /tmp/ccGTScPG.s:725    .text:0000000000000330 .L0 
     /tmp/ccGTScPG.s:726    .text:0000000000000330 .L0 
     /tmp/ccGTScPG.s:728    .text:0000000000000334 .L0 
     /tmp/ccGTScPG.s:734    .text:0000000000000340 .L0 
     /tmp/ccGTScPG.s:735    .text:0000000000000340 .L0 
     /tmp/ccGTScPG.s:736    .text:0000000000000340 .L0 
     /tmp/ccGTScPG.s:737    .text:0000000000000340 .L0 
     /tmp/ccGTScPG.s:738    .text:0000000000000340 .L0 
     /tmp/ccGTScPG.s:740    .text:0000000000000344 .L0 
     /tmp/ccGTScPG.s:741    .text:0000000000000344 .L0 
     /tmp/ccGTScPG.s:746    .text:0000000000000350 .L0 
     /tmp/ccGTScPG.s:747    .text:0000000000000350 .L0 
     /tmp/ccGTScPG.s:752    .text:0000000000000358 .L0 
   src/syscall_c.cpp:139    .text:0000000000000358 .L0 
     /tmp/ccGTScPG.s:758    .text:000000000000035c .L0 
   src/syscall_c.cpp:140    .text:000000000000035c .L0 
     /tmp/ccGTScPG.s:763    .text:0000000000000360 .L0 
   src/syscall_c.cpp:141    .text:0000000000000360 .L0 
     /tmp/ccGTScPG.s:768    .text:0000000000000364 .L0 
   src/syscall_c.cpp:142    .text:0000000000000364 .L0 
     /tmp/ccGTScPG.s:773    .text:0000000000000368 .L0 
     /tmp/ccGTScPG.s:775    .text:0000000000000368 .L0 
     /tmp/ccGTScPG.s:781    .text:0000000000000370 .L0 
     /tmp/ccGTScPG.s:783    .text:0000000000000370 .L0 
     /tmp/ccGTScPG.s:786    .text:0000000000000378 .L0 
     /tmp/ccGTScPG.s:787    .text:000000000000037c .L0 
     /tmp/ccGTScPG.s:788    .text:000000000000037c .L0 
     /tmp/ccGTScPG.s:790    .text:0000000000000380 .L0 
     /tmp/ccGTScPG.s:791    .text:0000000000000380 .L0 
     /tmp/ccGTScPG.s:793    .text:0000000000000384 .L0 
     /tmp/ccGTScPG.s:796    .text:0000000000000388 .L0 
     /tmp/ccGTScPG.s:799    .text:000000000000038c .L0 
     /tmp/ccGTScPG.s:802    .text:0000000000000390 .L0 
     /tmp/ccGTScPG.s:806    .text:0000000000000394 .L0 
     /tmp/ccGTScPG.s:808    .text:0000000000000394 .L0 
     /tmp/ccGTScPG.s:811    .text:000000000000039c .L0 
     /tmp/ccGTScPG.s:817    .text:000000000000039c _Z16thread_schedulerP3PCB
     /tmp/ccGTScPG.s:820    .text:000000000000039c .L0 
     /tmp/ccGTScPG.s:822    .text:000000000000039c .L0 
     /tmp/ccGTScPG.s:823    .text:00000000000003a0 .L0 
     /tmp/ccGTScPG.s:826    .text:00000000000003a8 .L0 
     /tmp/ccGTScPG.s:827    .text:00000000000003a8 .L0 
     /tmp/ccGTScPG.s:829    .text:00000000000003ac .L0 
     /tmp/ccGTScPG.s:831    .text:00000000000003ac .L0 
   src/syscall_c.cpp:149    .text:00000000000003ac .L0 
     /tmp/ccGTScPG.s:837    .text:00000000000003b0 .L0 
     /tmp/ccGTScPG.s:839    .text:00000000000003b0 .L0 
GAS LISTING /tmp/ccGTScPG.s 			page 25


     /tmp/ccGTScPG.s:845    .text:00000000000003b8 .L0 
     /tmp/ccGTScPG.s:847    .text:00000000000003b8 .L0 
     /tmp/ccGTScPG.s:850    .text:00000000000003c0 .L0 
     /tmp/ccGTScPG.s:851    .text:00000000000003c4 .L0 
     /tmp/ccGTScPG.s:853    .text:00000000000003c8 .L0 
     /tmp/ccGTScPG.s:854    .text:00000000000003c8 .L0 
     /tmp/ccGTScPG.s:856    .text:00000000000003cc .L0 
     /tmp/ccGTScPG.s:858    .text:00000000000003d0 .L0 
     /tmp/ccGTScPG.s:865    .text:00000000000003d0 .L0 
     /tmp/ccGTScPG.s:102    .text:0000000000000060 .L4
     /tmp/ccGTScPG.s:61     .text:0000000000000038 .L5
     /tmp/ccGTScPG.s:278    .text:0000000000000130 .L12
     /tmp/ccGTScPG.s:284    .text:0000000000000138 .L13
     /tmp/ccGTScPG.s:214    .text:00000000000000e8 .L10
     /tmp/ccGTScPG.s:255    .text:0000000000000114 .L11
     /tmp/ccGTScPG.s:437    .text:00000000000001f4 .L21
     /tmp/ccGTScPG.s:420    .text:00000000000001e0 .L20
     /tmp/ccGTScPG.s:805    .text:0000000000000394 .L35
     /tmp/ccGTScPG.s:750    .text:0000000000000358 .L34
     /tmp/ccGTScPG.s:1860   .debug_abbrev:0000000000000000 .Ldebug_abbrev0
     /tmp/ccGTScPG.s:3239   .debug_str:00000000000004fe .LASF94
     /tmp/ccGTScPG.s:3141   .debug_str:0000000000000275 .LASF95
     /tmp/ccGTScPG.s:3181   .debug_str:0000000000000381 .LASF96
     /tmp/ccGTScPG.s:5      .text:0000000000000000 .Ltext0
     /tmp/ccGTScPG.s:861    .text:00000000000003d0 .Letext0
     /tmp/ccGTScPG.s:3049   .debug_line:0000000000000000 .Ldebug_line0
     /tmp/ccGTScPG.s:3169   .debug_str:000000000000032a .LASF0
     /tmp/ccGTScPG.s:3179   .debug_str:000000000000036e .LASF1
     /tmp/ccGTScPG.s:3155   .debug_str:00000000000002d9 .LASF2
     /tmp/ccGTScPG.s:3221   .debug_str:00000000000004ab .LASF3
     /tmp/ccGTScPG.s:3137   .debug_str:0000000000000263 .LASF4
     /tmp/ccGTScPG.s:3223   .debug_str:00000000000004b2 .LASF5
     /tmp/ccGTScPG.s:3075   .debug_str:00000000000000b6 .LASF6
     /tmp/ccGTScPG.s:3185   .debug_str:00000000000003ac .LASF7
     /tmp/ccGTScPG.s:3167   .debug_str:0000000000000317 .LASF8
     /tmp/ccGTScPG.s:3247   .debug_str:00000000000005e8 .LASF9
     /tmp/ccGTScPG.s:3129   .debug_str:0000000000000229 .LASF10
     /tmp/ccGTScPG.s:3201   .debug_str:0000000000000436 .LASF11
     /tmp/ccGTScPG.s:3241   .debug_str:00000000000005c2 .LASF12
     /tmp/ccGTScPG.s:3077   .debug_str:00000000000000bd .LASF13
     /tmp/ccGTScPG.s:3057   .debug_str:000000000000001e .LASF14
     /tmp/ccGTScPG.s:3085   .debug_str:000000000000010d .LASF15
     /tmp/ccGTScPG.s:3217   .debug_str:000000000000048f .LASF16
     /tmp/ccGTScPG.s:3099   .debug_str:0000000000000172 .LASF17
     /tmp/ccGTScPG.s:3059   .debug_str:000000000000002e .LASF18
     /tmp/ccGTScPG.s:3121   .debug_str:00000000000001f7 .LASF19
     /tmp/ccGTScPG.s:3055   .debug_str:0000000000000011 .LASF20
     /tmp/ccGTScPG.s:3097   .debug_str:0000000000000167 .LASF21
     /tmp/ccGTScPG.s:3087   .debug_str:0000000000000119 .LASF22
     /tmp/ccGTScPG.s:3243   .debug_str:00000000000005d1 .LASF23
     /tmp/ccGTScPG.s:3187   .debug_str:00000000000003bf .LASF24
     /tmp/ccGTScPG.s:3229   .debug_str:00000000000004d6 .LASF25
     /tmp/ccGTScPG.s:3257   .debug_str:0000000000000629 .LASF26
     /tmp/ccGTScPG.s:3163   .debug_str:0000000000000303 .LASF27
     /tmp/ccGTScPG.s:3251   .debug_str:0000000000000608 .LASF28
     /tmp/ccGTScPG.s:3267   .debug_str:0000000000000671 .LASF29
     /tmp/ccGTScPG.s:3237   .debug_str:00000000000004f3 .LASF30
GAS LISTING /tmp/ccGTScPG.s 			page 26


     /tmp/ccGTScPG.s:3051   .debug_str:0000000000000000 .LASF31
     /tmp/ccGTScPG.s:3063   .debug_str:0000000000000044 .LASF97
     /tmp/ccGTScPG.s:3213   .debug_str:000000000000047f .LASF32
     /tmp/ccGTScPG.s:3079   .debug_str:00000000000000cd .LASF34
     /tmp/ccGTScPG.s:3159   .debug_str:00000000000002f3 .LASF36
     /tmp/ccGTScPG.s:3193   .debug_str:00000000000003d9 .LASF38
     /tmp/ccGTScPG.s:3157   .debug_str:00000000000002e7 .LASF33
     /tmp/ccGTScPG.s:3067   .debug_str:000000000000005d .LASF35
     /tmp/ccGTScPG.s:3061   .debug_str:000000000000003a .LASF37
     /tmp/ccGTScPG.s:3145   .debug_str:000000000000028c .LASF39
     /tmp/ccGTScPG.s:3139   .debug_str:000000000000026a .LASF40
     /tmp/ccGTScPG.s:3207   .debug_str:0000000000000456 .LASF41
     /tmp/ccGTScPG.s:3211   .debug_str:0000000000000471 .LASF42
     /tmp/ccGTScPG.s:3069   .debug_str:0000000000000074 .LASF43
     /tmp/ccGTScPG.s:3209   .debug_str:000000000000046c .LASF98
     /tmp/ccGTScPG.s:3219   .debug_str:00000000000004a5 .LASF46
     /tmp/ccGTScPG.s:3249   .debug_str:00000000000005f8 .LASF48
     /tmp/ccGTScPG.s:3205   .debug_str:000000000000044a .LASF50
     /tmp/ccGTScPG.s:3195   .debug_str:00000000000003f0 .LASF99
     /tmp/ccGTScPG.s:3113   .debug_str:00000000000001d5 .LASF44
     /tmp/ccGTScPG.s:3135   .debug_str:0000000000000256 .LASF45
     /tmp/ccGTScPG.s:3175   .debug_str:0000000000000357 .LASF100
     /tmp/ccGTScPG.s:3171   .debug_str:0000000000000337 .LASF47
     /tmp/ccGTScPG.s:3133   .debug_str:0000000000000243 .LASF49
     /tmp/ccGTScPG.s:3173   .debug_str:0000000000000340 .LASF101
     /tmp/ccGTScPG.s:3115   .debug_str:00000000000001dd .LASF102
     /tmp/ccGTScPG.s:3143   .debug_str:0000000000000287 .LASF51
     /tmp/ccGTScPG.s:3261   .debug_str:000000000000063e .LASF52
     /tmp/ccGTScPG.s:3253   .debug_str:0000000000000615 .LASF53
     /tmp/ccGTScPG.s:3151   .debug_str:00000000000002c2 .LASF54
     /tmp/ccGTScPG.s:3053   .debug_str:0000000000000009 .LASF55
     /tmp/ccGTScPG.s:3093   .debug_str:0000000000000146 .LASF103
     /tmp/ccGTScPG.s:3083   .debug_str:00000000000000e5 .LASF104
     /tmp/ccGTScPG.s:3111   .debug_str:00000000000001cf .LASF56
     /tmp/ccGTScPG.s:3119   .debug_str:00000000000001f2 .LASF57
     /tmp/ccGTScPG.s:3147   .debug_str:00000000000002a1 .LASF58
     /tmp/ccGTScPG.s:3105   .debug_str:000000000000019e .LASF59
     /tmp/ccGTScPG.s:818    .text:000000000000039c .LFB41
     /tmp/ccGTScPG.s:859    .text:00000000000003d0 .LFE41
     /tmp/ccGTScPG.s:3233   .debug_str:00000000000004e7 .LASF62
     /tmp/ccGTScPG.s:2571   .debug_loc:0000000000000000 .LLST25
     /tmp/ccGTScPG.s:848    .text:00000000000003c0 .LVL52
     /tmp/ccGTScPG.s:3177   .debug_str:0000000000000361 .LASF60
     /tmp/ccGTScPG.s:3199   .debug_str:0000000000000416 .LASF61
     /tmp/ccGTScPG.s:711    .text:0000000000000318 .LFB40
     /tmp/ccGTScPG.s:812    .text:000000000000039c .LFE40
     /tmp/ccGTScPG.s:2585   .debug_loc:0000000000000039 .LLST18
     /tmp/ccGTScPG.s:3125   .debug_str:000000000000020b .LASF63
     /tmp/ccGTScPG.s:2611   .debug_loc:00000000000000ab .LLST19
     /tmp/ccGTScPG.s:2633   .debug_loc:000000000000010a .LLST20
     /tmp/ccGTScPG.s:3215   .debug_str:0000000000000484 .LASF64
     /tmp/ccGTScPG.s:2655   .debug_loc:0000000000000169 .LLST21
     /tmp/ccGTScPG.s:3131   .debug_str:0000000000000237 .LASF65
     /tmp/ccGTScPG.s:2681   .debug_loc:00000000000001db .LLST22
     /tmp/ccGTScPG.s:3103   .debug_str:0000000000000196 .LASF66
     /tmp/ccGTScPG.s:2703   .debug_loc:000000000000023a .LLST23
     /tmp/ccGTScPG.s:3255   .debug_str:000000000000061d .LASF67
GAS LISTING /tmp/ccGTScPG.s 			page 27


     /tmp/ccGTScPG.s:2725   .debug_loc:0000000000000299 .LLST24
     /tmp/ccGTScPG.s:744    .text:0000000000000350 .LVL43
     /tmp/ccGTScPG.s:784    .text:0000000000000378 .LVL45
     /tmp/ccGTScPG.s:3161   .debug_str:00000000000002fe .LASF68
     /tmp/ccGTScPG.s:3123   .debug_str:0000000000000202 .LASF69
     /tmp/ccGTScPG.s:664    .text:00000000000002e4 .LFB39
     /tmp/ccGTScPG.s:705    .text:0000000000000318 .LFE39
     /tmp/ccGTScPG.s:2732   .debug_loc:00000000000002bc .LLST17
     /tmp/ccGTScPG.s:694    .text:0000000000000308 .LVL39
     /tmp/ccGTScPG.s:3189   .debug_str:00000000000003cf .LASF70
     /tmp/ccGTScPG.s:3107   .debug_str:00000000000001b8 .LASF71
     /tmp/ccGTScPG.s:3073   .debug_str:00000000000000ad .LASF73
     /tmp/ccGTScPG.s:614    .text:00000000000002ac .LFB38
     /tmp/ccGTScPG.s:658    .text:00000000000002e4 .LFE38
     /tmp/ccGTScPG.s:636    .text:00000000000002cc .LVL36
     /tmp/ccGTScPG.s:3245   .debug_str:00000000000005dd .LASF72
     /tmp/ccGTScPG.s:3089   .debug_str:0000000000000128 .LASF74
     /tmp/ccGTScPG.s:556    .text:0000000000000270 .LFB37
     /tmp/ccGTScPG.s:608    .text:00000000000002ac .LFE37
     /tmp/ccGTScPG.s:2746   .debug_loc:00000000000002f5 .LLST16
     /tmp/ccGTScPG.s:586    .text:0000000000000294 .LVL34
     /tmp/ccGTScPG.s:3165   .debug_str:000000000000030e .LASF75
     /tmp/ccGTScPG.s:3065   .debug_str:000000000000004c .LASF76
     /tmp/ccGTScPG.s:498    .text:0000000000000234 .LFB36
     /tmp/ccGTScPG.s:550    .text:0000000000000270 .LFE36
     /tmp/ccGTScPG.s:2760   .debug_loc:000000000000032e .LLST15
     /tmp/ccGTScPG.s:528    .text:0000000000000258 .LVL31
     /tmp/ccGTScPG.s:3091   .debug_str:000000000000013c .LASF77
     /tmp/ccGTScPG.s:3109   .debug_str:00000000000001bd .LASF78
     /tmp/ccGTScPG.s:449    .text:00000000000001fc .LFB35
     /tmp/ccGTScPG.s:492    .text:0000000000000234 .LFE35
     /tmp/ccGTScPG.s:2774   .debug_loc:0000000000000367 .LLST14
     /tmp/ccGTScPG.s:479    .text:0000000000000220 .LVL29
     /tmp/ccGTScPG.s:3117   .debug_str:00000000000001e9 .LASF79
     /tmp/ccGTScPG.s:3095   .debug_str:0000000000000154 .LASF80
     /tmp/ccGTScPG.s:375    .text:00000000000001a4 .LFB34
     /tmp/ccGTScPG.s:443    .text:00000000000001fc .LFE34
     /tmp/ccGTScPG.s:2788   .debug_loc:00000000000003a0 .LLST11
     /tmp/ccGTScPG.s:3191   .debug_str:00000000000003d4 .LASF81
     /tmp/ccGTScPG.s:2810   .debug_loc:00000000000003ff .LLST12
     /tmp/ccGTScPG.s:2824   .debug_loc:0000000000000438 .LLST13
     /tmp/ccGTScPG.s:413    .text:00000000000001d4 .LVL24
     /tmp/ccGTScPG.s:3263   .debug_str:0000000000000644 .LASF82
     /tmp/ccGTScPG.s:3183   .debug_str:000000000000039b .LASF83
     /tmp/ccGTScPG.s:334    .text:0000000000000170 .LFB33
     /tmp/ccGTScPG.s:369    .text:00000000000001a4 .LFE33
     /tmp/ccGTScPG.s:356    .text:0000000000000190 .LVL22
     /tmp/ccGTScPG.s:3149   .debug_str:00000000000002b2 .LASF84
     /tmp/ccGTScPG.s:3071   .debug_str:0000000000000098 .LASF85
     /tmp/ccGTScPG.s:295    .text:0000000000000140 .LFB32
     /tmp/ccGTScPG.s:328    .text:0000000000000170 .LFE32
     /tmp/ccGTScPG.s:317    .text:0000000000000160 .LVL21
     /tmp/ccGTScPG.s:3101   .debug_str:0000000000000188 .LASF86
     /tmp/ccGTScPG.s:3265   .debug_str:0000000000000650 .LASF87
     /tmp/ccGTScPG.s:175    .text:00000000000000a8 .LFB31
     /tmp/ccGTScPG.s:289    .text:0000000000000140 .LFE31
     /tmp/ccGTScPG.s:2831   .debug_loc:000000000000045b .LLST3
GAS LISTING /tmp/ccGTScPG.s 			page 28


     /tmp/ccGTScPG.s:2853   .debug_loc:00000000000004ba .LLST4
     /tmp/ccGTScPG.s:2879   .debug_loc:000000000000052c .LLST5
     /tmp/ccGTScPG.s:2905   .debug_loc:000000000000059e .LLST6
     /tmp/ccGTScPG.s:2927   .debug_loc:00000000000005fd .LLST7
     /tmp/ccGTScPG.s:2953   .debug_loc:000000000000066f .LLST8
     /tmp/ccGTScPG.s:2979   .debug_loc:00000000000006e1 .LLST9
     /tmp/ccGTScPG.s:2986   .debug_loc:0000000000000704 .LLST10
     /tmp/ccGTScPG.s:208    .text:00000000000000e0 .LVL12
     /tmp/ccGTScPG.s:248    .text:0000000000000108 .LVL14
     /tmp/ccGTScPG.s:3259   .debug_str:0000000000000635 .LASF88
     /tmp/ccGTScPG.s:3197   .debug_str:0000000000000408 .LASF89
     /tmp/ccGTScPG.s:117    .text:000000000000006c .LFB30
     /tmp/ccGTScPG.s:169    .text:00000000000000a8 .LFE30
     /tmp/ccGTScPG.s:3203   .debug_str:0000000000000445 .LASF90
     /tmp/ccGTScPG.s:2993   .debug_loc:0000000000000727 .LLST2
     /tmp/ccGTScPG.s:147    .text:0000000000000090 .LVL7
     /tmp/ccGTScPG.s:3225   .debug_str:00000000000004c4 .LASF91
     /tmp/ccGTScPG.s:3153   .debug_str:00000000000002cb .LASF92
     /tmp/ccGTScPG.s:41     .text:000000000000001c .LFB29
     /tmp/ccGTScPG.s:111    .text:000000000000006c .LFE29
     /tmp/ccGTScPG.s:3235   .debug_str:00000000000004ee .LASF93
     /tmp/ccGTScPG.s:3007   .debug_loc:0000000000000760 .LLST0
     /tmp/ccGTScPG.s:3029   .debug_loc:00000000000007bf .LLST1
     /tmp/ccGTScPG.s:80     .text:000000000000004c .LVL2
     /tmp/ccGTScPG.s:3227   .debug_str:00000000000004ce .LASF105
     /tmp/ccGTScPG.s:3081   .debug_str:00000000000000d9 .LASF106
     /tmp/ccGTScPG.s:10     .text:0000000000000000 .LFB28
     /tmp/ccGTScPG.s:35     .text:000000000000001c .LFE28
     /tmp/ccGTScPG.s:3231   .debug_str:00000000000004e1 .LASF107
     /tmp/ccGTScPG.s:3127   .debug_str:0000000000000219 .LASF108
     /tmp/ccGTScPG.s:821    .text:000000000000039c .LVL51
     /tmp/ccGTScPG.s:714    .text:0000000000000318 .LVL40
     /tmp/ccGTScPG.s:742    .text:0000000000000348 .LVL42
     /tmp/ccGTScPG.s:797    .text:0000000000000388 .LVL47
     /tmp/ccGTScPG.s:804    .text:0000000000000394 .LVL49
     /tmp/ccGTScPG.s:809    .text:0000000000000398 .LVL50
     /tmp/ccGTScPG.s:794    .text:0000000000000384 .LVL46
     /tmp/ccGTScPG.s:800    .text:000000000000038c .LVL48
     /tmp/ccGTScPG.s:733    .text:0000000000000340 .LVL41
     /tmp/ccGTScPG.s:667    .text:00000000000002e4 .LVL38
     /tmp/ccGTScPG.s:559    .text:0000000000000270 .LVL33
     /tmp/ccGTScPG.s:501    .text:0000000000000234 .LVL30
     /tmp/ccGTScPG.s:452    .text:00000000000001fc .LVL28
     /tmp/ccGTScPG.s:378    .text:00000000000001a4 .LVL23
     /tmp/ccGTScPG.s:432    .text:00000000000001ec .LVL26
     /tmp/ccGTScPG.s:436    .text:00000000000001f4 .LVL27
     /tmp/ccGTScPG.s:421    .text:00000000000001e0 .LVL25
     /tmp/ccGTScPG.s:178    .text:00000000000000a8 .LVL9
     /tmp/ccGTScPG.s:206    .text:00000000000000d8 .LVL11
     /tmp/ccGTScPG.s:267    .text:0000000000000120 .LVL16
     /tmp/ccGTScPG.s:277    .text:0000000000000130 .LVL19
     /tmp/ccGTScPG.s:270    .text:0000000000000124 .LVL17
     /tmp/ccGTScPG.s:283    .text:0000000000000138 .LVL20
     /tmp/ccGTScPG.s:273    .text:0000000000000128 .LVL18
     /tmp/ccGTScPG.s:197    .text:00000000000000d0 .LVL10
     /tmp/ccGTScPG.s:256    .text:0000000000000114 .LVL15
     /tmp/ccGTScPG.s:120    .text:000000000000006c .LVL6
GAS LISTING /tmp/ccGTScPG.s 			page 29


     /tmp/ccGTScPG.s:44     .text:000000000000001c .LVL0
     /tmp/ccGTScPG.s:60     .text:0000000000000038 .LVL1
     /tmp/ccGTScPG.s:101    .text:0000000000000060 .LVL4
     /tmp/ccGTScPG.s:106    .text:0000000000000064 .LVL5
     /tmp/ccGTScPG.s:88     .text:0000000000000050 .LVL3
     /tmp/ccGTScPG.s:866    .debug_info:0000000000000000 .Ldebug_info0

UNDEFINED SYMBOLS
_Znam
